GAS LISTING /tmp/cckxyRu2.s 			page 1


   1              		.file	"kScheduler.cpp"
   2              		.option pic
   3              		.option norelax
   4              		.text
   5              	.Ltext0:
   6              		.align	2
   7              		.globl	_ZN10kScheduler3getEv
   9              	_ZN10kScheduler3getEv:
  10              	.LFB11:
  11              		.file 1 "src/kScheduler.cpp"
   1:src/kScheduler.cpp **** #include "../h/kScheduler.hpp"
   2:src/kScheduler.cpp **** 
   3:src/kScheduler.cpp **** kThread* kScheduler::headReady = nullptr;
   4:src/kScheduler.cpp **** kThread* kScheduler::tailReady = nullptr;
   5:src/kScheduler.cpp **** //ne zaboravi idle nit da ubacis na pocetku
   6:src/kScheduler.cpp **** kThread* kScheduler::get()
   7:src/kScheduler.cpp **** {
  12              		.loc 1 7 1
  13              		.cfi_startproc
  14 0000 130101FF 		addi	sp,sp,-16
  15              		.cfi_def_cfa_offset 16
  16 0004 23348100 		sd	s0,8(sp)
  17              		.cfi_offset 8, -8
  18 0008 13040101 		addi	s0,sp,16
  19              		.cfi_def_cfa 8, 0
   8:src/kScheduler.cpp **** 
   9:src/kScheduler.cpp ****     kThread* tmp = headReady;
  20              		.loc 1 9 5
  21              		.loc 1 9 14 is_stmt 0
  22 000c 17050000 		ld	a0,.LANCHOR0
  22      03350500 
  23              	.LVL0:
  10:src/kScheduler.cpp ****    if(headReady) headReady = headReady->nextReadyProccess;
  24              		.loc 1 10 4 is_stmt 1
  25 0014 63080500 		beqz	a0,.L1
  26              		.loc 1 10 18 discriminator 1
  27              		.loc 1 10 41 is_stmt 0 discriminator 1
  28 0018 83370500 		ld	a5,0(a0)
  29              		.loc 1 10 28 discriminator 1
  30 001c 17070000 		sd	a5,.LANCHOR0,a4
  30      2330F700 
  11:src/kScheduler.cpp ****     return tmp;
  31              		.loc 1 11 5 is_stmt 1 discriminator 1
  32              	.L1:
  12:src/kScheduler.cpp **** 
  13:src/kScheduler.cpp **** }
  33              		.loc 1 13 1 is_stmt 0
  34 0024 03348100 		ld	s0,8(sp)
  35              		.cfi_restore 8
  36              		.cfi_def_cfa 2, 16
  37 0028 13010101 		addi	sp,sp,16
  38              		.cfi_def_cfa_offset 0
  39 002c 67800000 		jr	ra
  40              		.cfi_endproc
  41              	.LFE11:
  43              		.align	2
  44              		.globl	_ZN10kScheduler3putEP7kThread
GAS LISTING /tmp/cckxyRu2.s 			page 2


  46              	_ZN10kScheduler3putEP7kThread:
  47              	.LFB12:
  14:src/kScheduler.cpp **** 
  15:src/kScheduler.cpp **** void kScheduler::put(kThread* thr)
  16:src/kScheduler.cpp **** {
  48              		.loc 1 16 1 is_stmt 1
  49              		.cfi_startproc
  50              	.LVL1:
  51 0030 130101FF 		addi	sp,sp,-16
  52              		.cfi_def_cfa_offset 16
  53 0034 23348100 		sd	s0,8(sp)
  54              		.cfi_offset 8, -8
  55 0038 13040101 		addi	s0,sp,16
  56              		.cfi_def_cfa 8, 0
  17:src/kScheduler.cpp **** 
  18:src/kScheduler.cpp ****     if(!headReady) headReady = thr;
  57              		.loc 1 18 5
  58              		.loc 1 18 8 is_stmt 0
  59 003c 97070000 		ld	a5,.LANCHOR0
  59      83B70700 
  60              		.loc 1 18 5
  61 0044 63840702 		beqz	a5,.L8
  62              	.L5:
  19:src/kScheduler.cpp **** 
  20:src/kScheduler.cpp ****     if(tailReady)
  63              		.loc 1 20 5 is_stmt 1
  64              		.loc 1 20 17 is_stmt 0
  65 0048 97070000 		ld	a5,.LANCHOR0+8
  65      83B70700 
  66              		.loc 1 20 5
  67 0050 63840700 		beqz	a5,.L6
  21:src/kScheduler.cpp ****     {
  22:src/kScheduler.cpp ****         tailReady->nextReadyProccess = thr;
  68              		.loc 1 22 9 is_stmt 1
  69              		.loc 1 22 38 is_stmt 0
  70 0054 23B0A700 		sd	a0,0(a5)
  71              	.L6:
  23:src/kScheduler.cpp ****     }
  24:src/kScheduler.cpp **** 
  25:src/kScheduler.cpp ****      tailReady = thr;
  72              		.loc 1 25 6 is_stmt 1
  73              		.loc 1 25 16 is_stmt 0
  74 0058 97070000 		sd	a0,.LANCHOR0+8,a5
  74      23B0A700 
  26:src/kScheduler.cpp **** 
  27:src/kScheduler.cpp **** }
  75              		.loc 1 27 1
  76 0060 03348100 		ld	s0,8(sp)
  77              		.cfi_remember_state
  78              		.cfi_restore 8
  79              		.cfi_def_cfa 2, 16
  80 0064 13010101 		addi	sp,sp,16
  81              		.cfi_def_cfa_offset 0
  82 0068 67800000 		jr	ra
  83              	.L8:
  84              		.cfi_restore_state
  18:src/kScheduler.cpp **** 
GAS LISTING /tmp/cckxyRu2.s 			page 3


  85              		.loc 1 18 20 is_stmt 1 discriminator 1
  18:src/kScheduler.cpp **** 
  86              		.loc 1 18 30 is_stmt 0 discriminator 1
  87 006c 97070000 		sd	a0,.LANCHOR0,a5
  87      23B0A700 
  88 0074 6FF05FFD 		j	.L5
  89              		.cfi_endproc
  90              	.LFE12:
  92              		.globl	_ZN10kScheduler9tailReadyE
  93              		.globl	_ZN10kScheduler9headReadyE
  94              		.bss
  95              		.align	3
  96              		.set	.LANCHOR0,. + 0
  99              	_ZN10kScheduler9headReadyE:
 100 0000 00000000 		.zero	8
 100      00000000 
 103              	_ZN10kScheduler9tailReadyE:
 104 0008 00000000 		.zero	8
 104      00000000 
 105              		.text
 106              	.Letext0:
 107              		.file 2 "src/../h/../h/../lib/hw.h"
 108              		.file 3 "src/../h/../h/kThread.hpp"
 109              		.file 4 "src/../h/kScheduler.hpp"
GAS LISTING /tmp/cckxyRu2.s 			page 4


DEFINED SYMBOLS
                            *ABS*:0000000000000000 kScheduler.cpp
     /tmp/cckxyRu2.s:9      .text:0000000000000000 _ZN10kScheduler3getEv
     /tmp/cckxyRu2.s:13     .text:0000000000000000 .L0 
     /tmp/cckxyRu2.s:14     .text:0000000000000000 .L0 
     /tmp/cckxyRu2.s:15     .text:0000000000000004 .L0 
     /tmp/cckxyRu2.s:17     .text:0000000000000008 .L0 
     /tmp/cckxyRu2.s:19     .text:000000000000000c .L0 
     /tmp/cckxyRu2.s:21     .text:000000000000000c .L0 
     /tmp/cckxyRu2.s:22     .text:000000000000000c .L0 
     /tmp/cckxyRu2.s:25     .text:0000000000000014 .L0 
     /tmp/cckxyRu2.s:27     .text:0000000000000018 .L0 
     /tmp/cckxyRu2.s:28     .text:0000000000000018 .L0 
     /tmp/cckxyRu2.s:30     .text:000000000000001c .L0 
     /tmp/cckxyRu2.s:33     .text:0000000000000024 .L0 
     /tmp/cckxyRu2.s:34     .text:0000000000000024 .L0 
     /tmp/cckxyRu2.s:35     .text:0000000000000028 .L0 
     /tmp/cckxyRu2.s:36     .text:0000000000000028 .L0 
     /tmp/cckxyRu2.s:38     .text:000000000000002c .L0 
     /tmp/cckxyRu2.s:40     .text:0000000000000030 .L0 
     /tmp/cckxyRu2.s:46     .text:0000000000000030 _ZN10kScheduler3putEP7kThread
     /tmp/cckxyRu2.s:49     .text:0000000000000030 .L0 
     /tmp/cckxyRu2.s:51     .text:0000000000000030 .L0 
     /tmp/cckxyRu2.s:52     .text:0000000000000034 .L0 
     /tmp/cckxyRu2.s:54     .text:0000000000000038 .L0 
     /tmp/cckxyRu2.s:56     .text:000000000000003c .L0 
     /tmp/cckxyRu2.s:58     .text:000000000000003c .L0 
     /tmp/cckxyRu2.s:59     .text:000000000000003c .L0 
     /tmp/cckxyRu2.s:61     .text:0000000000000044 .L0 
     /tmp/cckxyRu2.s:64     .text:0000000000000048 .L0 
     /tmp/cckxyRu2.s:65     .text:0000000000000048 .L0 
     /tmp/cckxyRu2.s:67     .text:0000000000000050 .L0 
     /tmp/cckxyRu2.s:69     .text:0000000000000054 .L0 
     /tmp/cckxyRu2.s:70     .text:0000000000000054 .L0 
     /tmp/cckxyRu2.s:73     .text:0000000000000058 .L0 
     /tmp/cckxyRu2.s:74     .text:0000000000000058 .L0 
     /tmp/cckxyRu2.s:76     .text:0000000000000060 .L0 
     /tmp/cckxyRu2.s:77     .text:0000000000000064 .L0 
     /tmp/cckxyRu2.s:78     .text:0000000000000064 .L0 
     /tmp/cckxyRu2.s:79     .text:0000000000000064 .L0 
     /tmp/cckxyRu2.s:81     .text:0000000000000068 .L0 
     /tmp/cckxyRu2.s:84     .text:000000000000006c .L0 
     /tmp/cckxyRu2.s:86     .text:000000000000006c .L0 
     /tmp/cckxyRu2.s:87     .text:000000000000006c .L0 
     /tmp/cckxyRu2.s:89     .text:0000000000000078 .L0 
     /tmp/cckxyRu2.s:103    .bss:0000000000000008 _ZN10kScheduler9tailReadyE
     /tmp/cckxyRu2.s:99     .bss:0000000000000000 _ZN10kScheduler9headReadyE
     /tmp/cckxyRu2.s:96     .bss:0000000000000000 .LANCHOR0
     /tmp/cckxyRu2.s:110    .text:0000000000000078 .L0 
     /tmp/cckxyRu2.s:22     .text:000000000000000c .L0 
     /tmp/cckxyRu2.s:30     .text:000000000000001c .L0 
     /tmp/cckxyRu2.s:59     .text:000000000000003c .L0 
     /tmp/cckxyRu2.s:65     .text:0000000000000048 .L0 
     /tmp/cckxyRu2.s:74     .text:0000000000000058 .L0 
     /tmp/cckxyRu2.s:87     .text:000000000000006c .L0 
     /tmp/cckxyRu2.s:32     .text:0000000000000024 .L1
     /tmp/cckxyRu2.s:83     .text:000000000000006c .L8
GAS LISTING /tmp/cckxyRu2.s 			page 5


     /tmp/cckxyRu2.s:71     .text:0000000000000058 .L6
     /tmp/cckxyRu2.s:62     .text:0000000000000048 .L5
     /tmp/cckxyRu2.s:620    .debug_abbrev:0000000000000000 .Ldebug_abbrev0
     /tmp/cckxyRu2.s:1364   .debug_str:00000000000001f5 .LASF53
     /tmp/cckxyRu2.s:1324   .debug_str:00000000000000b0 .LASF54
     /tmp/cckxyRu2.s:1310   .debug_str:0000000000000033 .LASF55
     /tmp/cckxyRu2.s:5      .text:0000000000000000 .Ltext0
     /tmp/cckxyRu2.s:106    .text:0000000000000078 .Letext0
     /tmp/cckxyRu2.s:1300   .debug_line:0000000000000000 .Ldebug_line0
     /tmp/cckxyRu2.s:1374   .debug_str:00000000000002f8 .LASF0
     /tmp/cckxyRu2.s:1352   .debug_str:000000000000019f .LASF1
     /tmp/cckxyRu2.s:1344   .debug_str:000000000000015d .LASF2
     /tmp/cckxyRu2.s:1318   .debug_str:000000000000009e .LASF4
     /tmp/cckxyRu2.s:1350   .debug_str:000000000000018d .LASF3
     /tmp/cckxyRu2.s:1308   .debug_str:000000000000002c .LASF5
     /tmp/cckxyRu2.s:1304   .debug_str:000000000000000e .LASF6
     /tmp/cckxyRu2.s:1336   .debug_str:0000000000000126 .LASF7
     /tmp/cckxyRu2.s:1386   .debug_str:000000000000034b .LASF8
     /tmp/cckxyRu2.s:1316   .debug_str:0000000000000090 .LASF9
     /tmp/cckxyRu2.s:1424   .debug_str:00000000000004b6 .LASF10
     /tmp/cckxyRu2.s:1340   .debug_str:0000000000000144 .LASF11
     /tmp/cckxyRu2.s:1410   .debug_str:0000000000000424 .LASF12
     /tmp/cckxyRu2.s:1394   .debug_str:000000000000038d .LASF13
     /tmp/cckxyRu2.s:1356   .debug_str:00000000000001bb .LASF14
     /tmp/cckxyRu2.s:1328   .debug_str:00000000000000d1 .LASF15
     /tmp/cckxyRu2.s:1388   .debug_str:000000000000035b .LASF16
     /tmp/cckxyRu2.s:1398   .debug_str:00000000000003a7 .LASF36
     /tmp/cckxyRu2.s:1414   .debug_str:0000000000000448 .LASF56
     /tmp/cckxyRu2.s:1332   .debug_str:0000000000000102 .LASF17
     /tmp/cckxyRu2.s:1402   .debug_str:00000000000003bb .LASF19
     /tmp/cckxyRu2.s:1338   .debug_str:0000000000000139 .LASF43
     /tmp/cckxyRu2.s:1422   .debug_str:000000000000049b .LASF45
     /tmp/cckxyRu2.s:1380   .debug_str:000000000000031f .LASF18
     /tmp/cckxyRu2.s:1330   .debug_str:00000000000000e7 .LASF20
     /tmp/cckxyRu2.s:1326   .debug_str:00000000000000c3 .LASF21
     /tmp/cckxyRu2.s:1406   .debug_str:00000000000003f7 .LASF22
     /tmp/cckxyRu2.s:1320   .debug_str:00000000000000a5 .LASF57
     /tmp/cckxyRu2.s:1372   .debug_str:00000000000002f2 .LASF23
     /tmp/cckxyRu2.s:1412   .debug_str:0000000000000434 .LASF25
     /tmp/cckxyRu2.s:1378   .debug_str:0000000000000317 .LASF58
     /tmp/cckxyRu2.s:1400   .debug_str:00000000000003af .LASF24
     /tmp/cckxyRu2.s:1334   .debug_str:000000000000010b .LASF26
     /tmp/cckxyRu2.s:1376   .debug_str:0000000000000305 .LASF47
     /tmp/cckxyRu2.s:1368   .debug_str:00000000000002c3 .LASF38
     /tmp/cckxyRu2.s:1360   .debug_str:00000000000001d5 .LASF27
     /tmp/cckxyRu2.s:1322   .debug_str:00000000000000aa .LASF28
     /tmp/cckxyRu2.s:1392   .debug_str:0000000000000385 .LASF29
     /tmp/cckxyRu2.s:1354   .debug_str:00000000000001b2 .LASF30
     /tmp/cckxyRu2.s:1358   .debug_str:00000000000001c7 .LASF50
     /tmp/cckxyRu2.s:1404   .debug_str:00000000000003cb .LASF59
     /tmp/cckxyRu2.s:1302   .debug_str:0000000000000000 .LASF31
     /tmp/cckxyRu2.s:1420   .debug_str:000000000000047e .LASF33
     /tmp/cckxyRu2.s:1382   .debug_str:000000000000032b .LASF32
     /tmp/cckxyRu2.s:1416   .debug_str:0000000000000450 .LASF34
     /tmp/cckxyRu2.s:1408   .debug_str:000000000000041f .LASF35
     /tmp/cckxyRu2.s:1306   .debug_str:0000000000000021 .LASF37
     /tmp/cckxyRu2.s:1390   .debug_str:0000000000000371 .LASF39
GAS LISTING /tmp/cckxyRu2.s 			page 6


     /tmp/cckxyRu2.s:1348   .debug_str:0000000000000181 .LASF40
     /tmp/cckxyRu2.s:1370   .debug_str:00000000000002de .LASF41
     /tmp/cckxyRu2.s:1384   .debug_str:0000000000000334 .LASF42
     /tmp/cckxyRu2.s:1342   .debug_str:0000000000000153 .LASF44
     /tmp/cckxyRu2.s:1418   .debug_str:0000000000000467 .LASF46
     /tmp/cckxyRu2.s:1366   .debug_str:00000000000002b9 .LASF48
     /tmp/cckxyRu2.s:1396   .debug_str:000000000000039d .LASF49
     /tmp/cckxyRu2.s:1346   .debug_str:000000000000016b .LASF60
     /tmp/cckxyRu2.s:1312   .debug_str:0000000000000057 .LASF61
     /tmp/cckxyRu2.s:1314   .debug_str:0000000000000075 .LASF51
     /tmp/cckxyRu2.s:1362   .debug_str:00000000000001da .LASF52
     /tmp/cckxyRu2.s:47     .text:0000000000000030 .LFB12
     /tmp/cckxyRu2.s:90     .text:0000000000000078 .LFE12
     /tmp/cckxyRu2.s:10     .text:0000000000000000 .LFB11
     /tmp/cckxyRu2.s:41     .text:0000000000000030 .LFE11
     /tmp/cckxyRu2.s:111    .debug_info:0000000000000000 .Ldebug_info0

NO UNDEFINED SYMBOLS
