GAS LISTING /tmp/cckxyRu2.s 			page 1


   1              		.file	"kScheduler.cpp"
   2              		.option pic
   3              		.option norelax
   4              		.text
   5              	.Ltext0:
   6              		.align	2
   7              		.globl	_ZN10kScheduler3getEv
   9              	_ZN10kScheduler3getEv:
  10              	.LFB11:
  11              		.file 1 "src/kScheduler.cpp"
   1:src/kScheduler.cpp **** #include "../h/kScheduler.hpp"
   2:src/kScheduler.cpp **** 
   3:src/kScheduler.cpp **** kThread* kScheduler::headReady = nullptr;
   4:src/kScheduler.cpp **** kThread* kScheduler::tailReady = nullptr;
   5:src/kScheduler.cpp **** //ne zaboravi idle nit da ubacis na pocetku
   6:src/kScheduler.cpp **** kThread* kScheduler::get()
   7:src/kScheduler.cpp **** {
  12              		.loc 1 7 1
  13              		.cfi_startproc
  14 0000 130101FF 		addi	sp,sp,-16
  15              		.cfi_def_cfa_offset 16
  16 0004 23348100 		sd	s0,8(sp)
  17              		.cfi_offset 8, -8
  18 0008 13040101 		addi	s0,sp,16
  19              		.cfi_def_cfa 8, 0
   8:src/kScheduler.cpp **** 
   9:src/kScheduler.cpp ****     kThread* tmp = headReady;
  20              		.loc 1 9 5
  21              		.loc 1 9 14 is_stmt 0
  22 000c 17050000 		ld	a0,.LANCHOR0
  22      03350500 
  23              	.LVL0:
  10:src/kScheduler.cpp ****    if(headReady) headReady = headReady->nextReadyProccess;
  24              		.loc 1 10 4 is_stmt 1
  25 0014 63080500 		beqz	a0,.L1
  26              		.loc 1 10 18 discriminator 1
  27              		.loc 1 10 41 is_stmt 0 discriminator 1
  28 0018 83370500 		ld	a5,0(a0)
  29              		.loc 1 10 28 discriminator 1
  30 001c 17070000 		sd	a5,.LANCHOR0,a4
  30      2330F700 
  11:src/kScheduler.cpp ****     return tmp;
  31              		.loc 1 11 5 is_stmt 1 discriminator 1
  32              	.L1:
  12:src/kScheduler.cpp **** 
  13:src/kScheduler.cpp **** }
  33              		.loc 1 13 1 is_stmt 0
  34 0024 03348100 		ld	s0,8(sp)
  35              		.cfi_restore 8
  36              		.cfi_def_cfa 2, 16
  37 0028 13010101 		addi	sp,sp,16
  38              		.cfi_def_cfa_offset 0
  39 002c 67800000 		jr	ra
  40              		.cfi_endproc
  41              	.LFE11:
  43              		.align	2
  44              		.globl	_ZN10kScheduler3putEP7kThread
GAS LISTING /tmp/cckxyRu2.s 			page 2


  46              	_ZN10kScheduler3putEP7kThread:
  47              	.LFB12:
  14:src/kScheduler.cpp **** 
  15:src/kScheduler.cpp **** void kScheduler::put(kThread* thr)
  16:src/kScheduler.cpp **** {
  48              		.loc 1 16 1 is_stmt 1
  49              		.cfi_startproc
  50              	.LVL1:
  51 0030 130101FF 		addi	sp,sp,-16
  52              		.cfi_def_cfa_offset 16
  53 0034 23348100 		sd	s0,8(sp)
  54              		.cfi_offset 8, -8
  55 0038 13040101 		addi	s0,sp,16
  56              		.cfi_def_cfa 8, 0
  17:src/kScheduler.cpp **** 
  18:src/kScheduler.cpp ****     if(!headReady) headReady = thr;
  57              		.loc 1 18 5
  58              		.loc 1 18 8 is_stmt 0
  59 003c 97070000 		ld	a5,.LANCHOR0
  59      83B70700 
  60              		.loc 1 18 5
  61 0044 63840702 		beqz	a5,.L8
  62              	.L5:
  19:src/kScheduler.cpp **** 
  20:src/kScheduler.cpp ****     if(tailReady)
  63              		.loc 1 20 5 is_stmt 1
  64              		.loc 1 20 17 is_stmt 0
  65 0048 97070000 		ld	a5,.LANCHOR0+8
  65      83B70700 
  66              		.loc 1 20 5
  67 0050 63840700 		beqz	a5,.L6
  21:src/kScheduler.cpp ****     {
  22:src/kScheduler.cpp ****         tailReady->nextReadyProccess = thr;
  68              		.loc 1 22 9 is_stmt 1
  69              		.loc 1 22 38 is_stmt 0
  70 0054 23B0A700 		sd	a0,0(a5)
  71              	.L6:
  23:src/kScheduler.cpp ****     }
  24:src/kScheduler.cpp **** 
  25:src/kScheduler.cpp ****      tailReady = thr;
  72              		.loc 1 25 6 is_stmt 1
  73              		.loc 1 25 16 is_stmt 0
  74 0058 97070000 		sd	a0,.LANCHOR0+8,a5
  74      23B0A700 
  26:src/kScheduler.cpp **** 
  27:src/kScheduler.cpp **** }
  75              		.loc 1 27 1
  76 0060 03348100 		ld	s0,8(sp)
  77              		.cfi_remember_state
  78              		.cfi_restore 8
  79              		.cfi_def_cfa 2, 16
  80 0064 13010101 		addi	sp,sp,16
  81              		.cfi_def_cfa_offset 0
  82 0068 67800000 		jr	ra
  83              	.L8:
  84              		.cfi_restore_state
  18:src/kScheduler.cpp **** 
GAS LISTING /tmp/cckxyRu2.s 			page 3


  85              		.loc 1 18 20 is_stmt 1 discriminator 1
  18:src/kScheduler.cpp **** 
  86              		.loc 1 18 30 is_stmt 0 discriminator 1
  87 006c 97070000 		sd	a0,.LANCHOR0,a5
  87      23B0A700 
  88 0074 6FF05FFD 		j	.L5
  89              		.cfi_endproc
  90              	.LFE12:
  92              		.globl	_ZN10kScheduler9tailReadyE
  93              		.globl	_ZN10kScheduler9headReadyE
  94              		.bss
  95              		.align	3
  96              		.set	.LANCHOR0,. + 0
  99              	_ZN10kScheduler9headReadyE:
 100 0000 00000000 		.zero	8
 100      00000000 
 103              	_ZN10kScheduler9tailReadyE:
 104 0008 00000000 		.zero	8
 104      00000000 
 105              		.text
 106              	.Letext0:
 107              		.file 2 "src/../h/../h/../lib/hw.h"
 108              		.file 3 "src/../h/../h/kThread.hpp"
 109              		.file 4 "src/../h/kScheduler.hpp"
GAS LISTING /tmp/cckxyRu2.s 			page 4

