GAS LISTING /tmp/ccc7m0X3.s 			page 1


   1              		.file	"kThread.cpp"
   2              		.option pic
   3              		.option norelax
   4              		.text
   5              	.Ltext0:
   6              		.align	2
   7              		.globl	_ZN7kThread13threadWrapperEv
   9              	_ZN7kThread13threadWrapperEv:
  10              	.LFB33:
  11              		.file 1 "src/kThread.cpp"
   1:src/kThread.cpp **** #include "../h/kThread.hpp"
   2:src/kThread.cpp **** #include "../h/print.hpp"
   3:src/kThread.cpp **** #include "../h/riscv.hpp"
   4:src/kThread.cpp **** #include "../h/kScheduler.hpp"
   5:src/kThread.cpp **** kThread* kThread::running = nullptr;
   6:src/kThread.cpp **** 
   7:src/kThread.cpp **** kThread::kThread(Body body, void* arg, void* stack_space) :
   8:src/kThread.cpp **** body(body),
   9:src/kThread.cpp **** arg(arg),
  10:src/kThread.cpp **** //stack(body!= nullptr ?((uint64*)(uint64*)stack_space + 1024*8) : nullptr),
  11:src/kThread.cpp **** stack(body!= nullptr ? new uint64[4096]: nullptr),
  12:src/kThread.cpp **** context({body!=nullptr?(uint64)threadWrapper : 0,
  13:src/kThread.cpp **** 
  14:src/kThread.cpp ****                 //  stack_space != nullptr ? (uint64)&stack_space: 0 }),
  15:src/kThread.cpp ****          stack_space != nullptr ? (uint64) &stack[4095] : 0 }),
  16:src/kThread.cpp **** finished(false)
  17:src/kThread.cpp **** 
  18:src/kThread.cpp **** {
  19:src/kThread.cpp ****     if(body != nullptr) { kScheduler::put(this);}
  20:src/kThread.cpp **** }
  21:src/kThread.cpp **** kThread* kThread::createProcess(Body body, void* args, void* stack_space) {
  22:src/kThread.cpp **** 
  23:src/kThread.cpp ****     printString("\nKreirana nit\n");
  24:src/kThread.cpp ****     return new kThread(body,args, stack_space);
  25:src/kThread.cpp **** 
  26:src/kThread.cpp **** }
  27:src/kThread.cpp **** 
  28:src/kThread.cpp **** 
  29:src/kThread.cpp **** void kThread::yield()
  30:src/kThread.cpp **** {
  31:src/kThread.cpp ****     //registre push-ujem na stek u prekidnoj rutini
  32:src/kThread.cpp ****     //ako testiras bez sistemskog pzoiva a to radis ne ostavljas nista na stek
  33:src/kThread.cpp ****     Riscv::pushRegisters();
  34:src/kThread.cpp ****     kThread::dispatch();
  35:src/kThread.cpp ****     Riscv::popRegisters();
  36:src/kThread.cpp ****     //registre pop-ujem sa steka  u prekidnoj rutini
  37:src/kThread.cpp **** }
  38:src/kThread.cpp **** 
  39:src/kThread.cpp **** void kThread::dispatch()
  40:src/kThread.cpp **** {
  41:src/kThread.cpp **** 
  42:src/kThread.cpp ****     kThread *old = running;
  43:src/kThread.cpp ****     if (!old->isFinished()) { kScheduler::put(old); }
  44:src/kThread.cpp ****     running = kScheduler::get();
  45:src/kThread.cpp **** 
  46:src/kThread.cpp ****     kThread::contextSwitch(&old->context, &running->context);
  47:src/kThread.cpp **** }
GAS LISTING /tmp/ccc7m0X3.s 			page 2


  48:src/kThread.cpp **** 
  49:src/kThread.cpp **** 
  50:src/kThread.cpp **** void kThread::threadWrapper() {
  12              		.loc 1 50 31
  13              		.cfi_startproc
  14 0000 130101FF 		addi	sp,sp,-16
  15              		.cfi_def_cfa_offset 16
  16 0004 23341100 		sd	ra,8(sp)
  17 0008 23308100 		sd	s0,0(sp)
  18              		.cfi_offset 1, -8
  19              		.cfi_offset 8, -16
  20 000c 13040101 		addi	s0,sp,16
  21              		.cfi_def_cfa 8, 0
  51:src/kThread.cpp **** 
  52:src/kThread.cpp ****     //Riscv::popSppSpie();
  53:src/kThread.cpp ****   //  printInteger(100);
  54:src/kThread.cpp ****     running->body(running->arg);
  22              		.loc 1 54 5
  23              		.loc 1 54 14 is_stmt 0
  24 0010 97070000 		ld	a5,.LANCHOR0
  24      83B70700 
  25 0018 03B78700 		ld	a4,8(a5)
  26              		.loc 1 54 18
  27 001c 03B50701 		ld	a0,16(a5)
  28 0020 E7000700 		jalr	a4
  29              	.LVL0:
  55:src/kThread.cpp **** //    kthread_exit();
  56:src/kThread.cpp **** }
  30              		.loc 1 56 1
  31 0024 83308100 		ld	ra,8(sp)
  32              		.cfi_restore 1
  33 0028 03340100 		ld	s0,0(sp)
  34              		.cfi_restore 8
  35              		.cfi_def_cfa 2, 16
  36 002c 13010101 		addi	sp,sp,16
  37              		.cfi_def_cfa_offset 0
  38 0030 67800000 		jr	ra
  39              		.cfi_endproc
  40              	.LFE33:
  42              		.align	2
  43              		.globl	_ZN7kThreadC2EPFvPvES0_S0_
  45              	_ZN7kThreadC2EPFvPvES0_S0_:
  46              	.LFB28:
   7:src/kThread.cpp **** body(body),
  47              		.loc 1 7 1 is_stmt 1
  48              		.cfi_startproc
  49              	.LVL1:
  50 0034 130101FD 		addi	sp,sp,-48
  51              		.cfi_def_cfa_offset 48
  52 0038 23341102 		sd	ra,40(sp)
  53 003c 23308102 		sd	s0,32(sp)
  54 0040 233C9100 		sd	s1,24(sp)
  55 0044 23382101 		sd	s2,16(sp)
  56 0048 23343101 		sd	s3,8(sp)
  57              		.cfi_offset 1, -8
  58              		.cfi_offset 8, -16
  59              		.cfi_offset 9, -24
GAS LISTING /tmp/ccc7m0X3.s 			page 3


  60              		.cfi_offset 18, -32
  61              		.cfi_offset 19, -40
  62 004c 13040103 		addi	s0,sp,48
  63              		.cfi_def_cfa 8, 0
  64 0050 93040500 		mv	s1,a0
  65 0054 13890500 		mv	s2,a1
  66 0058 93890600 		mv	s3,a3
  67              	.LBB4:
  16:src/kThread.cpp **** 
  68              		.loc 1 16 15 is_stmt 0
  69 005c 2334B500 		sd	a1,8(a0)
  70 0060 2338C500 		sd	a2,16(a0)
  11:src/kThread.cpp **** context({body!=nullptr?(uint64)threadWrapper : 0,
  71              		.loc 1 11 22
  72 0064 63840506 		beqz	a1,.L8
  11:src/kThread.cpp **** context({body!=nullptr?(uint64)threadWrapper : 0,
  73              		.loc 1 11 39 discriminator 1
  74 0068 37850000 		li	a0,32768
  75              	.LVL2:
  76 006c 97000000 		call	_Znam@plt
  76      E7800000 
  77              	.LVL3:
  78              	.L4:
  16:src/kThread.cpp **** 
  79              		.loc 1 16 15
  80 0074 23BCA400 		sd	a0,24(s1)
  12:src/kThread.cpp **** 
  81              		.loc 1 12 23
  82 0078 630E0904 		beqz	s2,.L9
  12:src/kThread.cpp **** 
  83              		.loc 1 12 23 discriminator 1
  84 007c 97070000 		lla	a5,_ZN7kThread13threadWrapperEv
  84      93870700 
  85              	.L5:
  16:src/kThread.cpp **** 
  86              		.loc 1 16 15
  87 0084 23B0F402 		sd	a5,32(s1)
  15:src/kThread.cpp **** finished(false)
  88              		.loc 1 15 33
  89 0088 638A0904 		beqz	s3,.L10
  15:src/kThread.cpp **** finished(false)
  90              		.loc 1 15 44 discriminator 1
  91 008c B7870000 		li	a5,32768
  92 0090 938787FF 		addi	a5,a5,-8
  93 0094 3305F500 		add	a0,a0,a5
  94              	.L6:
  16:src/kThread.cpp **** 
  95              		.loc 1 16 15
  96 0098 23B4A402 		sd	a0,40(s1)
  97 009c 23880402 		sb	zero,48(s1)
  19:src/kThread.cpp **** }
  98              		.loc 1 19 5 is_stmt 1
  99 00a0 63080900 		beqz	s2,.L3
  19:src/kThread.cpp **** }
 100              		.loc 1 19 27 discriminator 1
  19:src/kThread.cpp **** }
 101              		.loc 1 19 42 is_stmt 0 discriminator 1
GAS LISTING /tmp/ccc7m0X3.s 			page 4


 102 00a4 13850400 		mv	a0,s1
 103 00a8 97000000 		call	_ZN10kScheduler3putEP7kThread@plt
 103      E7800000 
 104              	.LVL4:
 105              	.L3:
 106              	.LBE4:
  20:src/kThread.cpp **** kThread* kThread::createProcess(Body body, void* args, void* stack_space) {
 107              		.loc 1 20 1
 108 00b0 83308102 		ld	ra,40(sp)
 109              		.cfi_remember_state
 110              		.cfi_restore 1
 111 00b4 03340102 		ld	s0,32(sp)
 112              		.cfi_restore 8
 113              		.cfi_def_cfa 2, 48
 114 00b8 83348101 		ld	s1,24(sp)
 115              		.cfi_restore 9
 116              	.LVL5:
 117 00bc 03390101 		ld	s2,16(sp)
 118              		.cfi_restore 18
 119              	.LVL6:
 120 00c0 83398100 		ld	s3,8(sp)
 121              		.cfi_restore 19
 122              	.LVL7:
 123 00c4 13010103 		addi	sp,sp,48
 124              		.cfi_def_cfa_offset 0
 125 00c8 67800000 		jr	ra
 126              	.LVL8:
 127              	.L8:
 128              		.cfi_restore_state
 129              	.LBB5:
  11:src/kThread.cpp **** context({body!=nullptr?(uint64)threadWrapper : 0,
 130              		.loc 1 11 22
 131 00cc 13050000 		li	a0,0
 132 00d0 6FF05FFA 		j	.L4
 133              	.LVL9:
 134              	.L9:
  12:src/kThread.cpp **** 
 135              		.loc 1 12 23
 136 00d4 93070000 		li	a5,0
 137 00d8 6FF0DFFA 		j	.L5
 138              	.L10:
  15:src/kThread.cpp **** finished(false)
 139              		.loc 1 15 33
 140 00dc 13050000 		li	a0,0
 141 00e0 6FF09FFB 		j	.L6
 142              	.LBE5:
 143              		.cfi_endproc
 144              	.LFE28:
 146              		.globl	_ZN7kThreadC1EPFvPvES0_S0_
 147              		.set	_ZN7kThreadC1EPFvPvES0_S0_,_ZN7kThreadC2EPFvPvES0_S0_
 148              		.section	.rodata.str1.8,"aMS",@progbits,1
 149              		.align	3
 150              	.LC0:
 151 0000 0A4B7265 		.string	"\nKreirana nit\n"
 151      6972616E 
 151      61206E69 
 151      740A00
GAS LISTING /tmp/ccc7m0X3.s 			page 5


 152              		.text
 153              		.align	2
 154              		.globl	_ZN7kThread13createProcessEPFvPvES0_S0_
 156              	_ZN7kThread13createProcessEPFvPvES0_S0_:
 157              	.LFB30:
  21:src/kThread.cpp **** 
 158              		.loc 1 21 75 is_stmt 1
 159              		.cfi_startproc
 160              		.cfi_personality 0x9b,DW.ref.__gxx_personality_v0
 161              		.cfi_lsda 0x1b,.LLSDA30
 162              	.LVL10:
 163 00e4 130101FD 		addi	sp,sp,-48
 164              		.cfi_def_cfa_offset 48
 165 00e8 23341102 		sd	ra,40(sp)
 166 00ec 23308102 		sd	s0,32(sp)
 167 00f0 233C9100 		sd	s1,24(sp)
 168 00f4 23382101 		sd	s2,16(sp)
 169 00f8 23343101 		sd	s3,8(sp)
 170 00fc 23304101 		sd	s4,0(sp)
 171              		.cfi_offset 1, -8
 172              		.cfi_offset 8, -16
 173              		.cfi_offset 9, -24
 174              		.cfi_offset 18, -32
 175              		.cfi_offset 19, -40
 176              		.cfi_offset 20, -48
 177 0100 13040103 		addi	s0,sp,48
 178              		.cfi_def_cfa 8, 0
 179 0104 13090500 		mv	s2,a0
 180 0108 93890500 		mv	s3,a1
 181 010c 130A0600 		mv	s4,a2
  23:src/kThread.cpp ****     return new kThread(body,args, stack_space);
 182              		.loc 1 23 5
  23:src/kThread.cpp ****     return new kThread(body,args, stack_space);
 183              		.loc 1 23 16 is_stmt 0
 184 0110 17050000 		lla	a0,.LC0
 184      13050500 
 185              	.LVL11:
 186              	.LEHB0:
 187 0118 97000000 		call	_Z11printStringPKc@plt
 187      E7800000 
 188              	.LVL12:
  24:src/kThread.cpp **** 
 189              		.loc 1 24 5 is_stmt 1
  24:src/kThread.cpp **** 
 190              		.loc 1 24 46 is_stmt 0
 191 0120 13058003 		li	a0,56
 192 0124 97000000 		call	_Znwm@plt
 192      E7800000 
 193              	.LVL13:
 194              	.LEHE0:
 195 012c 93040500 		mv	s1,a0
 196 0130 93060A00 		mv	a3,s4
 197 0134 13860900 		mv	a2,s3
 198 0138 93050900 		mv	a1,s2
 199              	.LEHB1:
 200 013c 97000000 		call	_ZN7kThreadC1EPFvPvES0_S0_
 200      E7800000 
GAS LISTING /tmp/ccc7m0X3.s 			page 6


 201              	.LVL14:
 202              	.LEHE1:
 203 0144 6F000002 		j	.L17
 204              	.L14:
 205 0148 13090500 		mv	s2,a0
 206              	.LVL15:
 207 014c 13850400 		mv	a0,s1
 208 0150 97000000 		call	_ZdlPv@plt
 208      E7800000 
 209              	.LVL16:
 210 0158 13050900 		mv	a0,s2
 211              	.LEHB2:
 212 015c 97000000 		call	_Unwind_Resume@plt
 212      E7800000 
 213              	.LVL17:
 214              	.LEHE2:
 215              	.L17:
  26:src/kThread.cpp **** 
 216              		.loc 1 26 1
 217 0164 13850400 		mv	a0,s1
 218 0168 83308102 		ld	ra,40(sp)
 219              		.cfi_restore 1
 220 016c 03340102 		ld	s0,32(sp)
 221              		.cfi_restore 8
 222              		.cfi_def_cfa 2, 48
 223 0170 83348101 		ld	s1,24(sp)
 224              		.cfi_restore 9
 225 0174 03390101 		ld	s2,16(sp)
 226              		.cfi_restore 18
 227              	.LVL18:
 228 0178 83398100 		ld	s3,8(sp)
 229              		.cfi_restore 19
 230              	.LVL19:
 231 017c 033A0100 		ld	s4,0(sp)
 232              		.cfi_restore 20
 233              	.LVL20:
 234 0180 13010103 		addi	sp,sp,48
 235              		.cfi_def_cfa_offset 0
 236 0184 67800000 		jr	ra
 237              		.cfi_endproc
 238              	.LFE30:
 239              		.globl	__gxx_personality_v0
 240              		.section	.gcc_except_table,"a",@progbits
 241              	.LLSDA30:
 242 0000 FF       		.byte	0xff
 243 0001 FF       		.byte	0xff
 244 0002 03       		.byte	0x3
 245 0003 27       		.byte	0x27
 246 0004 00000000 		.4byte	.LEHB0-.LFB30
 247 0008 00000000 		.4byte	.LEHE0-.LEHB0
 248 000c 00000000 		.4byte	0
 249 0010 00       		.byte	0
 250 0011 00000000 		.4byte	.LEHB1-.LFB30
 251 0015 00000000 		.4byte	.LEHE1-.LEHB1
 252 0019 00000000 		.4byte	.L14-.LFB30
 253 001d 00       		.byte	0
 254 001e 00000000 		.4byte	.LEHB2-.LFB30
GAS LISTING /tmp/ccc7m0X3.s 			page 7


 255 0022 00000000 		.4byte	.LEHE2-.LEHB2
 256 0026 00000000 		.4byte	0
 257 002a 00       		.byte	0
 258              		.text
 260              		.align	2
 261              		.globl	_ZN7kThread8dispatchEv
 263              	_ZN7kThread8dispatchEv:
 264              	.LFB32:
  40:src/kThread.cpp **** 
 265              		.loc 1 40 1 is_stmt 1
 266              		.cfi_startproc
 267 0188 130101FE 		addi	sp,sp,-32
 268              		.cfi_def_cfa_offset 32
 269 018c 233C1100 		sd	ra,24(sp)
 270 0190 23388100 		sd	s0,16(sp)
 271 0194 23349100 		sd	s1,8(sp)
 272              		.cfi_offset 1, -8
 273              		.cfi_offset 8, -16
 274              		.cfi_offset 9, -24
 275 0198 13040102 		addi	s0,sp,32
 276              		.cfi_def_cfa 8, 0
  42:src/kThread.cpp ****     if (!old->isFinished()) { kScheduler::put(old); }
 277              		.loc 1 42 5
  42:src/kThread.cpp ****     if (!old->isFinished()) { kScheduler::put(old); }
 278              		.loc 1 42 14 is_stmt 0
 279 019c 97040000 		ld	s1,.LANCHOR0
 279      83B40400 
 280              	.LVL21:
  43:src/kThread.cpp ****     running = kScheduler::get();
 281              		.loc 1 43 5 is_stmt 1
 282              	.LBB6:
 283              	.LBB7:
 284              		.file 2 "src/../h/kThread.hpp"
   1:src/../h/kThread.hpp **** #ifndef OS_PROJECT_BASE_KTHREAD_H
   2:src/../h/kThread.hpp **** #define OS_PROJECT_BASE_KTHREAD_H
   3:src/../h/kThread.hpp **** 
   4:src/../h/kThread.hpp **** #include "../lib/hw.h"
   5:src/../h/kThread.hpp **** 
   6:src/../h/kThread.hpp **** class kScheduler;
   7:src/../h/kThread.hpp **** 
   8:src/../h/kThread.hpp **** class kThread{
   9:src/../h/kThread.hpp **** 
  10:src/../h/kThread.hpp **** public:
  11:src/../h/kThread.hpp **** 
  12:src/../h/kThread.hpp ****     ~kThread() { delete[] stack; }
  13:src/../h/kThread.hpp ****     inline bool isFinished() const { return finished; }
 285              		.loc 2 13 38
 286              		.loc 2 13 45 is_stmt 0
 287 01a4 83C70403 		lbu	a5,48(s1)
 288              	.LVL22:
 289              	.LBE7:
 290              	.LBE6:
  43:src/kThread.cpp ****     running = kScheduler::get();
 291              		.loc 1 43 5
 292 01a8 638C0702 		beqz	a5,.L21
 293              	.L19:
  44:src/kThread.cpp **** 
GAS LISTING /tmp/ccc7m0X3.s 			page 8


 294              		.loc 1 44 5 is_stmt 1
  44:src/kThread.cpp **** 
 295              		.loc 1 44 30 is_stmt 0
 296 01ac 97000000 		call	_ZN10kScheduler3getEv@plt
 296      E7800000 
 297              	.LVL23:
  44:src/kThread.cpp **** 
 298              		.loc 1 44 13
 299 01b4 97070000 		sd	a0,.LANCHOR0,a5
 299      23B0A700 
  46:src/kThread.cpp **** }
 300              		.loc 1 46 5 is_stmt 1
  46:src/kThread.cpp **** }
 301              		.loc 1 46 27 is_stmt 0
 302 01bc 93050502 		addi	a1,a0,32
 303 01c0 13850402 		addi	a0,s1,32
 304 01c4 97000000 		call	_ZN7kThread13contextSwitchEPNS_7ContextES1_@plt
 304      E7800000 
 305              	.LVL24:
  47:src/kThread.cpp **** 
 306              		.loc 1 47 1
 307 01cc 83308101 		ld	ra,24(sp)
 308              		.cfi_remember_state
 309              		.cfi_restore 1
 310 01d0 03340101 		ld	s0,16(sp)
 311              		.cfi_restore 8
 312              		.cfi_def_cfa 2, 32
 313 01d4 83348100 		ld	s1,8(sp)
 314              		.cfi_restore 9
 315              	.LVL25:
 316 01d8 13010102 		addi	sp,sp,32
 317              		.cfi_def_cfa_offset 0
 318 01dc 67800000 		jr	ra
 319              	.LVL26:
 320              	.L21:
 321              		.cfi_restore_state
  43:src/kThread.cpp ****     running = kScheduler::get();
 322              		.loc 1 43 31 is_stmt 1 discriminator 1
  43:src/kThread.cpp ****     running = kScheduler::get();
 323              		.loc 1 43 46 is_stmt 0 discriminator 1
 324 01e0 13850400 		mv	a0,s1
 325 01e4 97000000 		call	_ZN10kScheduler3putEP7kThread@plt
 325      E7800000 
 326              	.LVL27:
 327 01ec 6FF01FFC 		j	.L19
 328              		.cfi_endproc
 329              	.LFE32:
 331              		.align	2
 332              		.globl	_ZN7kThread5yieldEv
 334              	_ZN7kThread5yieldEv:
 335              	.LFB31:
  30:src/kThread.cpp ****     //registre push-ujem na stek u prekidnoj rutini
 336              		.loc 1 30 1 is_stmt 1
 337              		.cfi_startproc
 338 01f0 130101FF 		addi	sp,sp,-16
 339              		.cfi_def_cfa_offset 16
 340 01f4 23341100 		sd	ra,8(sp)
GAS LISTING /tmp/ccc7m0X3.s 			page 9


 341 01f8 23308100 		sd	s0,0(sp)
 342              		.cfi_offset 1, -8
 343              		.cfi_offset 8, -16
 344 01fc 13040101 		addi	s0,sp,16
 345              		.cfi_def_cfa 8, 0
  33:src/kThread.cpp ****     kThread::dispatch();
 346              		.loc 1 33 5
  33:src/kThread.cpp ****     kThread::dispatch();
 347              		.loc 1 33 25 is_stmt 0
 348 0200 97000000 		call	_ZN5Riscv13pushRegistersEv@plt
 348      E7800000 
 349              	.LVL28:
  34:src/kThread.cpp ****     Riscv::popRegisters();
 350              		.loc 1 34 5 is_stmt 1
  34:src/kThread.cpp ****     Riscv::popRegisters();
 351              		.loc 1 34 22 is_stmt 0
 352 0208 97000000 		call	_ZN7kThread8dispatchEv
 352      E7800000 
 353              	.LVL29:
  35:src/kThread.cpp ****     //registre pop-ujem sa steka  u prekidnoj rutini
 354              		.loc 1 35 5 is_stmt 1
  35:src/kThread.cpp ****     //registre pop-ujem sa steka  u prekidnoj rutini
 355              		.loc 1 35 24 is_stmt 0
 356 0210 97000000 		call	_ZN5Riscv12popRegistersEv@plt
 356      E7800000 
 357              	.LVL30:
  37:src/kThread.cpp **** 
 358              		.loc 1 37 1
 359 0218 83308100 		ld	ra,8(sp)
 360              		.cfi_restore 1
 361 021c 03340100 		ld	s0,0(sp)
 362              		.cfi_restore 8
 363              		.cfi_def_cfa 2, 16
 364 0220 13010101 		addi	sp,sp,16
 365              		.cfi_def_cfa_offset 0
 366 0224 67800000 		jr	ra
 367              		.cfi_endproc
 368              	.LFE31:
 370              		.align	2
 371              		.globl	_ZN7kThread11kThreadExitEv
 373              	_ZN7kThread11kThreadExitEv:
 374              	.LFB34:
  57:src/kThread.cpp **** 
  58:src/kThread.cpp **** void kThread::kThreadExit() {
 375              		.loc 1 58 29 is_stmt 1
 376              		.cfi_startproc
 377 0228 130101FF 		addi	sp,sp,-16
 378              		.cfi_def_cfa_offset 16
 379 022c 23348100 		sd	s0,8(sp)
 380              		.cfi_offset 8, -8
 381 0230 13040101 		addi	s0,sp,16
 382              		.cfi_def_cfa 8, 0
  59:src/kThread.cpp **** 
  60:src/kThread.cpp **** }
 383              		.loc 1 60 1 is_stmt 0
 384 0234 03348100 		ld	s0,8(sp)
 385              		.cfi_restore 8
GAS LISTING /tmp/ccc7m0X3.s 			page 10


 386              		.cfi_def_cfa 2, 16
 387 0238 13010101 		addi	sp,sp,16
 388              		.cfi_def_cfa_offset 0
 389 023c 67800000 		jr	ra
 390              		.cfi_endproc
 391              	.LFE34:
 393              		.globl	_ZN7kThread7runningE
 394              		.bss
 395              		.align	3
 396              		.set	.LANCHOR0,. + 0
 399              	_ZN7kThread7runningE:
 400 0000 00000000 		.zero	8
 400      00000000 
 401              		.text
 402              	.Letext0:
 403              		.file 3 "src/../h/../lib/hw.h"
 404              		.file 4 "src/../h/riscv.hpp"
 405              		.file 5 "src/../h/kScheduler.hpp"
 406              		.file 6 "src/../h/print.hpp"
 2793              		.align	3
 2796              	DW.ref.__gxx_personality_v0:
 2797 0000 00000000 		.dword	__gxx_personality_v0
 2797      00000000 
 2798              		.ident	"GCC: (Ubuntu 9.4.0-1ubuntu1~20.04) 9.4.0"
 2799              		.section	.note.GNU-stack,"",@progbits
GAS LISTING /tmp/ccc7m0X3.s 			page 11


DEFINED SYMBOLS
                            *ABS*:0000000000000000 kThread.cpp
     /tmp/ccc7m0X3.s:9      .text:0000000000000000 _ZN7kThread13threadWrapperEv
     /tmp/ccc7m0X3.s:13     .text:0000000000000000 .L0 
     /tmp/ccc7m0X3.s:14     .text:0000000000000000 .L0 
     /tmp/ccc7m0X3.s:15     .text:0000000000000004 .L0 
     /tmp/ccc7m0X3.s:18     .text:000000000000000c .L0 
     /tmp/ccc7m0X3.s:19     .text:000000000000000c .L0 
     /tmp/ccc7m0X3.s:21     .text:0000000000000010 .L0 
     /tmp/ccc7m0X3.s:23     .text:0000000000000010 .L0 
     /tmp/ccc7m0X3.s:24     .text:0000000000000010 .L0 
     /tmp/ccc7m0X3.s:27     .text:000000000000001c .L0 
     /tmp/ccc7m0X3.s:31     .text:0000000000000024 .L0 
     /tmp/ccc7m0X3.s:32     .text:0000000000000028 .L0 
     /tmp/ccc7m0X3.s:34     .text:000000000000002c .L0 
     /tmp/ccc7m0X3.s:35     .text:000000000000002c .L0 
     /tmp/ccc7m0X3.s:37     .text:0000000000000030 .L0 
     /tmp/ccc7m0X3.s:39     .text:0000000000000034 .L0 
     /tmp/ccc7m0X3.s:45     .text:0000000000000034 _ZN7kThreadC2EPFvPvES0_S0_
     /tmp/ccc7m0X3.s:48     .text:0000000000000034 .L0 
     /tmp/ccc7m0X3.s:50     .text:0000000000000034 .L0 
     /tmp/ccc7m0X3.s:51     .text:0000000000000038 .L0 
     /tmp/ccc7m0X3.s:57     .text:000000000000004c .L0 
     /tmp/ccc7m0X3.s:58     .text:000000000000004c .L0 
     /tmp/ccc7m0X3.s:59     .text:000000000000004c .L0 
     /tmp/ccc7m0X3.s:60     .text:000000000000004c .L0 
     /tmp/ccc7m0X3.s:61     .text:000000000000004c .L0 
     /tmp/ccc7m0X3.s:63     .text:0000000000000050 .L0 
     /tmp/ccc7m0X3.s:69     .text:000000000000005c .L0 
     /tmp/ccc7m0X3.s:72     .text:0000000000000064 .L0 
     /tmp/ccc7m0X3.s:74     .text:0000000000000068 .L0 
     /tmp/ccc7m0X3.s:80     .text:0000000000000074 .L0 
     /tmp/ccc7m0X3.s:82     .text:0000000000000078 .L0 
     /tmp/ccc7m0X3.s:84     .text:000000000000007c .L0 
     /tmp/ccc7m0X3.s:87     .text:0000000000000084 .L0 
     /tmp/ccc7m0X3.s:89     .text:0000000000000088 .L0 
     /tmp/ccc7m0X3.s:91     .text:000000000000008c .L0 
     /tmp/ccc7m0X3.s:96     .text:0000000000000098 .L0 
     /tmp/ccc7m0X3.s:99     .text:00000000000000a0 .L0 
     /tmp/ccc7m0X3.s:101    .text:00000000000000a4 .L0 
     /tmp/ccc7m0X3.s:102    .text:00000000000000a4 .L0 
     /tmp/ccc7m0X3.s:108    .text:00000000000000b0 .L0 
     /tmp/ccc7m0X3.s:109    .text:00000000000000b4 .L0 
     /tmp/ccc7m0X3.s:110    .text:00000000000000b4 .L0 
     /tmp/ccc7m0X3.s:112    .text:00000000000000b8 .L0 
     /tmp/ccc7m0X3.s:113    .text:00000000000000b8 .L0 
     /tmp/ccc7m0X3.s:115    .text:00000000000000bc .L0 
     /tmp/ccc7m0X3.s:118    .text:00000000000000c0 .L0 
     /tmp/ccc7m0X3.s:121    .text:00000000000000c4 .L0 
     /tmp/ccc7m0X3.s:124    .text:00000000000000c8 .L0 
     /tmp/ccc7m0X3.s:128    .text:00000000000000cc .L0 
     /tmp/ccc7m0X3.s:131    .text:00000000000000cc .L0 
     /tmp/ccc7m0X3.s:136    .text:00000000000000d4 .L0 
     /tmp/ccc7m0X3.s:140    .text:00000000000000dc .L0 
     /tmp/ccc7m0X3.s:143    .text:00000000000000e4 .L0 
     /tmp/ccc7m0X3.s:45     .text:0000000000000034 _ZN7kThreadC1EPFvPvES0_S0_
     /tmp/ccc7m0X3.s:156    .text:00000000000000e4 _ZN7kThread13createProcessEPFvPvES0_S0_
GAS LISTING /tmp/ccc7m0X3.s 			page 12


     /tmp/ccc7m0X3.s:159    .text:00000000000000e4 .L0 
     /tmp/ccc7m0X3.s:2796   .data.rel.local.DW.ref.__gxx_personality_v0:0000000000000000 DW.ref.__gxx_personality_v0
     /tmp/ccc7m0X3.s:163    .text:00000000000000e4 .L0 
     /tmp/ccc7m0X3.s:164    .text:00000000000000e8 .L0 
     /tmp/ccc7m0X3.s:171    .text:0000000000000100 .L0 
     /tmp/ccc7m0X3.s:172    .text:0000000000000100 .L0 
     /tmp/ccc7m0X3.s:173    .text:0000000000000100 .L0 
     /tmp/ccc7m0X3.s:174    .text:0000000000000100 .L0 
     /tmp/ccc7m0X3.s:175    .text:0000000000000100 .L0 
     /tmp/ccc7m0X3.s:176    .text:0000000000000100 .L0 
     /tmp/ccc7m0X3.s:178    .text:0000000000000104 .L0 
     /tmp/ccc7m0X3.s:183    .text:0000000000000110 .L0 
     /tmp/ccc7m0X3.s:184    .text:0000000000000110 .L0 
     /tmp/ccc7m0X3.s:190    .text:0000000000000120 .L0 
     /tmp/ccc7m0X3.s:191    .text:0000000000000120 .L0 
     /tmp/ccc7m0X3.s:217    .text:0000000000000164 .L0 
     /tmp/ccc7m0X3.s:219    .text:000000000000016c .L0 
     /tmp/ccc7m0X3.s:221    .text:0000000000000170 .L0 
     /tmp/ccc7m0X3.s:222    .text:0000000000000170 .L0 
     /tmp/ccc7m0X3.s:224    .text:0000000000000174 .L0 
     /tmp/ccc7m0X3.s:226    .text:0000000000000178 .L0 
     /tmp/ccc7m0X3.s:229    .text:000000000000017c .L0 
     /tmp/ccc7m0X3.s:232    .text:0000000000000180 .L0 
     /tmp/ccc7m0X3.s:235    .text:0000000000000184 .L0 
     /tmp/ccc7m0X3.s:237    .text:0000000000000188 .L0 
     /tmp/ccc7m0X3.s:263    .text:0000000000000188 _ZN7kThread8dispatchEv
     /tmp/ccc7m0X3.s:266    .text:0000000000000188 .L0 
     /tmp/ccc7m0X3.s:267    .text:0000000000000188 .L0 
     /tmp/ccc7m0X3.s:268    .text:000000000000018c .L0 
     /tmp/ccc7m0X3.s:272    .text:0000000000000198 .L0 
     /tmp/ccc7m0X3.s:273    .text:0000000000000198 .L0 
     /tmp/ccc7m0X3.s:274    .text:0000000000000198 .L0 
     /tmp/ccc7m0X3.s:276    .text:000000000000019c .L0 
     /tmp/ccc7m0X3.s:278    .text:000000000000019c .L0 
     /tmp/ccc7m0X3.s:279    .text:000000000000019c .L0 
     /tmp/ccc7m0X3.s:285    .text:00000000000001a4 .L0 
     /tmp/ccc7m0X3.s:286    .text:00000000000001a4 .L0 
     /tmp/ccc7m0X3.s:287    .text:00000000000001a4 .L0 
     /tmp/ccc7m0X3.s:292    .text:00000000000001a8 .L0 
     /tmp/ccc7m0X3.s:295    .text:00000000000001ac .L0 
     /tmp/ccc7m0X3.s:296    .text:00000000000001ac .L0 
     /tmp/ccc7m0X3.s:299    .text:00000000000001b4 .L0 
     /tmp/ccc7m0X3.s:301    .text:00000000000001bc .L0 
     /tmp/ccc7m0X3.s:302    .text:00000000000001bc .L0 
     /tmp/ccc7m0X3.s:307    .text:00000000000001cc .L0 
     /tmp/ccc7m0X3.s:308    .text:00000000000001d0 .L0 
     /tmp/ccc7m0X3.s:309    .text:00000000000001d0 .L0 
     /tmp/ccc7m0X3.s:311    .text:00000000000001d4 .L0 
     /tmp/ccc7m0X3.s:312    .text:00000000000001d4 .L0 
     /tmp/ccc7m0X3.s:314    .text:00000000000001d8 .L0 
     /tmp/ccc7m0X3.s:317    .text:00000000000001dc .L0 
     /tmp/ccc7m0X3.s:321    .text:00000000000001e0 .L0 
     /tmp/ccc7m0X3.s:323    .text:00000000000001e0 .L0 
     /tmp/ccc7m0X3.s:324    .text:00000000000001e0 .L0 
     /tmp/ccc7m0X3.s:328    .text:00000000000001f0 .L0 
     /tmp/ccc7m0X3.s:334    .text:00000000000001f0 _ZN7kThread5yieldEv
     /tmp/ccc7m0X3.s:337    .text:00000000000001f0 .L0 
GAS LISTING /tmp/ccc7m0X3.s 			page 13


     /tmp/ccc7m0X3.s:338    .text:00000000000001f0 .L0 
     /tmp/ccc7m0X3.s:339    .text:00000000000001f4 .L0 
     /tmp/ccc7m0X3.s:342    .text:00000000000001fc .L0 
     /tmp/ccc7m0X3.s:343    .text:00000000000001fc .L0 
     /tmp/ccc7m0X3.s:345    .text:0000000000000200 .L0 
     /tmp/ccc7m0X3.s:347    .text:0000000000000200 .L0 
     /tmp/ccc7m0X3.s:348    .text:0000000000000200 .L0 
     /tmp/ccc7m0X3.s:351    .text:0000000000000208 .L0 
     /tmp/ccc7m0X3.s:352    .text:0000000000000208 .L0 
     /tmp/ccc7m0X3.s:355    .text:0000000000000210 .L0 
     /tmp/ccc7m0X3.s:356    .text:0000000000000210 .L0 
     /tmp/ccc7m0X3.s:359    .text:0000000000000218 .L0 
     /tmp/ccc7m0X3.s:360    .text:000000000000021c .L0 
     /tmp/ccc7m0X3.s:362    .text:0000000000000220 .L0 
     /tmp/ccc7m0X3.s:363    .text:0000000000000220 .L0 
     /tmp/ccc7m0X3.s:365    .text:0000000000000224 .L0 
     /tmp/ccc7m0X3.s:367    .text:0000000000000228 .L0 
     /tmp/ccc7m0X3.s:373    .text:0000000000000228 _ZN7kThread11kThreadExitEv
     /tmp/ccc7m0X3.s:376    .text:0000000000000228 .L0 
     /tmp/ccc7m0X3.s:377    .text:0000000000000228 .L0 
     /tmp/ccc7m0X3.s:378    .text:000000000000022c .L0 
     /tmp/ccc7m0X3.s:380    .text:0000000000000230 .L0 
     /tmp/ccc7m0X3.s:382    .text:0000000000000234 .L0 
     /tmp/ccc7m0X3.s:384    .text:0000000000000234 .L0 
     /tmp/ccc7m0X3.s:385    .text:0000000000000238 .L0 
     /tmp/ccc7m0X3.s:386    .text:0000000000000238 .L0 
     /tmp/ccc7m0X3.s:388    .text:000000000000023c .L0 
     /tmp/ccc7m0X3.s:390    .text:0000000000000240 .L0 
     /tmp/ccc7m0X3.s:399    .bss:0000000000000000 _ZN7kThread7runningE
     /tmp/ccc7m0X3.s:396    .bss:0000000000000000 .LANCHOR0
     /tmp/ccc7m0X3.s:407    .text:0000000000000240 .L0 
     /tmp/ccc7m0X3.s:24     .text:0000000000000010 .L0 
     /tmp/ccc7m0X3.s:84     .text:000000000000007c .L0 
     /tmp/ccc7m0X3.s:150    .rodata.str1.8:0000000000000000 .LC0
     /tmp/ccc7m0X3.s:184    .text:0000000000000110 .L0 
     /tmp/ccc7m0X3.s:279    .text:000000000000019c .L0 
     /tmp/ccc7m0X3.s:299    .text:00000000000001b4 .L0 
     /tmp/ccc7m0X3.s:127    .text:00000000000000cc .L8
     /tmp/ccc7m0X3.s:134    .text:00000000000000d4 .L9
     /tmp/ccc7m0X3.s:138    .text:00000000000000dc .L10
     /tmp/ccc7m0X3.s:105    .text:00000000000000b0 .L3
     /tmp/ccc7m0X3.s:78     .text:0000000000000074 .L4
     /tmp/ccc7m0X3.s:85     .text:0000000000000084 .L5
     /tmp/ccc7m0X3.s:94     .text:0000000000000098 .L6
     /tmp/ccc7m0X3.s:215    .text:0000000000000164 .L17
     /tmp/ccc7m0X3.s:320    .text:00000000000001e0 .L21
     /tmp/ccc7m0X3.s:293    .text:00000000000001ac .L19
     /tmp/ccc7m0X3.s:186    .text:0000000000000118 .LEHB0
     /tmp/ccc7m0X3.s:157    .text:00000000000000e4 .LFB30
     /tmp/ccc7m0X3.s:194    .text:000000000000012c .LEHE0
     /tmp/ccc7m0X3.s:199    .text:000000000000013c .LEHB1
     /tmp/ccc7m0X3.s:202    .text:0000000000000144 .LEHE1
     /tmp/ccc7m0X3.s:204    .text:0000000000000148 .L14
     /tmp/ccc7m0X3.s:211    .text:000000000000015c .LEHB2
     /tmp/ccc7m0X3.s:214    .text:0000000000000164 .LEHE2
     /tmp/ccc7m0X3.s:1387   .debug_abbrev:0000000000000000 .Ldebug_abbrev0
     /tmp/ccc7m0X3.s:2750   .debug_str:000000000000067a .LASF111
GAS LISTING /tmp/ccc7m0X3.s 			page 14


     /tmp/ccc7m0X3.s:2760   .debug_str:000000000000077f .LASF112
     /tmp/ccc7m0X3.s:2784   .debug_str:000000000000084a .LASF113
     /tmp/ccc7m0X3.s:5      .text:0000000000000000 .Ltext0
     /tmp/ccc7m0X3.s:402    .text:0000000000000240 .Letext0
     /tmp/ccc7m0X3.s:2540   .debug_line:0000000000000000 .Ldebug_line0
     /tmp/ccc7m0X3.s:2672   .debug_str:000000000000040b .LASF0
     /tmp/ccc7m0X3.s:2688   .debug_str:0000000000000467 .LASF1
     /tmp/ccc7m0X3.s:2658   .debug_str:0000000000000392 .LASF2
     /tmp/ccc7m0X3.s:2634   .debug_str:0000000000000303 .LASF4
     /tmp/ccc7m0X3.s:2728   .debug_str:00000000000005bf .LASF3
     /tmp/ccc7m0X3.s:2566   .debug_str:000000000000009d .LASF5
     /tmp/ccc7m0X3.s:2692   .debug_str:000000000000048f .LASF6
     /tmp/ccc7m0X3.s:2670   .debug_str:00000000000003f8 .LASF7
     /tmp/ccc7m0X3.s:2758   .debug_str:000000000000076f .LASF8
     /tmp/ccc7m0X3.s:2618   .debug_str:0000000000000269 .LASF9
     /tmp/ccc7m0X3.s:2704   .debug_str:0000000000000502 .LASF10
     /tmp/ccc7m0X3.s:2752   .debug_str:000000000000073e .LASF11
     /tmp/ccc7m0X3.s:2570   .debug_str:00000000000000b3 .LASF12
     /tmp/ccc7m0X3.s:2546   .debug_str:000000000000001c .LASF13
     /tmp/ccc7m0X3.s:2580   .debug_str:0000000000000118 .LASF14
     /tmp/ccc7m0X3.s:2720   .debug_str:000000000000057b .LASF15
     /tmp/ccc7m0X3.s:2586   .debug_str:0000000000000157 .LASF16
     /tmp/ccc7m0X3.s:2686   .debug_str:000000000000045f .LASF36
     /tmp/ccc7m0X3.s:2552   .debug_str:0000000000000041 .LASF114
     /tmp/ccc7m0X3.s:2560   .debug_str:000000000000007e .LASF17
     /tmp/ccc7m0X3.s:2694   .debug_str:00000000000004a2 .LASF19
     /tmp/ccc7m0X3.s:2696   .debug_str:00000000000004b2 .LASF92
     /tmp/ccc7m0X3.s:2756   .debug_str:0000000000000754 .LASF94
     /tmp/ccc7m0X3.s:2660   .debug_str:00000000000003a0 .LASF18
     /tmp/ccc7m0X3.s:2572   .debug_str:00000000000000c3 .LASF20
     /tmp/ccc7m0X3.s:2714   .debug_str:0000000000000558 .LASF21
     /tmp/ccc7m0X3.s:2772   .debug_str:00000000000007df .LASF22
     /tmp/ccc7m0X3.s:2712   .debug_str:0000000000000553 .LASF115
     /tmp/ccc7m0X3.s:2722   .debug_str:0000000000000591 .LASF23
     /tmp/ccc7m0X3.s:2544   .debug_str:0000000000000008 .LASF25
     /tmp/ccc7m0X3.s:2602   .debug_str:00000000000001f7 .LASF116
     /tmp/ccc7m0X3.s:2702   .debug_str:00000000000004f6 .LASF24
     /tmp/ccc7m0X3.s:2582   .debug_str:0000000000000124 .LASF26
     /tmp/ccc7m0X3.s:2706   .debug_str:0000000000000511 .LASF96
     /tmp/ccc7m0X3.s:2590   .debug_str:0000000000000181 .LASF47
     /tmp/ccc7m0X3.s:2640   .debug_str:000000000000031d .LASF27
     /tmp/ccc7m0X3.s:2626   .debug_str:00000000000002b6 .LASF28
     /tmp/ccc7m0X3.s:2644   .debug_str:000000000000032d .LASF29
     /tmp/ccc7m0X3.s:2638   .debug_str:0000000000000314 .LASF30
     /tmp/ccc7m0X3.s:2764   .debug_str:0000000000000795 .LASF99
     /tmp/ccc7m0X3.s:2668   .debug_str:00000000000003cc .LASF117
     /tmp/ccc7m0X3.s:2654   .debug_str:000000000000037d .LASF31
     /tmp/ccc7m0X3.s:2708   .debug_str:0000000000000523 .LASF33
     /tmp/ccc7m0X3.s:2676   .debug_str:000000000000041f .LASF32
     /tmp/ccc7m0X3.s:2740   .debug_str:000000000000062a .LASF34
     /tmp/ccc7m0X3.s:2608   .debug_str:0000000000000228 .LASF35
     /tmp/ccc7m0X3.s:2684   .debug_str:0000000000000459 .LASF37
     /tmp/ccc7m0X3.s:2716   .debug_str:0000000000000566 .LASF38
     /tmp/ccc7m0X3.s:2778   .debug_str:000000000000081f .LASF39
     /tmp/ccc7m0X3.s:2562   .debug_str:0000000000000087 .LASF40
     /tmp/ccc7m0X3.s:2600   .debug_str:00000000000001dc .LASF41
     /tmp/ccc7m0X3.s:2742   .debug_str:0000000000000641 .LASF42
GAS LISTING /tmp/ccc7m0X3.s 			page 15


     /tmp/ccc7m0X3.s:2628   .debug_str:00000000000002bc .LASF43
     /tmp/ccc7m0X3.s:2732   .debug_str:00000000000005d8 .LASF44
     /tmp/ccc7m0X3.s:2576   .debug_str:00000000000000f2 .LASF45
     /tmp/ccc7m0X3.s:2548   .debug_str:000000000000002c .LASF49
     /tmp/ccc7m0X3.s:2604   .debug_str:00000000000001ff .LASF51
     /tmp/ccc7m0X3.s:2596   .debug_str:00000000000001c4 .LASF46
     /tmp/ccc7m0X3.s:2594   .debug_str:00000000000001af .LASF48
     /tmp/ccc7m0X3.s:2730   .debug_str:00000000000005d1 .LASF50
     /tmp/ccc7m0X3.s:2710   .debug_str:0000000000000540 .LASF52
     /tmp/ccc7m0X3.s:2748   .debug_str:0000000000000673 .LASF53
     /tmp/ccc7m0X3.s:2744   .debug_str:000000000000064e .LASF54
     /tmp/ccc7m0X3.s:2612   .debug_str:0000000000000240 .LASF55
     /tmp/ccc7m0X3.s:2588   .debug_str:000000000000016d .LASF56
     /tmp/ccc7m0X3.s:2542   .debug_str:0000000000000000 .LASF57
     /tmp/ccc7m0X3.s:2622   .debug_str:000000000000028d .LASF58
     /tmp/ccc7m0X3.s:2564   .debug_str:0000000000000095 .LASF59
     /tmp/ccc7m0X3.s:2574   .debug_str:00000000000000de .LASF60
     /tmp/ccc7m0X3.s:2782   .debug_str:0000000000000842 .LASF61
     /tmp/ccc7m0X3.s:2606   .debug_str:0000000000000214 .LASF62
     /tmp/ccc7m0X3.s:2674   .debug_str:0000000000000418 .LASF63
     /tmp/ccc7m0X3.s:2774   .debug_str:0000000000000807 .LASF64
     /tmp/ccc7m0X3.s:2754   .debug_str:000000000000074d .LASF65
     /tmp/ccc7m0X3.s:2610   .debug_str:000000000000022d .LASF66
     /tmp/ccc7m0X3.s:2614   .debug_str:0000000000000248 .LASF67
     /tmp/ccc7m0X3.s:2746   .debug_str:0000000000000661 .LASF68
     /tmp/ccc7m0X3.s:2558   .debug_str:0000000000000078 .LASF69
     /tmp/ccc7m0X3.s:2788   .debug_str:000000000000087a .LASF70
     /tmp/ccc7m0X3.s:2780   .debug_str:0000000000000837 .LASF71
     /tmp/ccc7m0X3.s:2726   .debug_str:00000000000005a7 .LASF72
     /tmp/ccc7m0X3.s:2642   .debug_str:0000000000000322 .LASF73
     /tmp/ccc7m0X3.s:2648   .debug_str:0000000000000349 .LASF74
     /tmp/ccc7m0X3.s:2578   .debug_str:000000000000010e .LASF75
     /tmp/ccc7m0X3.s:2652   .debug_str:0000000000000367 .LASF76
     /tmp/ccc7m0X3.s:2664   .debug_str:00000000000003b8 .LASF77
     /tmp/ccc7m0X3.s:2620   .debug_str:0000000000000277 .LASF78
     /tmp/ccc7m0X3.s:2678   .debug_str:0000000000000428 .LASF79
     /tmp/ccc7m0X3.s:2766   .debug_str:00000000000007a3 .LASF80
     /tmp/ccc7m0X3.s:2690   .debug_str:000000000000047a .LASF81
     /tmp/ccc7m0X3.s:2698   .debug_str:00000000000004bd .LASF82
     /tmp/ccc7m0X3.s:2738   .debug_str:0000000000000613 .LASF83
     /tmp/ccc7m0X3.s:2554   .debug_str:0000000000000049 .LASF84
     /tmp/ccc7m0X3.s:2598   .debug_str:00000000000001cd .LASF85
     /tmp/ccc7m0X3.s:2736   .debug_str:00000000000005f7 .LASF86
     /tmp/ccc7m0X3.s:2556   .debug_str:000000000000006d .LASF87
     /tmp/ccc7m0X3.s:2770   .debug_str:00000000000007cb .LASF88
     /tmp/ccc7m0X3.s:2662   .debug_str:00000000000003ac .LASF89
     /tmp/ccc7m0X3.s:2646   .debug_str:0000000000000335 .LASF90
     /tmp/ccc7m0X3.s:2630   .debug_str:00000000000002d6 .LASF91
     /tmp/ccc7m0X3.s:2666   .debug_str:00000000000003c2 .LASF93
     /tmp/ccc7m0X3.s:2700   .debug_str:00000000000004df .LASF95
     /tmp/ccc7m0X3.s:2636   .debug_str:000000000000030a .LASF97
     /tmp/ccc7m0X3.s:2718   .debug_str:0000000000000571 .LASF98
     /tmp/ccc7m0X3.s:2632   .debug_str:00000000000002ed .LASF118
     /tmp/ccc7m0X3.s:2682   .debug_str:000000000000043b .LASF119
     /tmp/ccc7m0X3.s:2624   .debug_str:00000000000002a1 .LASF120
     /tmp/ccc7m0X3.s:374    .text:0000000000000228 .LFB34
     /tmp/ccc7m0X3.s:391    .text:0000000000000240 .LFE34
GAS LISTING /tmp/ccc7m0X3.s 			page 16


     /tmp/ccc7m0X3.s:10     .text:0000000000000000 .LFB33
     /tmp/ccc7m0X3.s:40     .text:0000000000000034 .LFE33
     /tmp/ccc7m0X3.s:264    .text:0000000000000188 .LFB32
     /tmp/ccc7m0X3.s:329    .text:00000000000001f0 .LFE32
     /tmp/ccc7m0X3.s:2345   .debug_loc:0000000000000000 .LLST7
     /tmp/ccc7m0X3.s:282    .text:00000000000001a4 .LBB6
     /tmp/ccc7m0X3.s:290    .text:00000000000001a8 .LBE6
     /tmp/ccc7m0X3.s:2356   .debug_loc:0000000000000036 .LLST8
     /tmp/ccc7m0X3.s:297    .text:00000000000001b4 .LVL23
     /tmp/ccc7m0X3.s:305    .text:00000000000001cc .LVL24
     /tmp/ccc7m0X3.s:326    .text:00000000000001ec .LVL27
     /tmp/ccc7m0X3.s:335    .text:00000000000001f0 .LFB31
     /tmp/ccc7m0X3.s:368    .text:0000000000000228 .LFE31
     /tmp/ccc7m0X3.s:349    .text:0000000000000208 .LVL28
     /tmp/ccc7m0X3.s:353    .text:0000000000000210 .LVL29
     /tmp/ccc7m0X3.s:357    .text:0000000000000218 .LVL30
     /tmp/ccc7m0X3.s:238    .text:0000000000000188 .LFE30
     /tmp/ccc7m0X3.s:2363   .debug_loc:0000000000000059 .LLST4
     /tmp/ccc7m0X3.s:2680   .debug_str:0000000000000436 .LASF100
     /tmp/ccc7m0X3.s:2392   .debug_loc:00000000000000ce .LLST5
     /tmp/ccc7m0X3.s:2786   .debug_str:000000000000086e .LASF101
     /tmp/ccc7m0X3.s:2410   .debug_loc:000000000000011a .LLST6
     /tmp/ccc7m0X3.s:188    .text:0000000000000120 .LVL12
     /tmp/ccc7m0X3.s:193    .text:000000000000012c .LVL13
     /tmp/ccc7m0X3.s:201    .text:0000000000000144 .LVL14
     /tmp/ccc7m0X3.s:209    .text:0000000000000158 .LVL16
     /tmp/ccc7m0X3.s:213    .text:0000000000000164 .LVL17
     /tmp/ccc7m0X3.s:2776   .debug_str:000000000000081a .LASF102
     /tmp/ccc7m0X3.s:2616   .debug_str:000000000000024e .LASF121
     /tmp/ccc7m0X3.s:46     .text:0000000000000034 .LFB28
     /tmp/ccc7m0X3.s:144    .text:00000000000000e4 .LFE28
     /tmp/ccc7m0X3.s:2428   .debug_loc:0000000000000166 .LLST0
     /tmp/ccc7m0X3.s:2450   .debug_loc:00000000000001c5 .LLST1
     /tmp/ccc7m0X3.s:2476   .debug_loc:0000000000000237 .LLST2
     /tmp/ccc7m0X3.s:2501   .debug_loc:0000000000000299 .LLST3
     /tmp/ccc7m0X3.s:77     .text:0000000000000074 .LVL3
     /tmp/ccc7m0X3.s:104    .text:00000000000000b0 .LVL4
     /tmp/ccc7m0X3.s:2592   .debug_str:000000000000019c .LASF122
     /tmp/ccc7m0X3.s:2550   .debug_str:0000000000000035 .LASF123
     /tmp/ccc7m0X3.s:2650   .debug_str:0000000000000361 .LASF103
     /tmp/ccc7m0X3.s:2768   .debug_str:00000000000007be .LASF105
     /tmp/ccc7m0X3.s:2656   .debug_str:000000000000038b .LASF104
     /tmp/ccc7m0X3.s:2734   .debug_str:00000000000005e7 .LASF106
     /tmp/ccc7m0X3.s:2568   .debug_str:00000000000000a4 .LASF107
     /tmp/ccc7m0X3.s:2584   .debug_str:000000000000013f .LASF108
     /tmp/ccc7m0X3.s:2762   .debug_str:000000000000078f .LASF109
     /tmp/ccc7m0X3.s:2724   .debug_str:0000000000000597 .LASF110
     /tmp/ccc7m0X3.s:280    .text:00000000000001a4 .LVL21
     /tmp/ccc7m0X3.s:315    .text:00000000000001d8 .LVL25
     /tmp/ccc7m0X3.s:319    .text:00000000000001e0 .LVL26
     /tmp/ccc7m0X3.s:288    .text:00000000000001a8 .LVL22
     /tmp/ccc7m0X3.s:162    .text:00000000000000e4 .LVL10
     /tmp/ccc7m0X3.s:185    .text:0000000000000118 .LVL11
     /tmp/ccc7m0X3.s:206    .text:000000000000014c .LVL15
     /tmp/ccc7m0X3.s:227    .text:0000000000000178 .LVL18
     /tmp/ccc7m0X3.s:230    .text:000000000000017c .LVL19
     /tmp/ccc7m0X3.s:233    .text:0000000000000180 .LVL20
GAS LISTING /tmp/ccc7m0X3.s 			page 17


     /tmp/ccc7m0X3.s:49     .text:0000000000000034 .LVL1
     /tmp/ccc7m0X3.s:75     .text:000000000000006c .LVL2
     /tmp/ccc7m0X3.s:116    .text:00000000000000bc .LVL5
     /tmp/ccc7m0X3.s:126    .text:00000000000000cc .LVL8
     /tmp/ccc7m0X3.s:119    .text:00000000000000c0 .LVL6
     /tmp/ccc7m0X3.s:133    .text:00000000000000d4 .LVL9
     /tmp/ccc7m0X3.s:122    .text:00000000000000c4 .LVL7
     /tmp/ccc7m0X3.s:408    .debug_info:0000000000000000 .Ldebug_info0
     /tmp/ccc7m0X3.s:241    .gcc_except_table:0000000000000000 .LLSDA30

UNDEFINED SYMBOLS
_Znam
_ZN10kScheduler3putEP7kThread
_Z11printStringPKc
_Znwm
_ZdlPv
_Unwind_Resume
__gxx_personality_v0
_ZN10kScheduler3getEv
_ZN7kThread13contextSwitchEPNS_7ContextES1_
_ZN5Riscv13pushRegistersEv
_ZN5Riscv12popRegistersEv
