GAS LISTING /tmp/ccwpBVHA.s 			page 1


   1              		.file	"kThread.cpp"
   2              		.option pic
   3              		.option norelax
   4              		.text
   5              	.Ltext0:
   6              		.align	2
   7              		.globl	_ZN7kThreadC2EPFvPvES0_S0_
   9              	_ZN7kThreadC2EPFvPvES0_S0_:
  10              	.LFB35:
  11              		.file 1 "src/kThread.cpp"
   1:src/kThread.cpp **** #include "../h/kThread.hpp"
   2:src/kThread.cpp **** #include "../h/print.hpp"
   3:src/kThread.cpp **** #include "../h/riscv.hpp"
   4:src/kThread.cpp **** #include "../h/kScheduler.hpp"
   5:src/kThread.cpp **** kThread* kThread::running = nullptr;
   6:src/kThread.cpp **** 
   7:src/kThread.cpp **** kThread::kThread(Body body, void* arg, void* stack_space) :
  12              		.loc 1 7 1
  13              		.cfi_startproc
  14              	.LVL0:
  15              	.LBB6:
   8:src/kThread.cpp ****         body(body),
   9:src/kThread.cpp ****         arg(arg),
  10:src/kThread.cpp ****         stack(body != nullptr ? (uint64*)stack_space - DEFAULT_STACK_SIZE + 1 : nullptr),
  11:src/kThread.cpp ****         context({body!=nullptr?(uint64)&threadWrapper : 0,stack != nullptr ? (uint64)stack : 0}),
  12:src/kThread.cpp ****         finished(false)
  16              		.loc 1 12 23 is_stmt 0
  17 0000 2334B502 		sd	a1,40(a0)
  18 0004 2338C502 		sd	a2,48(a0)
  10:src/kThread.cpp ****         context({body!=nullptr?(uint64)&threadWrapper : 0,stack != nullptr ? (uint64)stack : 0}),
  19              		.loc 1 10 31
  20 0008 638C0504 		beqz	a1,.L6
  10:src/kThread.cpp ****         context({body!=nullptr?(uint64)&threadWrapper : 0,stack != nullptr ? (uint64)stack : 0}),
  21              		.loc 1 10 31 discriminator 1
  22 000c B787FFFF 		li	a5,-32768
  23 0010 93878700 		addi	a5,a5,8
  24 0014 B386F600 		add	a3,a3,a5
  25              	.LVL1:
  26              	.L2:
  27              		.loc 1 12 23
  28 0018 233CD502 		sd	a3,56(a0)
  11:src/kThread.cpp ****         finished(false)
  29              		.loc 1 11 31
  30 001c 63860504 		beqz	a1,.L7
  11:src/kThread.cpp ****         finished(false)
  31              		.loc 1 11 31 discriminator 1
  32 0020 97070000 		lla	a5,_ZN7kThread13threadWrapperEv
  32      93870700 
  33              	.L3:
  34              		.loc 1 12 23 discriminator 4
  35 0028 2330F504 		sd	a5,64(a0)
  36 002c 2334D504 		sd	a3,72(a0)
  37 0030 23080504 		sb	zero,80(a0)
  13:src/kThread.cpp ****     {
  14:src/kThread.cpp ****         if(body != nullptr) { kScheduler::putReady(this);}
  38              		.loc 1 14 9 is_stmt 1 discriminator 4
  39 0034 638E0502 		beqz	a1,.L10
GAS LISTING /tmp/ccwpBVHA.s 			page 2


  40              	.LBE6:
   7:src/kThread.cpp ****         body(body),
  41              		.loc 1 7 1 is_stmt 0 discriminator 1
  42 0038 130101FF 		addi	sp,sp,-16
  43              		.cfi_def_cfa_offset 16
  44 003c 23341100 		sd	ra,8(sp)
  45 0040 23308100 		sd	s0,0(sp)
  46              		.cfi_offset 1, -8
  47              		.cfi_offset 8, -16
  48 0044 13040101 		addi	s0,sp,16
  49              		.cfi_def_cfa 8, 0
  50              	.LBB7:
  51              		.loc 1 14 31 is_stmt 1 discriminator 1
  52              		.loc 1 14 51 is_stmt 0 discriminator 1
  53 0048 97000000 		call	_ZN10kScheduler8putReadyEP7kThread@plt
  53      E7800000 
  54              	.LVL2:
  55              	.LBE7:
  15:src/kThread.cpp ****     }
  56              		.loc 1 15 5 discriminator 1
  57 0050 83308100 		ld	ra,8(sp)
  58              		.cfi_restore 1
  59 0054 03340100 		ld	s0,0(sp)
  60              		.cfi_restore 8
  61              		.cfi_def_cfa 2, 16
  62 0058 13010101 		addi	sp,sp,16
  63              		.cfi_def_cfa_offset 0
  64 005c 67800000 		jr	ra
  65              	.LVL3:
  66              	.L6:
  67              	.LBB8:
  10:src/kThread.cpp ****         context({body!=nullptr?(uint64)&threadWrapper : 0,stack != nullptr ? (uint64)stack : 0}),
  68              		.loc 1 10 31
  69 0060 93060000 		li	a3,0
  70              	.LVL4:
  71 0064 6FF05FFB 		j	.L2
  72              	.L7:
  11:src/kThread.cpp ****         finished(false)
  73              		.loc 1 11 31
  74 0068 93070000 		li	a5,0
  75 006c 6FF0DFFB 		j	.L3
  76              	.L10:
  77 0070 67800000 		ret
  78              	.LBE8:
  79              		.cfi_endproc
  80              	.LFE35:
  82              		.globl	_ZN7kThreadC1EPFvPvES0_S0_
  83              		.set	_ZN7kThreadC1EPFvPvES0_S0_,_ZN7kThreadC2EPFvPvES0_S0_
  84              		.align	2
  85              		.globl	_ZN7kThread13createProcessEPFvPvES0_S0_
  87              	_ZN7kThread13createProcessEPFvPvES0_S0_:
  88              	.LFB37:
  16:src/kThread.cpp **** 
  17:src/kThread.cpp **** kThread* kThread::createProcess(Body body, void* args, void* stack_space) {
  89              		.loc 1 17 75 is_stmt 1
  90              		.cfi_startproc
  91              		.cfi_personality 0x9b,DW.ref.__gxx_personality_v0
GAS LISTING /tmp/ccwpBVHA.s 			page 3


  92              		.cfi_lsda 0x1b,.LLSDA37
  93              	.LVL5:
  94 0074 130101FD 		addi	sp,sp,-48
  95              		.cfi_def_cfa_offset 48
  96 0078 23341102 		sd	ra,40(sp)
  97 007c 23308102 		sd	s0,32(sp)
  98 0080 233C9100 		sd	s1,24(sp)
  99 0084 23382101 		sd	s2,16(sp)
 100 0088 23343101 		sd	s3,8(sp)
 101 008c 23304101 		sd	s4,0(sp)
 102              		.cfi_offset 1, -8
 103              		.cfi_offset 8, -16
 104              		.cfi_offset 9, -24
 105              		.cfi_offset 18, -32
 106              		.cfi_offset 19, -40
 107              		.cfi_offset 20, -48
 108 0090 13040103 		addi	s0,sp,48
 109              		.cfi_def_cfa 8, 0
 110 0094 13090500 		mv	s2,a0
 111 0098 93890500 		mv	s3,a1
 112 009c 130A0600 		mv	s4,a2
  18:src/kThread.cpp **** 
  19:src/kThread.cpp ****     return new kThread(body,args, stack_space);
 113              		.loc 1 19 5
 114              		.loc 1 19 46 is_stmt 0
 115 00a0 13058005 		li	a0,88
 116              	.LVL6:
 117              	.LEHB0:
 118 00a4 97000000 		call	_Znwm@plt
 118      E7800000 
 119              	.LVL7:
 120              	.LEHE0:
 121 00ac 93040500 		mv	s1,a0
 122 00b0 93060A00 		mv	a3,s4
 123 00b4 13860900 		mv	a2,s3
 124 00b8 93050900 		mv	a1,s2
 125              	.LEHB1:
 126 00bc 97000000 		call	_ZN7kThreadC1EPFvPvES0_S0_
 126      E7800000 
 127              	.LVL8:
 128              	.LEHE1:
 129 00c4 6F000002 		j	.L18
 130              	.L15:
 131 00c8 13090500 		mv	s2,a0
 132              	.LVL9:
 133 00cc 13850400 		mv	a0,s1
 134 00d0 97000000 		call	_ZdlPv@plt
 134      E7800000 
 135              	.LVL10:
 136 00d8 13050900 		mv	a0,s2
 137              	.LEHB2:
 138 00dc 97000000 		call	_Unwind_Resume@plt
 138      E7800000 
 139              	.LVL11:
 140              	.LEHE2:
 141              	.L18:
  20:src/kThread.cpp **** 
GAS LISTING /tmp/ccwpBVHA.s 			page 4


  21:src/kThread.cpp **** }
 142              		.loc 1 21 1
 143 00e4 13850400 		mv	a0,s1
 144 00e8 83308102 		ld	ra,40(sp)
 145              		.cfi_restore 1
 146 00ec 03340102 		ld	s0,32(sp)
 147              		.cfi_restore 8
 148              		.cfi_def_cfa 2, 48
 149 00f0 83348101 		ld	s1,24(sp)
 150              		.cfi_restore 9
 151 00f4 03390101 		ld	s2,16(sp)
 152              		.cfi_restore 18
 153              	.LVL12:
 154 00f8 83398100 		ld	s3,8(sp)
 155              		.cfi_restore 19
 156              	.LVL13:
 157 00fc 033A0100 		ld	s4,0(sp)
 158              		.cfi_restore 20
 159              	.LVL14:
 160 0100 13010103 		addi	sp,sp,48
 161              		.cfi_def_cfa_offset 0
 162 0104 67800000 		jr	ra
 163              		.cfi_endproc
 164              	.LFE37:
 165              		.globl	__gxx_personality_v0
 166              		.section	.gcc_except_table,"a",@progbits
 167              	.LLSDA37:
 168 0000 FF       		.byte	0xff
 169 0001 FF       		.byte	0xff
 170 0002 03       		.byte	0x3
 171 0003 27       		.byte	0x27
 172 0004 00000000 		.4byte	.LEHB0-.LFB37
 173 0008 00000000 		.4byte	.LEHE0-.LEHB0
 174 000c 00000000 		.4byte	0
 175 0010 00       		.byte	0
 176 0011 00000000 		.4byte	.LEHB1-.LFB37
 177 0015 00000000 		.4byte	.LEHE1-.LEHB1
 178 0019 00000000 		.4byte	.L15-.LFB37
 179 001d 00       		.byte	0
 180 001e 00000000 		.4byte	.LEHB2-.LFB37
 181 0022 00000000 		.4byte	.LEHE2-.LEHB2
 182 0026 00000000 		.4byte	0
 183 002a 00       		.byte	0
 184              		.text
 186              		.align	2
 187              		.globl	_ZN7kThread8dispatchEv
 189              	_ZN7kThread8dispatchEv:
 190              	.LFB39:
  22:src/kThread.cpp **** 
  23:src/kThread.cpp **** void kThread::yield()
  24:src/kThread.cpp **** {
  25:src/kThread.cpp ****     Riscv::pushRegisters();
  26:src/kThread.cpp ****     kThread::dispatch();
  27:src/kThread.cpp ****     Riscv::popRegisters();
  28:src/kThread.cpp **** 
  29:src/kThread.cpp **** }
  30:src/kThread.cpp **** 
GAS LISTING /tmp/ccwpBVHA.s 			page 5


  31:src/kThread.cpp **** void kThread::dispatch()
  32:src/kThread.cpp **** {
 191              		.loc 1 32 1 is_stmt 1
 192              		.cfi_startproc
 193 0108 130101FE 		addi	sp,sp,-32
 194              		.cfi_def_cfa_offset 32
 195 010c 233C1100 		sd	ra,24(sp)
 196 0110 23388100 		sd	s0,16(sp)
 197 0114 23349100 		sd	s1,8(sp)
 198              		.cfi_offset 1, -8
 199              		.cfi_offset 8, -16
 200              		.cfi_offset 9, -24
 201 0118 13040102 		addi	s0,sp,32
 202              		.cfi_def_cfa 8, 0
  33:src/kThread.cpp ****     kThread *old = running;
 203              		.loc 1 33 5
 204              		.loc 1 33 14 is_stmt 0
 205 011c 97040000 		ld	s1,.LANCHOR0
 205      83B40400 
 206              	.LVL15:
  34:src/kThread.cpp ****     if (!old->isFinished()) {
 207              		.loc 1 34 5 is_stmt 1
 208              	.LBB9:
 209              	.LBB10:
 210              		.file 2 "src/../h/kThread.hpp"
   1:src/../h/kThread.hpp **** #ifndef OPERATIVNI_SISTEMI_KTHREAD_HPP
   2:src/../h/kThread.hpp **** #define OPERATIVNI_SISTEMI_KTHREAD_HPP
   3:src/../h/kThread.hpp **** 
   4:src/../h/kThread.hpp **** #include "../lib/hw.h"
   5:src/../h/kThread.hpp **** 
   6:src/../h/kThread.hpp **** class kScheduler;
   7:src/../h/kThread.hpp **** 
   8:src/../h/kThread.hpp **** class kThread{
   9:src/../h/kThread.hpp **** 
  10:src/../h/kThread.hpp **** public:
  11:src/../h/kThread.hpp **** 
  12:src/../h/kThread.hpp ****     ~kThread() { delete[] stack; }
  13:src/../h/kThread.hpp ****     inline bool isFinished() const { return finished; }
 211              		.loc 2 13 38
 212              		.loc 2 13 45 is_stmt 0
 213 0124 83C70405 		lbu	a5,80(s1)
 214              	.LVL16:
 215              	.LBE10:
 216              	.LBE9:
 217              		.loc 1 34 5
 218 0128 638C0702 		beqz	a5,.L22
 219              	.L20:
  35:src/kThread.cpp ****         kScheduler::putReady(old);
  36:src/kThread.cpp ****     }
  37:src/kThread.cpp ****         running = kScheduler::getReady();
 220              		.loc 1 37 9 is_stmt 1
 221              		.loc 1 37 39 is_stmt 0
 222 012c 97000000 		call	_ZN10kScheduler8getReadyEv@plt
 222      E7800000 
 223              	.LVL17:
 224              		.loc 1 37 17
 225 0134 97070000 		sd	a0,.LANCHOR0,a5
GAS LISTING /tmp/ccwpBVHA.s 			page 6


 225      23B0A700 
  38:src/kThread.cpp ****         kThread::contextSwitch(&old->context, &running->context);
 226              		.loc 1 38 9 is_stmt 1
 227              		.loc 1 38 31 is_stmt 0
 228 013c 93050504 		addi	a1,a0,64
 229 0140 13850404 		addi	a0,s1,64
 230 0144 97000000 		call	_ZN7kThread13contextSwitchEPNS_7ContextES1_@plt
 230      E7800000 
 231              	.LVL18:
  39:src/kThread.cpp **** }
 232              		.loc 1 39 1
 233 014c 83308101 		ld	ra,24(sp)
 234              		.cfi_remember_state
 235              		.cfi_restore 1
 236 0150 03340101 		ld	s0,16(sp)
 237              		.cfi_restore 8
 238              		.cfi_def_cfa 2, 32
 239 0154 83348100 		ld	s1,8(sp)
 240              		.cfi_restore 9
 241              	.LVL19:
 242 0158 13010102 		addi	sp,sp,32
 243              		.cfi_def_cfa_offset 0
 244 015c 67800000 		jr	ra
 245              	.LVL20:
 246              	.L22:
 247              		.cfi_restore_state
  35:src/kThread.cpp ****         kScheduler::putReady(old);
 248              		.loc 1 35 9 is_stmt 1
  35:src/kThread.cpp ****         kScheduler::putReady(old);
 249              		.loc 1 35 29 is_stmt 0
 250 0160 13850400 		mv	a0,s1
 251 0164 97000000 		call	_ZN10kScheduler8putReadyEP7kThread@plt
 251      E7800000 
 252              	.LVL21:
 253 016c 6FF01FFC 		j	.L20
 254              		.cfi_endproc
 255              	.LFE39:
 257              		.align	2
 258              		.globl	_ZN7kThread5yieldEv
 260              	_ZN7kThread5yieldEv:
 261              	.LFB38:
  24:src/kThread.cpp ****     Riscv::pushRegisters();
 262              		.loc 1 24 1 is_stmt 1
 263              		.cfi_startproc
 264 0170 130101FF 		addi	sp,sp,-16
 265              		.cfi_def_cfa_offset 16
 266 0174 23341100 		sd	ra,8(sp)
 267 0178 23308100 		sd	s0,0(sp)
 268              		.cfi_offset 1, -8
 269              		.cfi_offset 8, -16
 270 017c 13040101 		addi	s0,sp,16
 271              		.cfi_def_cfa 8, 0
  25:src/kThread.cpp ****     kThread::dispatch();
 272              		.loc 1 25 5
  25:src/kThread.cpp ****     kThread::dispatch();
 273              		.loc 1 25 25 is_stmt 0
 274 0180 97000000 		call	_ZN5Riscv13pushRegistersEv@plt
GAS LISTING /tmp/ccwpBVHA.s 			page 7


 274      E7800000 
 275              	.LVL22:
  26:src/kThread.cpp ****     Riscv::popRegisters();
 276              		.loc 1 26 5 is_stmt 1
  26:src/kThread.cpp ****     Riscv::popRegisters();
 277              		.loc 1 26 22 is_stmt 0
 278 0188 97000000 		call	_ZN7kThread8dispatchEv
 278      E7800000 
 279              	.LVL23:
  27:src/kThread.cpp **** 
 280              		.loc 1 27 5 is_stmt 1
  27:src/kThread.cpp **** 
 281              		.loc 1 27 24 is_stmt 0
 282 0190 97000000 		call	_ZN5Riscv12popRegistersEv@plt
 282      E7800000 
 283              	.LVL24:
  29:src/kThread.cpp **** 
 284              		.loc 1 29 1
 285 0198 83308100 		ld	ra,8(sp)
 286              		.cfi_restore 1
 287 019c 03340100 		ld	s0,0(sp)
 288              		.cfi_restore 8
 289              		.cfi_def_cfa 2, 16
 290 01a0 13010101 		addi	sp,sp,16
 291              		.cfi_def_cfa_offset 0
 292 01a4 67800000 		jr	ra
 293              		.cfi_endproc
 294              	.LFE38:
 296              		.align	2
 297              		.globl	_ZN7kThread11kThreadJoinEPS_
 299              	_ZN7kThread11kThreadJoinEPS_:
 300              	.LFB42:
  40:src/kThread.cpp **** 
  41:src/kThread.cpp **** 
  42:src/kThread.cpp **** void kThread::threadWrapper() {
  43:src/kThread.cpp **** 
  44:src/kThread.cpp ****     Riscv::popSppSpie();
  45:src/kThread.cpp ****     running->body(running->arg);
  46:src/kThread.cpp ****     running->kThreadExit();
  47:src/kThread.cpp **** }
  48:src/kThread.cpp **** 
  49:src/kThread.cpp **** void kThread::kThreadExit() {
  50:src/kThread.cpp **** 
  51:src/kThread.cpp ****     running->setFinished(true);
  52:src/kThread.cpp ****     //odblokiraj niti blokirane sa join
  53:src/kThread.cpp ****     running->unblockSuspended();
  54:src/kThread.cpp ****     yield();
  55:src/kThread.cpp ****     //treba negde i da je obrises, smisli kako
  56:src/kThread.cpp **** 
  57:src/kThread.cpp **** }
  58:src/kThread.cpp **** 
  59:src/kThread.cpp **** void  kThread::kThreadJoin(kThread* thr) {
 301              		.loc 1 59 42 is_stmt 1
 302              		.cfi_startproc
 303              	.LVL25:
 304 01a8 130101FD 		addi	sp,sp,-48
 305              		.cfi_def_cfa_offset 48
GAS LISTING /tmp/ccwpBVHA.s 			page 8


 306 01ac 23341102 		sd	ra,40(sp)
 307 01b0 23308102 		sd	s0,32(sp)
 308 01b4 233C9100 		sd	s1,24(sp)
 309 01b8 23382101 		sd	s2,16(sp)
 310 01bc 23343101 		sd	s3,8(sp)
 311              		.cfi_offset 1, -8
 312              		.cfi_offset 8, -16
 313              		.cfi_offset 9, -24
 314              		.cfi_offset 18, -32
 315              		.cfi_offset 19, -40
 316 01c0 13040103 		addi	s0,sp,48
 317              		.cfi_def_cfa 8, 0
 318 01c4 93040500 		mv	s1,a0
  60:src/kThread.cpp ****     //suspenduje se tekuca dok se nit sa zadatom ruckom ne zavrsi
  61:src/kThread.cpp ****     Riscv::pushRegisters();
 319              		.loc 1 61 5
 320              		.loc 1 61 25 is_stmt 0
 321 01c8 97000000 		call	_ZN5Riscv13pushRegistersEv@plt
 321      E7800000 
 322              	.LVL26:
  62:src/kThread.cpp ****     kThread* old = running;
 323              		.loc 1 62 5 is_stmt 1
 324              		.loc 1 62 14 is_stmt 0
 325 01d0 97090000 		lla	s3,.LANCHOR0
 325      93890900 
 326 01d8 03B90900 		ld	s2,0(s3)
 327              	.LVL27:
  63:src/kThread.cpp ****     kScheduler::putSuspended(thr, old);
 328              		.loc 1 63 5 is_stmt 1
 329              		.loc 1 63 29 is_stmt 0
 330 01dc 93050900 		mv	a1,s2
 331 01e0 13850400 		mv	a0,s1
 332 01e4 97000000 		call	_ZN10kScheduler12putSuspendedEP7kThreadS1_@plt
 332      E7800000 
 333              	.LVL28:
  64:src/kThread.cpp ****     running = kScheduler::getReady();
 334              		.loc 1 64 5 is_stmt 1
 335              		.loc 1 64 35 is_stmt 0
 336 01ec 97000000 		call	_ZN10kScheduler8getReadyEv@plt
 336      E7800000 
 337              	.LVL29:
 338              		.loc 1 64 13
 339 01f4 23B0A900 		sd	a0,0(s3)
  65:src/kThread.cpp ****     kThread::contextSwitch(&old->context, &running->context);
 340              		.loc 1 65 5 is_stmt 1
 341              		.loc 1 65 27 is_stmt 0
 342 01f8 93050504 		addi	a1,a0,64
 343 01fc 13050904 		addi	a0,s2,64
 344 0200 97000000 		call	_ZN7kThread13contextSwitchEPNS_7ContextES1_@plt
 344      E7800000 
 345              	.LVL30:
  66:src/kThread.cpp ****     Riscv::popRegisters();
 346              		.loc 1 66 5 is_stmt 1
 347              		.loc 1 66 24 is_stmt 0
 348 0208 97000000 		call	_ZN5Riscv12popRegistersEv@plt
 348      E7800000 
 349              	.LVL31:
GAS LISTING /tmp/ccwpBVHA.s 			page 9


  67:src/kThread.cpp **** }
 350              		.loc 1 67 1
 351 0210 83308102 		ld	ra,40(sp)
 352              		.cfi_restore 1
 353 0214 03340102 		ld	s0,32(sp)
 354              		.cfi_restore 8
 355              		.cfi_def_cfa 2, 48
 356 0218 83348101 		ld	s1,24(sp)
 357              		.cfi_restore 9
 358              	.LVL32:
 359 021c 03390101 		ld	s2,16(sp)
 360              		.cfi_restore 18
 361              	.LVL33:
 362 0220 83398100 		ld	s3,8(sp)
 363              		.cfi_restore 19
 364 0224 13010103 		addi	sp,sp,48
 365              		.cfi_def_cfa_offset 0
 366 0228 67800000 		jr	ra
 367              		.cfi_endproc
 368              	.LFE42:
 370              		.align	2
 371              		.globl	_ZN7kThread16unblockSuspendedEv
 373              	_ZN7kThread16unblockSuspendedEv:
 374              	.LFB43:
  68:src/kThread.cpp **** 
  69:src/kThread.cpp **** void kThread::unblockSuspended() {
 375              		.loc 1 69 34 is_stmt 1
 376              		.cfi_startproc
 377              	.LVL34:
  70:src/kThread.cpp **** 
  71:src/kThread.cpp ****     kThread* tmp;
 378              		.loc 1 71 5
  72:src/kThread.cpp ****     while(running->headSuspended)
 379              		.loc 1 72 5
 380              		.loc 1 72 20
 381 022c 17050000 		ld	a0,.LANCHOR0
 381      03350500 
 382              	.LVL35:
 383 0234 83378501 		ld	a5,24(a0)
 384 0238 63820704 		beqz	a5,.L35
  69:src/kThread.cpp **** 
 385              		.loc 1 69 34 is_stmt 0
 386 023c 130101FF 		addi	sp,sp,-16
 387              		.cfi_def_cfa_offset 16
 388 0240 23341100 		sd	ra,8(sp)
 389 0244 23308100 		sd	s0,0(sp)
 390              		.cfi_offset 1, -8
 391              		.cfi_offset 8, -16
 392 0248 13040101 		addi	s0,sp,16
 393              		.cfi_def_cfa 8, 0
 394              	.L32:
  73:src/kThread.cpp ****     {
  74:src/kThread.cpp ****         tmp = kScheduler::getSuspended(running);
 395              		.loc 1 74 9 is_stmt 1
 396              		.loc 1 74 39 is_stmt 0
 397 024c 97000000 		call	_ZN10kScheduler12getSuspendedEP7kThread@plt
 397      E7800000 
GAS LISTING /tmp/ccwpBVHA.s 			page 10


 398              	.LVL36:
  75:src/kThread.cpp ****         kScheduler::putReady(tmp);
 399              		.loc 1 75 9 is_stmt 1
 400              		.loc 1 75 29 is_stmt 0
 401 0254 97000000 		call	_ZN10kScheduler8putReadyEP7kThread@plt
 401      E7800000 
 402              	.LVL37:
  71:src/kThread.cpp ****     while(running->headSuspended)
 403              		.loc 1 71 5 is_stmt 1
  72:src/kThread.cpp ****     {
 404              		.loc 1 72 5
  72:src/kThread.cpp ****     {
 405              		.loc 1 72 20
 406 025c 17050000 		ld	a0,.LANCHOR0
 406      03350500 
 407 0264 83378501 		ld	a5,24(a0)
 408 0268 E39207FE 		bnez	a5,.L32
  76:src/kThread.cpp **** 
  77:src/kThread.cpp ****     }
  78:src/kThread.cpp **** }
 409              		.loc 1 78 1 is_stmt 0
 410 026c 83308100 		ld	ra,8(sp)
 411              		.cfi_restore 1
 412 0270 03340100 		ld	s0,0(sp)
 413              		.cfi_restore 8
 414              		.cfi_def_cfa 2, 16
 415 0274 13010101 		addi	sp,sp,16
 416              		.cfi_def_cfa_offset 0
 417 0278 67800000 		jr	ra
 418              	.L35:
 419 027c 67800000 		ret
 420              		.cfi_endproc
 421              	.LFE43:
 423              		.align	2
 424              		.globl	_ZN7kThread11kThreadExitEv
 426              	_ZN7kThread11kThreadExitEv:
 427              	.LFB41:
  49:src/kThread.cpp **** 
 428              		.loc 1 49 29 is_stmt 1
 429              		.cfi_startproc
 430 0280 130101FF 		addi	sp,sp,-16
 431              		.cfi_def_cfa_offset 16
 432 0284 23341100 		sd	ra,8(sp)
 433 0288 23308100 		sd	s0,0(sp)
 434              		.cfi_offset 1, -8
 435              		.cfi_offset 8, -16
 436 028c 13040101 		addi	s0,sp,16
 437              		.cfi_def_cfa 8, 0
  51:src/kThread.cpp ****     //odblokiraj niti blokirane sa join
 438              		.loc 1 51 5
  51:src/kThread.cpp ****     //odblokiraj niti blokirane sa join
 439              		.loc 1 51 25 is_stmt 0
 440 0290 17050000 		ld	a0,.LANCHOR0
 440      03350500 
 441              	.LVL38:
 442              	.LBB11:
 443              	.LBB12:
GAS LISTING /tmp/ccwpBVHA.s 			page 11


  14:src/../h/kThread.hpp ****     inline void setFinished(bool finished) { kThread::finished = finished; }
 444              		.loc 2 14 46 is_stmt 1
 445              		.loc 2 14 64 is_stmt 0
 446 0298 93071000 		li	a5,1
 447 029c 2308F504 		sb	a5,80(a0)
 448              	.LVL39:
 449              	.LBE12:
 450              	.LBE11:
  53:src/kThread.cpp ****     yield();
 451              		.loc 1 53 5 is_stmt 1
  53:src/kThread.cpp ****     yield();
 452              		.loc 1 53 30 is_stmt 0
 453 02a0 97000000 		call	_ZN7kThread16unblockSuspendedEv
 453      E7800000 
 454              	.LVL40:
  54:src/kThread.cpp ****     //treba negde i da je obrises, smisli kako
 455              		.loc 1 54 5 is_stmt 1
  54:src/kThread.cpp ****     //treba negde i da je obrises, smisli kako
 456              		.loc 1 54 10 is_stmt 0
 457 02a8 97000000 		call	_ZN7kThread5yieldEv
 457      E7800000 
 458              	.LVL41:
  57:src/kThread.cpp **** 
 459              		.loc 1 57 1
 460 02b0 83308100 		ld	ra,8(sp)
 461              		.cfi_restore 1
 462 02b4 03340100 		ld	s0,0(sp)
 463              		.cfi_restore 8
 464              		.cfi_def_cfa 2, 16
 465 02b8 13010101 		addi	sp,sp,16
 466              		.cfi_def_cfa_offset 0
 467 02bc 67800000 		jr	ra
 468              		.cfi_endproc
 469              	.LFE41:
 471              		.align	2
 472              		.globl	_ZN7kThread13threadWrapperEv
 474              	_ZN7kThread13threadWrapperEv:
 475              	.LFB40:
  42:src/kThread.cpp **** 
 476              		.loc 1 42 31 is_stmt 1
 477              		.cfi_startproc
 478 02c0 130101FF 		addi	sp,sp,-16
 479              		.cfi_def_cfa_offset 16
 480 02c4 23341100 		sd	ra,8(sp)
 481 02c8 23308100 		sd	s0,0(sp)
 482              		.cfi_offset 1, -8
 483              		.cfi_offset 8, -16
 484 02cc 13040101 		addi	s0,sp,16
 485              		.cfi_def_cfa 8, 0
  44:src/kThread.cpp ****     running->body(running->arg);
 486              		.loc 1 44 5
  44:src/kThread.cpp ****     running->body(running->arg);
 487              		.loc 1 44 22 is_stmt 0
 488 02d0 97000000 		call	_ZN5Riscv10popSppSpieEv@plt
 488      E7800000 
 489              	.LVL42:
  45:src/kThread.cpp ****     running->kThreadExit();
GAS LISTING /tmp/ccwpBVHA.s 			page 12


 490              		.loc 1 45 5 is_stmt 1
  45:src/kThread.cpp ****     running->kThreadExit();
 491              		.loc 1 45 14 is_stmt 0
 492 02d8 97070000 		ld	a5,.LANCHOR0
 492      83B70700 
 493 02e0 03B78702 		ld	a4,40(a5)
  45:src/kThread.cpp ****     running->kThreadExit();
 494              		.loc 1 45 18
 495 02e4 03B50703 		ld	a0,48(a5)
 496 02e8 E7000700 		jalr	a4
 497              	.LVL43:
  46:src/kThread.cpp **** }
 498              		.loc 1 46 5 is_stmt 1
  46:src/kThread.cpp **** }
 499              		.loc 1 46 25 is_stmt 0
 500 02ec 97000000 		call	_ZN7kThread11kThreadExitEv
 500      E7800000 
 501              	.LVL44:
  47:src/kThread.cpp **** 
 502              		.loc 1 47 1
 503 02f4 83308100 		ld	ra,8(sp)
 504              		.cfi_restore 1
 505 02f8 03340100 		ld	s0,0(sp)
 506              		.cfi_restore 8
 507              		.cfi_def_cfa 2, 16
 508 02fc 13010101 		addi	sp,sp,16
 509              		.cfi_def_cfa_offset 0
 510 0300 67800000 		jr	ra
 511              		.cfi_endproc
 512              	.LFE40:
 514              		.globl	_ZN7kThread7runningE
 515              		.bss
 516              		.align	3
 517              		.set	.LANCHOR0,. + 0
 520              	_ZN7kThread7runningE:
 521 0000 00000000 		.zero	8
 521      00000000 
 522              		.text
 523              	.Letext0:
 524              		.file 3 "src/../h/../lib/hw.h"
 525              		.file 4 "src/../h/riscv.hpp"
 526              		.file 5 "src/../h/../h/kSemaphore.hpp"
 527              		.file 6 "src/../h/kScheduler.hpp"
 3388              		.align	3
 3391              	DW.ref.__gxx_personality_v0:
 3392 0000 00000000 		.dword	__gxx_personality_v0
 3392      00000000 
 3393              		.ident	"GCC: (Ubuntu 9.4.0-1ubuntu1~20.04) 9.4.0"
 3394              		.section	.note.GNU-stack,"",@progbits
GAS LISTING /tmp/ccwpBVHA.s 			page 13

