GAS LISTING /tmp/cci2wR8u.s 			page 1


   1              		.file	"kThread.cpp"
   2              		.option pic
   3              		.option norelax
   4              		.text
   5              	.Ltext0:
   6              		.align	2
   7              		.globl	_ZN7kThreadC2EPFvPvES0_S0_
   9              	_ZN7kThreadC2EPFvPvES0_S0_:
  10              	.LFB35:
  11              		.file 1 "src/kThread.cpp"
   1:src/kThread.cpp **** #include "../h/kThread.hpp"
   2:src/kThread.cpp **** #include "../h/print.hpp"
   3:src/kThread.cpp **** #include "../h/riscv.hpp"
   4:src/kThread.cpp **** #include "../h/kScheduler.hpp"
   5:src/kThread.cpp **** kThread* kThread::running = nullptr;
   6:src/kThread.cpp **** 
   7:src/kThread.cpp **** kThread::kThread(Body body, void* arg, void* stack_space) :
  12              		.loc 1 7 1
  13              		.cfi_startproc
  14              	.LVL0:
  15              	.LBB6:
   8:src/kThread.cpp ****         body(body),
   9:src/kThread.cpp ****         arg(arg),
  10:src/kThread.cpp ****         stack(body != nullptr ? (uint64*)stack_space - DEFAULT_STACK_SIZE + 1 : nullptr),
  11:src/kThread.cpp ****         context({body!=nullptr?(uint64)&threadWrapper : 0,stack != nullptr ? (uint64)stack : 0}),
  12:src/kThread.cpp ****         finished(false)
  16              		.loc 1 12 23 is_stmt 0
  17 0000 2338B500 		sd	a1,16(a0)
  18 0004 233CC500 		sd	a2,24(a0)
  10:src/kThread.cpp ****         context({body!=nullptr?(uint64)&threadWrapper : 0,stack != nullptr ? (uint64)stack : 0}),
  19              		.loc 1 10 31
  20 0008 638C0504 		beqz	a1,.L6
  10:src/kThread.cpp ****         context({body!=nullptr?(uint64)&threadWrapper : 0,stack != nullptr ? (uint64)stack : 0}),
  21              		.loc 1 10 31 discriminator 1
  22 000c B787FFFF 		li	a5,-32768
  23 0010 93878700 		addi	a5,a5,8
  24 0014 B386F600 		add	a3,a3,a5
  25              	.LVL1:
  26              	.L2:
  27              		.loc 1 12 23
  28 0018 2330D502 		sd	a3,32(a0)
  11:src/kThread.cpp ****         finished(false)
  29              		.loc 1 11 31
  30 001c 63860504 		beqz	a1,.L7
  11:src/kThread.cpp ****         finished(false)
  31              		.loc 1 11 31 discriminator 1
  32 0020 97070000 		lla	a5,_ZN7kThread13threadWrapperEv
  32      93870700 
  33              	.L3:
  34              		.loc 1 12 23 discriminator 4
  35 0028 2334F502 		sd	a5,40(a0)
  36 002c 2338D502 		sd	a3,48(a0)
  37 0030 230C0502 		sb	zero,56(a0)
  13:src/kThread.cpp ****     {
  14:src/kThread.cpp ****         if(body != nullptr) { kScheduler::putReady(this);}
  38              		.loc 1 14 9 is_stmt 1 discriminator 4
  39 0034 638E0502 		beqz	a1,.L10
GAS LISTING /tmp/cci2wR8u.s 			page 2


  40              	.LBE6:
   7:src/kThread.cpp ****         body(body),
  41              		.loc 1 7 1 is_stmt 0 discriminator 1
  42 0038 130101FF 		addi	sp,sp,-16
  43              		.cfi_def_cfa_offset 16
  44 003c 23341100 		sd	ra,8(sp)
  45 0040 23308100 		sd	s0,0(sp)
  46              		.cfi_offset 1, -8
  47              		.cfi_offset 8, -16
  48 0044 13040101 		addi	s0,sp,16
  49              		.cfi_def_cfa 8, 0
  50              	.LBB7:
  51              		.loc 1 14 31 is_stmt 1 discriminator 1
  52              		.loc 1 14 51 is_stmt 0 discriminator 1
  53 0048 97000000 		call	_ZN10kScheduler8putReadyEP7kThread@plt
  53      E7800000 
  54              	.LVL2:
  55              	.LBE7:
  15:src/kThread.cpp ****     }
  56              		.loc 1 15 5 discriminator 1
  57 0050 83308100 		ld	ra,8(sp)
  58              		.cfi_restore 1
  59 0054 03340100 		ld	s0,0(sp)
  60              		.cfi_restore 8
  61              		.cfi_def_cfa 2, 16
  62 0058 13010101 		addi	sp,sp,16
  63              		.cfi_def_cfa_offset 0
  64 005c 67800000 		jr	ra
  65              	.LVL3:
  66              	.L6:
  67              	.LBB8:
  10:src/kThread.cpp ****         context({body!=nullptr?(uint64)&threadWrapper : 0,stack != nullptr ? (uint64)stack : 0}),
  68              		.loc 1 10 31
  69 0060 93060000 		li	a3,0
  70              	.LVL4:
  71 0064 6FF05FFB 		j	.L2
  72              	.L7:
  11:src/kThread.cpp ****         finished(false)
  73              		.loc 1 11 31
  74 0068 93070000 		li	a5,0
  75 006c 6FF0DFFB 		j	.L3
  76              	.L10:
  77 0070 67800000 		ret
  78              	.LBE8:
  79              		.cfi_endproc
  80              	.LFE35:
  82              		.globl	_ZN7kThreadC1EPFvPvES0_S0_
  83              		.set	_ZN7kThreadC1EPFvPvES0_S0_,_ZN7kThreadC2EPFvPvES0_S0_
  84              		.align	2
  85              		.globl	_ZN7kThread13createProcessEPFvPvES0_S0_
  87              	_ZN7kThread13createProcessEPFvPvES0_S0_:
  88              	.LFB37:
  16:src/kThread.cpp **** 
  17:src/kThread.cpp **** kThread* kThread::createProcess(Body body, void* args, void* stack_space) {
  89              		.loc 1 17 75 is_stmt 1
  90              		.cfi_startproc
  91              		.cfi_personality 0x9b,DW.ref.__gxx_personality_v0
GAS LISTING /tmp/cci2wR8u.s 			page 3


  92              		.cfi_lsda 0x1b,.LLSDA37
  93              	.LVL5:
  94 0074 130101FD 		addi	sp,sp,-48
  95              		.cfi_def_cfa_offset 48
  96 0078 23341102 		sd	ra,40(sp)
  97 007c 23308102 		sd	s0,32(sp)
  98 0080 233C9100 		sd	s1,24(sp)
  99 0084 23382101 		sd	s2,16(sp)
 100 0088 23343101 		sd	s3,8(sp)
 101 008c 23304101 		sd	s4,0(sp)
 102              		.cfi_offset 1, -8
 103              		.cfi_offset 8, -16
 104              		.cfi_offset 9, -24
 105              		.cfi_offset 18, -32
 106              		.cfi_offset 19, -40
 107              		.cfi_offset 20, -48
 108 0090 13040103 		addi	s0,sp,48
 109              		.cfi_def_cfa 8, 0
 110 0094 13090500 		mv	s2,a0
 111 0098 93890500 		mv	s3,a1
 112 009c 130A0600 		mv	s4,a2
  18:src/kThread.cpp **** 
  19:src/kThread.cpp ****     return new kThread(body,args, stack_space);
 113              		.loc 1 19 5
 114              		.loc 1 19 46 is_stmt 0
 115 00a0 13050004 		li	a0,64
 116              	.LVL6:
 117              	.LEHB0:
 118 00a4 97000000 		call	_Znwm@plt
 118      E7800000 
 119              	.LVL7:
 120              	.LEHE0:
 121 00ac 93040500 		mv	s1,a0
 122 00b0 93060A00 		mv	a3,s4
 123 00b4 13860900 		mv	a2,s3
 124 00b8 93050900 		mv	a1,s2
 125              	.LEHB1:
 126 00bc 97000000 		call	_ZN7kThreadC1EPFvPvES0_S0_
 126      E7800000 
 127              	.LVL8:
 128              	.LEHE1:
 129 00c4 6F000002 		j	.L18
 130              	.L15:
 131 00c8 13090500 		mv	s2,a0
 132              	.LVL9:
 133 00cc 13850400 		mv	a0,s1
 134 00d0 97000000 		call	_ZdlPv@plt
 134      E7800000 
 135              	.LVL10:
 136 00d8 13050900 		mv	a0,s2
 137              	.LEHB2:
 138 00dc 97000000 		call	_Unwind_Resume@plt
 138      E7800000 
 139              	.LVL11:
 140              	.LEHE2:
 141              	.L18:
  20:src/kThread.cpp **** 
GAS LISTING /tmp/cci2wR8u.s 			page 4


  21:src/kThread.cpp **** }
 142              		.loc 1 21 1
 143 00e4 13850400 		mv	a0,s1
 144 00e8 83308102 		ld	ra,40(sp)
 145              		.cfi_restore 1
 146 00ec 03340102 		ld	s0,32(sp)
 147              		.cfi_restore 8
 148              		.cfi_def_cfa 2, 48
 149 00f0 83348101 		ld	s1,24(sp)
 150              		.cfi_restore 9
 151 00f4 03390101 		ld	s2,16(sp)
 152              		.cfi_restore 18
 153              	.LVL12:
 154 00f8 83398100 		ld	s3,8(sp)
 155              		.cfi_restore 19
 156              	.LVL13:
 157 00fc 033A0100 		ld	s4,0(sp)
 158              		.cfi_restore 20
 159              	.LVL14:
 160 0100 13010103 		addi	sp,sp,48
 161              		.cfi_def_cfa_offset 0
 162 0104 67800000 		jr	ra
 163              		.cfi_endproc
 164              	.LFE37:
 165              		.globl	__gxx_personality_v0
 166              		.section	.gcc_except_table,"a",@progbits
 167              	.LLSDA37:
 168 0000 FF       		.byte	0xff
 169 0001 FF       		.byte	0xff
 170 0002 03       		.byte	0x3
 171 0003 27       		.byte	0x27
 172 0004 00000000 		.4byte	.LEHB0-.LFB37
 173 0008 00000000 		.4byte	.LEHE0-.LEHB0
 174 000c 00000000 		.4byte	0
 175 0010 00       		.byte	0
 176 0011 00000000 		.4byte	.LEHB1-.LFB37
 177 0015 00000000 		.4byte	.LEHE1-.LEHB1
 178 0019 00000000 		.4byte	.L15-.LFB37
 179 001d 00       		.byte	0
 180 001e 00000000 		.4byte	.LEHB2-.LFB37
 181 0022 00000000 		.4byte	.LEHE2-.LEHB2
 182 0026 00000000 		.4byte	0
 183 002a 00       		.byte	0
 184              		.text
 186              		.align	2
 187              		.globl	_ZN7kThread8dispatchEv
 189              	_ZN7kThread8dispatchEv:
 190              	.LFB39:
  22:src/kThread.cpp **** 
  23:src/kThread.cpp **** void kThread::yield()
  24:src/kThread.cpp **** {
  25:src/kThread.cpp ****     //registre push-ujem na stek u prekidnoj rutini
  26:src/kThread.cpp ****     //ako testiras bez sistemskog pzoiva a to radis ne ostavljas nista na stek
  27:src/kThread.cpp ****     Riscv::pushRegisters();
  28:src/kThread.cpp ****     kThread::dispatch();
  29:src/kThread.cpp ****     Riscv::popRegisters();
  30:src/kThread.cpp ****     //registre pop-ujem sa steka  u prekidnoj rutini
GAS LISTING /tmp/cci2wR8u.s 			page 5


  31:src/kThread.cpp **** }
  32:src/kThread.cpp **** 
  33:src/kThread.cpp **** void kThread::dispatch()
  34:src/kThread.cpp **** {
 191              		.loc 1 34 1 is_stmt 1
 192              		.cfi_startproc
 193 0108 130101FE 		addi	sp,sp,-32
 194              		.cfi_def_cfa_offset 32
 195 010c 233C1100 		sd	ra,24(sp)
 196 0110 23388100 		sd	s0,16(sp)
 197 0114 23349100 		sd	s1,8(sp)
 198              		.cfi_offset 1, -8
 199              		.cfi_offset 8, -16
 200              		.cfi_offset 9, -24
 201 0118 13040102 		addi	s0,sp,32
 202              		.cfi_def_cfa 8, 0
  35:src/kThread.cpp **** 
  36:src/kThread.cpp ****     kThread *old = running;
 203              		.loc 1 36 5
 204              		.loc 1 36 14 is_stmt 0
 205 011c 97040000 		ld	s1,.LANCHOR0
 205      83B40400 
 206              	.LVL15:
  37:src/kThread.cpp ****     if (!old->isFinished()) {
 207              		.loc 1 37 5 is_stmt 1
 208              	.LBB9:
 209              	.LBB10:
 210              		.file 2 "src/../h/kThread.hpp"
   1:src/../h/kThread.hpp **** #ifndef OPERATIVNI_SISTEMI_KTHREAD_HPP
   2:src/../h/kThread.hpp **** #define OPERATIVNI_SISTEMI_KTHREAD_HPP
   3:src/../h/kThread.hpp **** 
   4:src/../h/kThread.hpp **** #include "../lib/hw.h"
   5:src/../h/kThread.hpp **** 
   6:src/../h/kThread.hpp **** class kScheduler;
   7:src/../h/kThread.hpp **** 
   8:src/../h/kThread.hpp **** class kThread{
   9:src/../h/kThread.hpp **** 
  10:src/../h/kThread.hpp **** public:
  11:src/../h/kThread.hpp **** 
  12:src/../h/kThread.hpp ****     ~kThread() { delete[] stack; }
  13:src/../h/kThread.hpp ****     inline bool isFinished() const { return finished; }
 211              		.loc 2 13 38
 212              		.loc 2 13 45 is_stmt 0
 213 0124 83C78403 		lbu	a5,56(s1)
 214              	.LVL16:
 215              	.LBE10:
 216              	.LBE9:
 217              		.loc 1 37 5
 218 0128 638C0702 		beqz	a5,.L22
 219              	.L20:
  38:src/kThread.cpp ****         kScheduler::putReady(old);
  39:src/kThread.cpp ****     }
  40:src/kThread.cpp ****         running = kScheduler::getReady();
 220              		.loc 1 40 9 is_stmt 1
 221              		.loc 1 40 39 is_stmt 0
 222 012c 97000000 		call	_ZN10kScheduler8getReadyEv@plt
 222      E7800000 
GAS LISTING /tmp/cci2wR8u.s 			page 6


 223              	.LVL17:
 224              		.loc 1 40 17
 225 0134 97070000 		sd	a0,.LANCHOR0,a5
 225      23B0A700 
  41:src/kThread.cpp ****         kThread::contextSwitch(&old->context, &running->context);
 226              		.loc 1 41 9 is_stmt 1
 227              		.loc 1 41 31 is_stmt 0
 228 013c 93058502 		addi	a1,a0,40
 229 0140 13858402 		addi	a0,s1,40
 230 0144 97000000 		call	_ZN7kThread13contextSwitchEPNS_7ContextES1_@plt
 230      E7800000 
 231              	.LVL18:
  42:src/kThread.cpp **** 
  43:src/kThread.cpp **** }
 232              		.loc 1 43 1
 233 014c 83308101 		ld	ra,24(sp)
 234              		.cfi_remember_state
 235              		.cfi_restore 1
 236 0150 03340101 		ld	s0,16(sp)
 237              		.cfi_restore 8
 238              		.cfi_def_cfa 2, 32
 239 0154 83348100 		ld	s1,8(sp)
 240              		.cfi_restore 9
 241              	.LVL19:
 242 0158 13010102 		addi	sp,sp,32
 243              		.cfi_def_cfa_offset 0
 244 015c 67800000 		jr	ra
 245              	.LVL20:
 246              	.L22:
 247              		.cfi_restore_state
  38:src/kThread.cpp ****     }
 248              		.loc 1 38 9 is_stmt 1
  38:src/kThread.cpp ****     }
 249              		.loc 1 38 29 is_stmt 0
 250 0160 13850400 		mv	a0,s1
 251 0164 97000000 		call	_ZN10kScheduler8putReadyEP7kThread@plt
 251      E7800000 
 252              	.LVL21:
 253 016c 6FF01FFC 		j	.L20
 254              		.cfi_endproc
 255              	.LFE39:
 257              		.align	2
 258              		.globl	_ZN7kThread5yieldEv
 260              	_ZN7kThread5yieldEv:
 261              	.LFB38:
  24:src/kThread.cpp ****     //registre push-ujem na stek u prekidnoj rutini
 262              		.loc 1 24 1 is_stmt 1
 263              		.cfi_startproc
 264 0170 130101FF 		addi	sp,sp,-16
 265              		.cfi_def_cfa_offset 16
 266 0174 23341100 		sd	ra,8(sp)
 267 0178 23308100 		sd	s0,0(sp)
 268              		.cfi_offset 1, -8
 269              		.cfi_offset 8, -16
 270 017c 13040101 		addi	s0,sp,16
 271              		.cfi_def_cfa 8, 0
  27:src/kThread.cpp ****     kThread::dispatch();
GAS LISTING /tmp/cci2wR8u.s 			page 7


 272              		.loc 1 27 5
  27:src/kThread.cpp ****     kThread::dispatch();
 273              		.loc 1 27 25 is_stmt 0
 274 0180 97000000 		call	_ZN5Riscv13pushRegistersEv@plt
 274      E7800000 
 275              	.LVL22:
  28:src/kThread.cpp ****     Riscv::popRegisters();
 276              		.loc 1 28 5 is_stmt 1
  28:src/kThread.cpp ****     Riscv::popRegisters();
 277              		.loc 1 28 22 is_stmt 0
 278 0188 97000000 		call	_ZN7kThread8dispatchEv
 278      E7800000 
 279              	.LVL23:
  29:src/kThread.cpp ****     //registre pop-ujem sa steka  u prekidnoj rutini
 280              		.loc 1 29 5 is_stmt 1
  29:src/kThread.cpp ****     //registre pop-ujem sa steka  u prekidnoj rutini
 281              		.loc 1 29 24 is_stmt 0
 282 0190 97000000 		call	_ZN5Riscv12popRegistersEv@plt
 282      E7800000 
 283              	.LVL24:
  31:src/kThread.cpp **** 
 284              		.loc 1 31 1
 285 0198 83308100 		ld	ra,8(sp)
 286              		.cfi_restore 1
 287 019c 03340100 		ld	s0,0(sp)
 288              		.cfi_restore 8
 289              		.cfi_def_cfa 2, 16
 290 01a0 13010101 		addi	sp,sp,16
 291              		.cfi_def_cfa_offset 0
 292 01a4 67800000 		jr	ra
 293              		.cfi_endproc
 294              	.LFE38:
 296              		.align	2
 297              		.globl	_ZN7kThread11kThreadExitEv
 299              	_ZN7kThread11kThreadExitEv:
 300              	.LFB41:
  44:src/kThread.cpp **** 
  45:src/kThread.cpp **** 
  46:src/kThread.cpp **** void kThread::threadWrapper() {
  47:src/kThread.cpp **** 
  48:src/kThread.cpp ****     Riscv::popSppSpie();
  49:src/kThread.cpp ****     running->body(running->arg);
  50:src/kThread.cpp ****     running->kThreadExit();
  51:src/kThread.cpp **** }
  52:src/kThread.cpp **** 
  53:src/kThread.cpp **** void kThread::kThreadExit() {
 301              		.loc 1 53 29 is_stmt 1
 302              		.cfi_startproc
 303 01a8 130101FF 		addi	sp,sp,-16
 304              		.cfi_def_cfa_offset 16
 305 01ac 23341100 		sd	ra,8(sp)
 306 01b0 23308100 		sd	s0,0(sp)
 307              		.cfi_offset 1, -8
 308              		.cfi_offset 8, -16
 309 01b4 13040101 		addi	s0,sp,16
 310              		.cfi_def_cfa 8, 0
  54:src/kThread.cpp **** 
GAS LISTING /tmp/cci2wR8u.s 			page 8


  55:src/kThread.cpp ****     running->setFinished(true);
 311              		.loc 1 55 5
 312              	.LVL25:
 313              	.LBB11:
 314              	.LBB12:
  14:src/../h/kThread.hpp ****     inline void setFinished(bool finished) { kThread::finished = finished; }
 315              		.loc 2 14 46
 316              		.loc 2 14 64 is_stmt 0
 317 01b8 97070000 		ld	a5,.LANCHOR0
 317      83B70700 
 318 01c0 13071000 		li	a4,1
 319 01c4 238CE702 		sb	a4,56(a5)
 320              	.LVL26:
 321              	.LBE12:
 322              	.LBE11:
  56:src/kThread.cpp ****     yield();
 323              		.loc 1 56 5 is_stmt 1
 324              		.loc 1 56 10 is_stmt 0
 325 01c8 97000000 		call	_ZN7kThread5yieldEv
 325      E7800000 
 326              	.LVL27:
  57:src/kThread.cpp ****     //treba negde i da je obrises, smisli kako
  58:src/kThread.cpp **** }
 327              		.loc 1 58 1
 328 01d0 83308100 		ld	ra,8(sp)
 329              		.cfi_restore 1
 330 01d4 03340100 		ld	s0,0(sp)
 331              		.cfi_restore 8
 332              		.cfi_def_cfa 2, 16
 333 01d8 13010101 		addi	sp,sp,16
 334              		.cfi_def_cfa_offset 0
 335 01dc 67800000 		jr	ra
 336              		.cfi_endproc
 337              	.LFE41:
 339              		.align	2
 340              		.globl	_ZN7kThread13threadWrapperEv
 342              	_ZN7kThread13threadWrapperEv:
 343              	.LFB40:
  46:src/kThread.cpp **** 
 344              		.loc 1 46 31 is_stmt 1
 345              		.cfi_startproc
 346 01e0 130101FF 		addi	sp,sp,-16
 347              		.cfi_def_cfa_offset 16
 348 01e4 23341100 		sd	ra,8(sp)
 349 01e8 23308100 		sd	s0,0(sp)
 350              		.cfi_offset 1, -8
 351              		.cfi_offset 8, -16
 352 01ec 13040101 		addi	s0,sp,16
 353              		.cfi_def_cfa 8, 0
  48:src/kThread.cpp ****     running->body(running->arg);
 354              		.loc 1 48 5
  48:src/kThread.cpp ****     running->body(running->arg);
 355              		.loc 1 48 22 is_stmt 0
 356 01f0 97000000 		call	_ZN5Riscv10popSppSpieEv@plt
 356      E7800000 
 357              	.LVL28:
  49:src/kThread.cpp ****     running->kThreadExit();
GAS LISTING /tmp/cci2wR8u.s 			page 9


 358              		.loc 1 49 5 is_stmt 1
  49:src/kThread.cpp ****     running->kThreadExit();
 359              		.loc 1 49 14 is_stmt 0
 360 01f8 97070000 		ld	a5,.LANCHOR0
 360      83B70700 
 361 0200 03B70701 		ld	a4,16(a5)
  49:src/kThread.cpp ****     running->kThreadExit();
 362              		.loc 1 49 18
 363 0204 03B58701 		ld	a0,24(a5)
 364 0208 E7000700 		jalr	a4
 365              	.LVL29:
  50:src/kThread.cpp **** }
 366              		.loc 1 50 5 is_stmt 1
  50:src/kThread.cpp **** }
 367              		.loc 1 50 25 is_stmt 0
 368 020c 97000000 		call	_ZN7kThread11kThreadExitEv
 368      E7800000 
 369              	.LVL30:
  51:src/kThread.cpp **** 
 370              		.loc 1 51 1
 371 0214 83308100 		ld	ra,8(sp)
 372              		.cfi_restore 1
 373 0218 03340100 		ld	s0,0(sp)
 374              		.cfi_restore 8
 375              		.cfi_def_cfa 2, 16
 376 021c 13010101 		addi	sp,sp,16
 377              		.cfi_def_cfa_offset 0
 378 0220 67800000 		jr	ra
 379              		.cfi_endproc
 380              	.LFE40:
 382              		.globl	_ZN7kThread7runningE
 383              		.bss
 384              		.align	3
 385              		.set	.LANCHOR0,. + 0
 388              	_ZN7kThread7runningE:
 389 0000 00000000 		.zero	8
 389      00000000 
 390              		.text
 391              	.Letext0:
 392              		.file 3 "src/../h/../lib/hw.h"
 393              		.file 4 "src/../h/riscv.hpp"
 394              		.file 5 "src/../h/../h/kSemaphore.hpp"
 395              		.file 6 "src/../h/kScheduler.hpp"
 3051              		.align	3
 3054              	DW.ref.__gxx_personality_v0:
 3055 0000 00000000 		.dword	__gxx_personality_v0
 3055      00000000 
 3056              		.ident	"GCC: (Ubuntu 9.4.0-1ubuntu1~20.04) 9.4.0"
 3057              		.section	.note.GNU-stack,"",@progbits
GAS LISTING /tmp/cci2wR8u.s 			page 10


DEFINED SYMBOLS
                            *ABS*:0000000000000000 kThread.cpp
     /tmp/cci2wR8u.s:9      .text:0000000000000000 _ZN7kThreadC2EPFvPvES0_S0_
     /tmp/cci2wR8u.s:13     .text:0000000000000000 .L0 
     /tmp/cci2wR8u.s:16     .text:0000000000000000 .L0 
     /tmp/cci2wR8u.s:17     .text:0000000000000000 .L0 
     /tmp/cci2wR8u.s:20     .text:0000000000000008 .L0 
     /tmp/cci2wR8u.s:22     .text:000000000000000c .L0 
     /tmp/cci2wR8u.s:28     .text:0000000000000018 .L0 
     /tmp/cci2wR8u.s:30     .text:000000000000001c .L0 
     /tmp/cci2wR8u.s:342    .text:00000000000001e0 _ZN7kThread13threadWrapperEv
     /tmp/cci2wR8u.s:32     .text:0000000000000020 .L0 
     /tmp/cci2wR8u.s:35     .text:0000000000000028 .L0 
     /tmp/cci2wR8u.s:39     .text:0000000000000034 .L0 
     /tmp/cci2wR8u.s:42     .text:0000000000000038 .L0 
     /tmp/cci2wR8u.s:43     .text:000000000000003c .L0 
     /tmp/cci2wR8u.s:46     .text:0000000000000044 .L0 
     /tmp/cci2wR8u.s:47     .text:0000000000000044 .L0 
     /tmp/cci2wR8u.s:49     .text:0000000000000048 .L0 
     /tmp/cci2wR8u.s:52     .text:0000000000000048 .L0 
     /tmp/cci2wR8u.s:53     .text:0000000000000048 .L0 
     /tmp/cci2wR8u.s:57     .text:0000000000000050 .L0 
     /tmp/cci2wR8u.s:58     .text:0000000000000054 .L0 
     /tmp/cci2wR8u.s:60     .text:0000000000000058 .L0 
     /tmp/cci2wR8u.s:61     .text:0000000000000058 .L0 
     /tmp/cci2wR8u.s:63     .text:000000000000005c .L0 
     /tmp/cci2wR8u.s:69     .text:0000000000000060 .L0 
     /tmp/cci2wR8u.s:74     .text:0000000000000068 .L0 
     /tmp/cci2wR8u.s:79     .text:0000000000000074 .L0 
     /tmp/cci2wR8u.s:9      .text:0000000000000000 _ZN7kThreadC1EPFvPvES0_S0_
     /tmp/cci2wR8u.s:87     .text:0000000000000074 _ZN7kThread13createProcessEPFvPvES0_S0_
     /tmp/cci2wR8u.s:90     .text:0000000000000074 .L0 
     /tmp/cci2wR8u.s:3054   .data.rel.local.DW.ref.__gxx_personality_v0:0000000000000000 DW.ref.__gxx_personality_v0
     /tmp/cci2wR8u.s:94     .text:0000000000000074 .L0 
     /tmp/cci2wR8u.s:95     .text:0000000000000078 .L0 
     /tmp/cci2wR8u.s:102    .text:0000000000000090 .L0 
     /tmp/cci2wR8u.s:103    .text:0000000000000090 .L0 
     /tmp/cci2wR8u.s:104    .text:0000000000000090 .L0 
     /tmp/cci2wR8u.s:105    .text:0000000000000090 .L0 
     /tmp/cci2wR8u.s:106    .text:0000000000000090 .L0 
     /tmp/cci2wR8u.s:107    .text:0000000000000090 .L0 
     /tmp/cci2wR8u.s:109    .text:0000000000000094 .L0 
     /tmp/cci2wR8u.s:114    .text:00000000000000a0 .L0 
     /tmp/cci2wR8u.s:115    .text:00000000000000a0 .L0 
     /tmp/cci2wR8u.s:143    .text:00000000000000e4 .L0 
     /tmp/cci2wR8u.s:145    .text:00000000000000ec .L0 
     /tmp/cci2wR8u.s:147    .text:00000000000000f0 .L0 
     /tmp/cci2wR8u.s:148    .text:00000000000000f0 .L0 
     /tmp/cci2wR8u.s:150    .text:00000000000000f4 .L0 
     /tmp/cci2wR8u.s:152    .text:00000000000000f8 .L0 
     /tmp/cci2wR8u.s:155    .text:00000000000000fc .L0 
     /tmp/cci2wR8u.s:158    .text:0000000000000100 .L0 
     /tmp/cci2wR8u.s:161    .text:0000000000000104 .L0 
     /tmp/cci2wR8u.s:163    .text:0000000000000108 .L0 
     /tmp/cci2wR8u.s:189    .text:0000000000000108 _ZN7kThread8dispatchEv
     /tmp/cci2wR8u.s:192    .text:0000000000000108 .L0 
     /tmp/cci2wR8u.s:193    .text:0000000000000108 .L0 
GAS LISTING /tmp/cci2wR8u.s 			page 11


     /tmp/cci2wR8u.s:194    .text:000000000000010c .L0 
     /tmp/cci2wR8u.s:198    .text:0000000000000118 .L0 
     /tmp/cci2wR8u.s:199    .text:0000000000000118 .L0 
     /tmp/cci2wR8u.s:200    .text:0000000000000118 .L0 
     /tmp/cci2wR8u.s:202    .text:000000000000011c .L0 
     /tmp/cci2wR8u.s:204    .text:000000000000011c .L0 
     /tmp/cci2wR8u.s:205    .text:000000000000011c .L0 
     /tmp/cci2wR8u.s:211    .text:0000000000000124 .L0 
     /tmp/cci2wR8u.s:212    .text:0000000000000124 .L0 
     /tmp/cci2wR8u.s:213    .text:0000000000000124 .L0 
     /tmp/cci2wR8u.s:218    .text:0000000000000128 .L0 
     /tmp/cci2wR8u.s:221    .text:000000000000012c .L0 
     /tmp/cci2wR8u.s:222    .text:000000000000012c .L0 
     /tmp/cci2wR8u.s:225    .text:0000000000000134 .L0 
     /tmp/cci2wR8u.s:227    .text:000000000000013c .L0 
     /tmp/cci2wR8u.s:228    .text:000000000000013c .L0 
     /tmp/cci2wR8u.s:233    .text:000000000000014c .L0 
     /tmp/cci2wR8u.s:234    .text:0000000000000150 .L0 
     /tmp/cci2wR8u.s:235    .text:0000000000000150 .L0 
     /tmp/cci2wR8u.s:237    .text:0000000000000154 .L0 
     /tmp/cci2wR8u.s:238    .text:0000000000000154 .L0 
     /tmp/cci2wR8u.s:240    .text:0000000000000158 .L0 
     /tmp/cci2wR8u.s:243    .text:000000000000015c .L0 
     /tmp/cci2wR8u.s:247    .text:0000000000000160 .L0 
     /tmp/cci2wR8u.s:249    .text:0000000000000160 .L0 
     /tmp/cci2wR8u.s:250    .text:0000000000000160 .L0 
     /tmp/cci2wR8u.s:254    .text:0000000000000170 .L0 
     /tmp/cci2wR8u.s:260    .text:0000000000000170 _ZN7kThread5yieldEv
     /tmp/cci2wR8u.s:263    .text:0000000000000170 .L0 
     /tmp/cci2wR8u.s:264    .text:0000000000000170 .L0 
     /tmp/cci2wR8u.s:265    .text:0000000000000174 .L0 
     /tmp/cci2wR8u.s:268    .text:000000000000017c .L0 
     /tmp/cci2wR8u.s:269    .text:000000000000017c .L0 
     /tmp/cci2wR8u.s:271    .text:0000000000000180 .L0 
     /tmp/cci2wR8u.s:273    .text:0000000000000180 .L0 
     /tmp/cci2wR8u.s:274    .text:0000000000000180 .L0 
     /tmp/cci2wR8u.s:277    .text:0000000000000188 .L0 
     /tmp/cci2wR8u.s:278    .text:0000000000000188 .L0 
     /tmp/cci2wR8u.s:281    .text:0000000000000190 .L0 
     /tmp/cci2wR8u.s:282    .text:0000000000000190 .L0 
     /tmp/cci2wR8u.s:285    .text:0000000000000198 .L0 
     /tmp/cci2wR8u.s:286    .text:000000000000019c .L0 
     /tmp/cci2wR8u.s:288    .text:00000000000001a0 .L0 
     /tmp/cci2wR8u.s:289    .text:00000000000001a0 .L0 
     /tmp/cci2wR8u.s:291    .text:00000000000001a4 .L0 
     /tmp/cci2wR8u.s:293    .text:00000000000001a8 .L0 
     /tmp/cci2wR8u.s:299    .text:00000000000001a8 _ZN7kThread11kThreadExitEv
     /tmp/cci2wR8u.s:302    .text:00000000000001a8 .L0 
     /tmp/cci2wR8u.s:303    .text:00000000000001a8 .L0 
     /tmp/cci2wR8u.s:304    .text:00000000000001ac .L0 
     /tmp/cci2wR8u.s:307    .text:00000000000001b4 .L0 
     /tmp/cci2wR8u.s:308    .text:00000000000001b4 .L0 
     /tmp/cci2wR8u.s:310    .text:00000000000001b8 .L0 
     /tmp/cci2wR8u.s:315    .text:00000000000001b8 .L0 
     /tmp/cci2wR8u.s:316    .text:00000000000001b8 .L0 
     /tmp/cci2wR8u.s:317    .text:00000000000001b8 .L0 
     /tmp/cci2wR8u.s:324    .text:00000000000001c8 .L0 
GAS LISTING /tmp/cci2wR8u.s 			page 12


     /tmp/cci2wR8u.s:325    .text:00000000000001c8 .L0 
     /tmp/cci2wR8u.s:328    .text:00000000000001d0 .L0 
     /tmp/cci2wR8u.s:329    .text:00000000000001d4 .L0 
     /tmp/cci2wR8u.s:331    .text:00000000000001d8 .L0 
     /tmp/cci2wR8u.s:332    .text:00000000000001d8 .L0 
     /tmp/cci2wR8u.s:334    .text:00000000000001dc .L0 
     /tmp/cci2wR8u.s:336    .text:00000000000001e0 .L0 
     /tmp/cci2wR8u.s:345    .text:00000000000001e0 .L0 
     /tmp/cci2wR8u.s:346    .text:00000000000001e0 .L0 
     /tmp/cci2wR8u.s:347    .text:00000000000001e4 .L0 
     /tmp/cci2wR8u.s:350    .text:00000000000001ec .L0 
     /tmp/cci2wR8u.s:351    .text:00000000000001ec .L0 
     /tmp/cci2wR8u.s:353    .text:00000000000001f0 .L0 
     /tmp/cci2wR8u.s:355    .text:00000000000001f0 .L0 
     /tmp/cci2wR8u.s:356    .text:00000000000001f0 .L0 
     /tmp/cci2wR8u.s:359    .text:00000000000001f8 .L0 
     /tmp/cci2wR8u.s:360    .text:00000000000001f8 .L0 
     /tmp/cci2wR8u.s:363    .text:0000000000000204 .L0 
     /tmp/cci2wR8u.s:367    .text:000000000000020c .L0 
     /tmp/cci2wR8u.s:368    .text:000000000000020c .L0 
     /tmp/cci2wR8u.s:371    .text:0000000000000214 .L0 
     /tmp/cci2wR8u.s:372    .text:0000000000000218 .L0 
     /tmp/cci2wR8u.s:374    .text:000000000000021c .L0 
     /tmp/cci2wR8u.s:375    .text:000000000000021c .L0 
     /tmp/cci2wR8u.s:377    .text:0000000000000220 .L0 
     /tmp/cci2wR8u.s:379    .text:0000000000000224 .L0 
     /tmp/cci2wR8u.s:388    .bss:0000000000000000 _ZN7kThread7runningE
     /tmp/cci2wR8u.s:385    .bss:0000000000000000 .LANCHOR0
     /tmp/cci2wR8u.s:396    .text:0000000000000224 .L0 
     /tmp/cci2wR8u.s:32     .text:0000000000000020 .L0 
     /tmp/cci2wR8u.s:205    .text:000000000000011c .L0 
     /tmp/cci2wR8u.s:225    .text:0000000000000134 .L0 
     /tmp/cci2wR8u.s:317    .text:00000000000001b8 .L0 
     /tmp/cci2wR8u.s:360    .text:00000000000001f8 .L0 
     /tmp/cci2wR8u.s:66     .text:0000000000000060 .L6
     /tmp/cci2wR8u.s:72     .text:0000000000000068 .L7
     /tmp/cci2wR8u.s:76     .text:0000000000000070 .L10
     /tmp/cci2wR8u.s:26     .text:0000000000000018 .L2
     /tmp/cci2wR8u.s:33     .text:0000000000000028 .L3
     /tmp/cci2wR8u.s:141    .text:00000000000000e4 .L18
     /tmp/cci2wR8u.s:246    .text:0000000000000160 .L22
     /tmp/cci2wR8u.s:219    .text:000000000000012c .L20
     /tmp/cci2wR8u.s:117    .text:00000000000000a4 .LEHB0
     /tmp/cci2wR8u.s:88     .text:0000000000000074 .LFB37
     /tmp/cci2wR8u.s:120    .text:00000000000000ac .LEHE0
     /tmp/cci2wR8u.s:125    .text:00000000000000bc .LEHB1
     /tmp/cci2wR8u.s:128    .text:00000000000000c4 .LEHE1
     /tmp/cci2wR8u.s:130    .text:00000000000000c8 .L15
     /tmp/cci2wR8u.s:137    .text:00000000000000dc .LEHB2
     /tmp/cci2wR8u.s:140    .text:00000000000000e4 .LEHE2
     /tmp/cci2wR8u.s:1613   .debug_abbrev:0000000000000000 .Ldebug_abbrev0
     /tmp/cci2wR8u.s:2996   .debug_str:0000000000000815 .LASF146
     /tmp/cci2wR8u.s:3008   .debug_str:000000000000094d .LASF147
     /tmp/cci2wR8u.s:3042   .debug_str:0000000000000a88 .LASF148
     /tmp/cci2wR8u.s:5      .text:0000000000000000 .Ltext0
     /tmp/cci2wR8u.s:391    .text:0000000000000224 .Letext0
     /tmp/cci2wR8u.s:2740   .debug_line:0000000000000000 .Ldebug_line0
GAS LISTING /tmp/cci2wR8u.s 			page 13


     /tmp/cci2wR8u.s:2906   .debug_str:000000000000054d .LASF0
     /tmp/cci2wR8u.s:2926   .debug_str:00000000000005d5 .LASF1
     /tmp/cci2wR8u.s:2886   .debug_str:00000000000004a0 .LASF2
     /tmp/cci2wR8u.s:2854   .debug_str:00000000000003b1 .LASF4
     /tmp/cci2wR8u.s:2974   .debug_str:000000000000075a .LASF3
     /tmp/cci2wR8u.s:2770   .debug_str:00000000000000e1 .LASF5
     /tmp/cci2wR8u.s:2932   .debug_str:0000000000000618 .LASF6
     /tmp/cci2wR8u.s:2904   .debug_str:000000000000053a .LASF7
     /tmp/cci2wR8u.s:3006   .debug_str:000000000000093d .LASF8
     /tmp/cci2wR8u.s:2836   .debug_str:0000000000000309 .LASF9
     /tmp/cci2wR8u.s:2946   .debug_str:0000000000000692 .LASF10
     /tmp/cci2wR8u.s:2998   .debug_str:00000000000008d9 .LASF11
     /tmp/cci2wR8u.s:2774   .debug_str:00000000000000f0 .LASF12
     /tmp/cci2wR8u.s:2748   .debug_str:0000000000000037 .LASF13
     /tmp/cci2wR8u.s:2794   .debug_str:00000000000001ad .LASF14
     /tmp/cci2wR8u.s:2966   .debug_str:000000000000071b .LASF15
     /tmp/cci2wR8u.s:2802   .debug_str:00000000000001f8 .LASF16
     /tmp/cci2wR8u.s:2924   .debug_str:00000000000005cd .LASF40
     /tmp/cci2wR8u.s:2752   .debug_str:0000000000000050 .LASF115
     /tmp/cci2wR8u.s:2762   .debug_str:00000000000000b9 .LASF17
     /tmp/cci2wR8u.s:2934   .debug_str:000000000000062b .LASF19
     /tmp/cci2wR8u.s:2936   .debug_str:000000000000063b .LASF99
     /tmp/cci2wR8u.s:3004   .debug_str:0000000000000922 .LASF101
     /tmp/cci2wR8u.s:2888   .debug_str:00000000000004ae .LASF18
     /tmp/cci2wR8u.s:2778   .debug_str:0000000000000105 .LASF20
     /tmp/cci2wR8u.s:2960   .debug_str:00000000000006f8 .LASF21
     /tmp/cci2wR8u.s:3022   .debug_str:00000000000009cc .LASF22
     /tmp/cci2wR8u.s:2958   .debug_str:00000000000006f3 .LASF149
     /tmp/cci2wR8u.s:2968   .debug_str:0000000000000731 .LASF23
     /tmp/cci2wR8u.s:2746   .debug_str:0000000000000023 .LASF25
     /tmp/cci2wR8u.s:2818   .debug_str:0000000000000292 .LASF150
     /tmp/cci2wR8u.s:2944   .debug_str:0000000000000686 .LASF24
     /tmp/cci2wR8u.s:2796   .debug_str:00000000000001b9 .LASF26
     /tmp/cci2wR8u.s:3036   .debug_str:0000000000000a69 .LASF27
     /tmp/cci2wR8u.s:2928   .debug_str:00000000000005e8 .LASF28
     /tmp/cci2wR8u.s:2948   .debug_str:00000000000006a1 .LASF29
     /tmp/cci2wR8u.s:2884   .debug_str:000000000000048c .LASF30
     /tmp/cci2wR8u.s:2808   .debug_str:000000000000022f .LASF51
     /tmp/cci2wR8u.s:2860   .debug_str:00000000000003cf .LASF31
     /tmp/cci2wR8u.s:2848   .debug_str:000000000000037a .LASF32
     /tmp/cci2wR8u.s:2864   .debug_str:00000000000003df .LASF33
     /tmp/cci2wR8u.s:2858   .debug_str:00000000000003c6 .LASF34
     /tmp/cci2wR8u.s:3012   .debug_str:0000000000000968 .LASF110
     /tmp/cci2wR8u.s:2902   .debug_str:000000000000050e .LASF112
     /tmp/cci2wR8u.s:2878   .debug_str:000000000000044e .LASF35
     /tmp/cci2wR8u.s:2950   .debug_str:00000000000006b3 .LASF37
     /tmp/cci2wR8u.s:2910   .debug_str:0000000000000561 .LASF36
     /tmp/cci2wR8u.s:2986   .debug_str:00000000000007c5 .LASF38
     /tmp/cci2wR8u.s:2826   .debug_str:00000000000002c8 .LASF39
     /tmp/cci2wR8u.s:2922   .debug_str:00000000000005c7 .LASF41
     /tmp/cci2wR8u.s:2962   .debug_str:0000000000000706 .LASF42
     /tmp/cci2wR8u.s:3028   .debug_str:0000000000000a0c .LASF43
     /tmp/cci2wR8u.s:2764   .debug_str:00000000000000c2 .LASF44
     /tmp/cci2wR8u.s:2816   .debug_str:0000000000000277 .LASF45
     /tmp/cci2wR8u.s:2988   .debug_str:00000000000007dc .LASF46
     /tmp/cci2wR8u.s:2850   .debug_str:0000000000000380 .LASF47
     /tmp/cci2wR8u.s:2978   .debug_str:0000000000000773 .LASF48
GAS LISTING /tmp/cci2wR8u.s 			page 14


     /tmp/cci2wR8u.s:2784   .debug_str:0000000000000143 .LASF49
     /tmp/cci2wR8u.s:2750   .debug_str:0000000000000047 .LASF53
     /tmp/cci2wR8u.s:2820   .debug_str:000000000000029a .LASF55
     /tmp/cci2wR8u.s:2812   .debug_str:000000000000025f .LASF50
     /tmp/cci2wR8u.s:2810   .debug_str:000000000000024a .LASF52
     /tmp/cci2wR8u.s:2976   .debug_str:000000000000076c .LASF54
     /tmp/cci2wR8u.s:2954   .debug_str:00000000000006d6 .LASF56
     /tmp/cci2wR8u.s:2994   .debug_str:000000000000080e .LASF57
     /tmp/cci2wR8u.s:2990   .debug_str:00000000000007e9 .LASF58
     /tmp/cci2wR8u.s:2830   .debug_str:00000000000002e0 .LASF59
     /tmp/cci2wR8u.s:2804   .debug_str:000000000000020e .LASF60
     /tmp/cci2wR8u.s:2744   .debug_str:000000000000001b .LASF61
     /tmp/cci2wR8u.s:2842   .debug_str:0000000000000339 .LASF62
     /tmp/cci2wR8u.s:2768   .debug_str:00000000000000d9 .LASF63
     /tmp/cci2wR8u.s:2782   .debug_str:000000000000012f .LASF64
     /tmp/cci2wR8u.s:3040   .debug_str:0000000000000a80 .LASF65
     /tmp/cci2wR8u.s:2822   .debug_str:00000000000002af .LASF66
     /tmp/cci2wR8u.s:2908   .debug_str:000000000000055a .LASF67
     /tmp/cci2wR8u.s:3024   .debug_str:00000000000009f4 .LASF68
     /tmp/cci2wR8u.s:3002   .debug_str:000000000000091b .LASF69
     /tmp/cci2wR8u.s:2828   .debug_str:00000000000002cd .LASF70
     /tmp/cci2wR8u.s:2832   .debug_str:00000000000002e8 .LASF71
     /tmp/cci2wR8u.s:2992   .debug_str:00000000000007fc .LASF72
     /tmp/cci2wR8u.s:2760   .debug_str:00000000000000b3 .LASF73
     /tmp/cci2wR8u.s:3046   .debug_str:0000000000000ab8 .LASF74
     /tmp/cci2wR8u.s:3038   .debug_str:0000000000000a75 .LASF75
     /tmp/cci2wR8u.s:2972   .debug_str:0000000000000742 .LASF76
     /tmp/cci2wR8u.s:2862   .debug_str:00000000000003d4 .LASF77
     /tmp/cci2wR8u.s:2872   .debug_str:000000000000041a .LASF78
     /tmp/cci2wR8u.s:2792   .debug_str:00000000000001a3 .LASF79
     /tmp/cci2wR8u.s:2876   .debug_str:0000000000000438 .LASF80
     /tmp/cci2wR8u.s:2894   .debug_str:00000000000004ea .LASF81
     /tmp/cci2wR8u.s:2840   .debug_str:0000000000000323 .LASF82
     /tmp/cci2wR8u.s:2912   .debug_str:000000000000056a .LASF83
     /tmp/cci2wR8u.s:3014   .debug_str:0000000000000976 .LASF84
     /tmp/cci2wR8u.s:2930   .debug_str:0000000000000603 .LASF85
     /tmp/cci2wR8u.s:2940   .debug_str:000000000000064d .LASF86
     /tmp/cci2wR8u.s:2984   .debug_str:00000000000007ae .LASF87
     /tmp/cci2wR8u.s:2754   .debug_str:0000000000000058 .LASF88
     /tmp/cci2wR8u.s:2814   .debug_str:0000000000000268 .LASF89
     /tmp/cci2wR8u.s:2982   .debug_str:0000000000000792 .LASF90
     /tmp/cci2wR8u.s:2920   .debug_str:00000000000005bc .LASF91
     /tmp/cci2wR8u.s:2788   .debug_str:0000000000000165 .LASF92
     /tmp/cci2wR8u.s:2838   .debug_str:0000000000000317 .LASF93
     /tmp/cci2wR8u.s:2870   .debug_str:0000000000000406 .LASF94
     /tmp/cci2wR8u.s:2824   .debug_str:00000000000002c3 .LASF95
     /tmp/cci2wR8u.s:3032   .debug_str:0000000000000a2d .LASF96
     /tmp/cci2wR8u.s:2938   .debug_str:0000000000000646 .LASF97
     /tmp/cci2wR8u.s:3016   .debug_str:0000000000000991 .LASF98
     /tmp/cci2wR8u.s:2896   .debug_str:00000000000004f4 .LASF100
     /tmp/cci2wR8u.s:2918   .debug_str:00000000000005a1 .LASF102
     /tmp/cci2wR8u.s:2856   .debug_str:00000000000003b8 .LASF103
     /tmp/cci2wR8u.s:2882   .debug_str:000000000000046b .LASF104
     /tmp/cci2wR8u.s:2780   .debug_str:0000000000000120 .LASF105
     /tmp/cci2wR8u.s:2890   .debug_str:00000000000004ba .LASF106
     /tmp/cci2wR8u.s:2786   .debug_str:000000000000015f .LASF107
     /tmp/cci2wR8u.s:2952   .debug_str:00000000000006d0 .LASF108
GAS LISTING /tmp/cci2wR8u.s 			page 15


     /tmp/cci2wR8u.s:2844   .debug_str:000000000000034d .LASF109
     /tmp/cci2wR8u.s:2772   .debug_str:00000000000000e8 .LASF111
     /tmp/cci2wR8u.s:2914   .debug_str:0000000000000578 .LASF113
     /tmp/cci2wR8u.s:2758   .debug_str:00000000000000a8 .LASF114
     /tmp/cci2wR8u.s:2970   .debug_str:0000000000000737 .LASF116
     /tmp/cci2wR8u.s:2798   .debug_str:00000000000001d4 .LASF117
     /tmp/cci2wR8u.s:3020   .debug_str:00000000000009c0 .LASF118
     /tmp/cci2wR8u.s:2756   .debug_str:000000000000007c .LASF119
     /tmp/cci2wR8u.s:3018   .debug_str:00000000000009ac .LASF120
     /tmp/cci2wR8u.s:2892   .debug_str:00000000000004de .LASF121
     /tmp/cci2wR8u.s:2868   .debug_str:00000000000003f2 .LASF122
     /tmp/cci2wR8u.s:2852   .debug_str:000000000000039a .LASF123
     /tmp/cci2wR8u.s:2900   .debug_str:0000000000000504 .LASF124
     /tmp/cci2wR8u.s:2942   .debug_str:000000000000066f .LASF125
     /tmp/cci2wR8u.s:2956   .debug_str:00000000000006e9 .LASF126
     /tmp/cci2wR8u.s:2964   .debug_str:0000000000000711 .LASF127
     /tmp/cci2wR8u.s:2916   .debug_str:0000000000000592 .LASF128
     /tmp/cci2wR8u.s:3030   .debug_str:0000000000000a24 .LASF129
     /tmp/cci2wR8u.s:2742   .debug_str:0000000000000000 .LASF130
     /tmp/cci2wR8u.s:2766   .debug_str:00000000000000d0 .LASF131
     /tmp/cci2wR8u.s:3034   .debug_str:0000000000000a46 .LASF132
     /tmp/cci2wR8u.s:3010   .debug_str:000000000000095d .LASF133
     /tmp/cci2wR8u.s:2790   .debug_str:0000000000000179 .LASF134
     /tmp/cci2wR8u.s:2866   .debug_str:00000000000003e7 .LASF135
     /tmp/cci2wR8u.s:3000   .debug_str:00000000000008e8 .LASF136
     /tmp/cci2wR8u.s:2846   .debug_str:0000000000000365 .LASF151
     /tmp/cci2wR8u.s:300    .text:00000000000001a8 .LFB41
     /tmp/cci2wR8u.s:337    .text:00000000000001e0 .LFE41
     /tmp/cci2wR8u.s:313    .text:00000000000001b8 .LBB11
     /tmp/cci2wR8u.s:322    .text:00000000000001c8 .LBE11
     /tmp/cci2wR8u.s:2549   .debug_loc:0000000000000000 .LLST9
     /tmp/cci2wR8u.s:2557   .debug_loc:0000000000000024 .LLST10
     /tmp/cci2wR8u.s:326    .text:00000000000001d0 .LVL27
     /tmp/cci2wR8u.s:343    .text:00000000000001e0 .LFB40
     /tmp/cci2wR8u.s:380    .text:0000000000000224 .LFE40
     /tmp/cci2wR8u.s:357    .text:00000000000001f8 .LVL28
     /tmp/cci2wR8u.s:369    .text:0000000000000214 .LVL30
     /tmp/cci2wR8u.s:190    .text:0000000000000108 .LFB39
     /tmp/cci2wR8u.s:255    .text:0000000000000170 .LFE39
     /tmp/cci2wR8u.s:2565   .debug_loc:000000000000004f .LLST7
     /tmp/cci2wR8u.s:208    .text:0000000000000124 .LBB9
     /tmp/cci2wR8u.s:216    .text:0000000000000128 .LBE9
     /tmp/cci2wR8u.s:2576   .debug_loc:0000000000000085 .LLST8
     /tmp/cci2wR8u.s:223    .text:0000000000000134 .LVL17
     /tmp/cci2wR8u.s:231    .text:000000000000014c .LVL18
     /tmp/cci2wR8u.s:252    .text:000000000000016c .LVL21
     /tmp/cci2wR8u.s:261    .text:0000000000000170 .LFB38
     /tmp/cci2wR8u.s:294    .text:00000000000001a8 .LFE38
     /tmp/cci2wR8u.s:275    .text:0000000000000188 .LVL22
     /tmp/cci2wR8u.s:279    .text:0000000000000190 .LVL23
     /tmp/cci2wR8u.s:283    .text:0000000000000198 .LVL24
     /tmp/cci2wR8u.s:164    .text:0000000000000108 .LFE37
     /tmp/cci2wR8u.s:2583   .debug_loc:00000000000000a8 .LLST4
     /tmp/cci2wR8u.s:2776   .debug_str:0000000000000100 .LASF137
     /tmp/cci2wR8u.s:2612   .debug_loc:000000000000011d .LLST5
     /tmp/cci2wR8u.s:3044   .debug_str:0000000000000aac .LASF138
     /tmp/cci2wR8u.s:2630   .debug_loc:0000000000000169 .LLST6
GAS LISTING /tmp/cci2wR8u.s 			page 16


     /tmp/cci2wR8u.s:119    .text:00000000000000ac .LVL7
     /tmp/cci2wR8u.s:127    .text:00000000000000c4 .LVL8
     /tmp/cci2wR8u.s:135    .text:00000000000000d8 .LVL10
     /tmp/cci2wR8u.s:139    .text:00000000000000e4 .LVL11
     /tmp/cci2wR8u.s:3026   .debug_str:0000000000000a07 .LASF139
     /tmp/cci2wR8u.s:2834   .debug_str:00000000000002ee .LASF152
     /tmp/cci2wR8u.s:10     .text:0000000000000000 .LFB35
     /tmp/cci2wR8u.s:80     .text:0000000000000074 .LFE35
     /tmp/cci2wR8u.s:2648   .debug_loc:00000000000001b5 .LLST0
     /tmp/cci2wR8u.s:2666   .debug_loc:0000000000000201 .LLST1
     /tmp/cci2wR8u.s:2684   .debug_loc:000000000000024d .LLST2
     /tmp/cci2wR8u.s:2702   .debug_loc:0000000000000299 .LLST3
     /tmp/cci2wR8u.s:54     .text:0000000000000050 .LVL2
     /tmp/cci2wR8u.s:2874   .debug_str:0000000000000432 .LASF140
     /tmp/cci2wR8u.s:2806   .debug_str:0000000000000222 .LASF142
     /tmp/cci2wR8u.s:2898   .debug_str:00000000000004fd .LASF141
     /tmp/cci2wR8u.s:2980   .debug_str:0000000000000782 .LASF143
     /tmp/cci2wR8u.s:2880   .debug_str:000000000000045c .LASF144
     /tmp/cci2wR8u.s:2800   .debug_str:00000000000001e0 .LASF145
     /tmp/cci2wR8u.s:312    .text:00000000000001b8 .LVL25
     /tmp/cci2wR8u.s:320    .text:00000000000001c8 .LVL26
     /tmp/cci2wR8u.s:206    .text:0000000000000124 .LVL15
     /tmp/cci2wR8u.s:241    .text:0000000000000158 .LVL19
     /tmp/cci2wR8u.s:245    .text:0000000000000160 .LVL20
     /tmp/cci2wR8u.s:214    .text:0000000000000128 .LVL16
     /tmp/cci2wR8u.s:93     .text:0000000000000074 .LVL5
     /tmp/cci2wR8u.s:116    .text:00000000000000a4 .LVL6
     /tmp/cci2wR8u.s:132    .text:00000000000000cc .LVL9
     /tmp/cci2wR8u.s:153    .text:00000000000000f8 .LVL12
     /tmp/cci2wR8u.s:156    .text:00000000000000fc .LVL13
     /tmp/cci2wR8u.s:159    .text:0000000000000100 .LVL14
     /tmp/cci2wR8u.s:14     .text:0000000000000000 .LVL0
     /tmp/cci2wR8u.s:65     .text:0000000000000060 .LVL3
     /tmp/cci2wR8u.s:25     .text:0000000000000018 .LVL1
     /tmp/cci2wR8u.s:70     .text:0000000000000064 .LVL4
     /tmp/cci2wR8u.s:397    .debug_info:0000000000000000 .Ldebug_info0
     /tmp/cci2wR8u.s:167    .gcc_except_table:0000000000000000 .LLSDA37

UNDEFINED SYMBOLS
_ZN10kScheduler8putReadyEP7kThread
_Znwm
_ZdlPv
_Unwind_Resume
__gxx_personality_v0
_ZN10kScheduler8getReadyEv
_ZN7kThread13contextSwitchEPNS_7ContextES1_
_ZN5Riscv13pushRegistersEv
_ZN5Riscv12popRegistersEv
_ZN5Riscv10popSppSpieEv
