GAS LISTING /tmp/ccefayST.s 			page 1


   1              		.file	"kThread.cpp"
   2              		.option pic
   3              		.option norelax
   4              		.text
   5              	.Ltext0:
   6              		.align	2
   7              		.globl	_ZN7kThreadC2EPFvPvES0_S0_
   9              	_ZN7kThreadC2EPFvPvES0_S0_:
  10              	.LFB32:
  11              		.file 1 "src/kThread.cpp"
   1:src/kThread.cpp **** #include "../h/kThread.hpp"
   2:src/kThread.cpp **** #include "../h/print.hpp"
   3:src/kThread.cpp **** #include "../h/riscv.hpp"
   4:src/kThread.cpp **** #include "../h/kScheduler.hpp"
   5:src/kThread.cpp **** kThread* kThread::running = nullptr;
   6:src/kThread.cpp **** 
   7:src/kThread.cpp **** kThread::kThread(Body body, void* arg, void* stack_space) :
  12              		.loc 1 7 1
  13              		.cfi_startproc
  14              	.LVL0:
  15 0000 130101FE 		addi	sp,sp,-32
  16              		.cfi_def_cfa_offset 32
  17 0004 233C1100 		sd	ra,24(sp)
  18 0008 23388100 		sd	s0,16(sp)
  19 000c 23349100 		sd	s1,8(sp)
  20              		.cfi_offset 1, -8
  21              		.cfi_offset 8, -16
  22              		.cfi_offset 9, -24
  23 0010 13040102 		addi	s0,sp,32
  24              		.cfi_def_cfa 8, 0
  25 0014 93040500 		mv	s1,a0
  26              	.LBB6:
   8:src/kThread.cpp ****         body(body),
   9:src/kThread.cpp ****         arg(arg),
  10:src/kThread.cpp ****         stack(body != nullptr ? (uint64*)stack_space - DEFAULT_STACK_SIZE + 1 : nullptr),
  11:src/kThread.cpp ****         context({body!=nullptr?(uint64)&threadWrapper : 0,stack != nullptr ? (uint64)stack : 0}),
  12:src/kThread.cpp ****         finished(false)
  27              		.loc 1 12 23 is_stmt 0
  28 0018 2334B502 		sd	a1,40(a0)
  29 001c 2338C502 		sd	a2,48(a0)
  10:src/kThread.cpp ****         context({body!=nullptr?(uint64)&threadWrapper : 0,stack != nullptr ? (uint64)stack : 0}),
  30              		.loc 1 10 31
  31 0020 638C0504 		beqz	a1,.L6
  10:src/kThread.cpp ****         context({body!=nullptr?(uint64)&threadWrapper : 0,stack != nullptr ? (uint64)stack : 0}),
  32              		.loc 1 10 31 discriminator 1
  33 0024 B787FFFF 		li	a5,-32768
  34 0028 93878700 		addi	a5,a5,8
  35 002c B386F600 		add	a3,a3,a5
  36              	.LVL1:
  37              	.L2:
  38              		.loc 1 12 23
  39 0030 23BCD402 		sd	a3,56(s1)
  11:src/kThread.cpp ****         finished(false)
  40              		.loc 1 11 31
  41 0034 63860504 		beqz	a1,.L7
  11:src/kThread.cpp ****         finished(false)
  42              		.loc 1 11 31 discriminator 1
GAS LISTING /tmp/ccefayST.s 			page 2


  43 0038 97070000 		lla	a5,_ZN7kThread13threadWrapperEv
  43      93870700 
  44              	.L3:
  45              		.loc 1 12 23 discriminator 4
  46 0040 23B0F404 		sd	a5,64(s1)
  47 0044 23B4D404 		sd	a3,72(s1)
  48 0048 23880404 		sb	zero,80(s1)
  13:src/kThread.cpp ****     {
  14:src/kThread.cpp ****         if(body != nullptr) { kScheduler::putReady(this);}
  49              		.loc 1 14 9 is_stmt 1 discriminator 4
  50 004c 63880500 		beqz	a1,.L5
  51              		.loc 1 14 31 discriminator 1
  52              		.loc 1 14 51 is_stmt 0 discriminator 1
  53 0050 13850400 		mv	a0,s1
  54              	.LVL2:
  55 0054 97000000 		call	_ZN10kScheduler8putReadyEP7kThread@plt
  55      E7800000 
  56              	.LVL3:
  57              	.L5:
  15:src/kThread.cpp ****         headSuspended = nullptr;
  58              		.loc 1 15 9 is_stmt 1
  59              		.loc 1 15 23 is_stmt 0
  60 005c 23BC0400 		sd	zero,24(s1)
  16:src/kThread.cpp ****         tailSuspended = nullptr;
  61              		.loc 1 16 9 is_stmt 1
  62              		.loc 1 16 23 is_stmt 0
  63 0060 23B00402 		sd	zero,32(s1)
  64              	.LBE6:
  17:src/kThread.cpp ****     }
  65              		.loc 1 17 5
  66 0064 83308101 		ld	ra,24(sp)
  67              		.cfi_remember_state
  68              		.cfi_restore 1
  69 0068 03340101 		ld	s0,16(sp)
  70              		.cfi_restore 8
  71              		.cfi_def_cfa 2, 32
  72 006c 83348100 		ld	s1,8(sp)
  73              		.cfi_restore 9
  74              	.LVL4:
  75 0070 13010102 		addi	sp,sp,32
  76              		.cfi_def_cfa_offset 0
  77 0074 67800000 		jr	ra
  78              	.LVL5:
  79              	.L6:
  80              		.cfi_restore_state
  81              	.LBB7:
  10:src/kThread.cpp ****         context({body!=nullptr?(uint64)&threadWrapper : 0,stack != nullptr ? (uint64)stack : 0}),
  82              		.loc 1 10 31
  83 0078 93060000 		li	a3,0
  84              	.LVL6:
  85 007c 6FF05FFB 		j	.L2
  86              	.L7:
  11:src/kThread.cpp ****         finished(false)
  87              		.loc 1 11 31
  88 0080 93070000 		li	a5,0
  89 0084 6FF0DFFB 		j	.L3
  90              	.LBE7:
GAS LISTING /tmp/ccefayST.s 			page 3


  91              		.cfi_endproc
  92              	.LFE32:
  94              		.globl	_ZN7kThreadC1EPFvPvES0_S0_
  95              		.set	_ZN7kThreadC1EPFvPvES0_S0_,_ZN7kThreadC2EPFvPvES0_S0_
  96              		.align	2
  97              		.globl	_ZN7kThread13createProcessEPFvPvES0_S0_
  99              	_ZN7kThread13createProcessEPFvPvES0_S0_:
 100              	.LFB34:
  18:src/kThread.cpp **** 
  19:src/kThread.cpp **** kThread* kThread::createProcess(Body body, void* args, void* stack_space) {
 101              		.loc 1 19 75 is_stmt 1
 102              		.cfi_startproc
 103              		.cfi_personality 0x9b,DW.ref.__gxx_personality_v0
 104              		.cfi_lsda 0x1b,.LLSDA34
 105              	.LVL7:
 106 0088 130101FD 		addi	sp,sp,-48
 107              		.cfi_def_cfa_offset 48
 108 008c 23341102 		sd	ra,40(sp)
 109 0090 23308102 		sd	s0,32(sp)
 110 0094 233C9100 		sd	s1,24(sp)
 111 0098 23382101 		sd	s2,16(sp)
 112 009c 23343101 		sd	s3,8(sp)
 113 00a0 23304101 		sd	s4,0(sp)
 114              		.cfi_offset 1, -8
 115              		.cfi_offset 8, -16
 116              		.cfi_offset 9, -24
 117              		.cfi_offset 18, -32
 118              		.cfi_offset 19, -40
 119              		.cfi_offset 20, -48
 120 00a4 13040103 		addi	s0,sp,48
 121              		.cfi_def_cfa 8, 0
 122 00a8 13090500 		mv	s2,a0
 123 00ac 93890500 		mv	s3,a1
 124 00b0 130A0600 		mv	s4,a2
  20:src/kThread.cpp **** 
  21:src/kThread.cpp ****     return new kThread(body,args, stack_space);
 125              		.loc 1 21 5
 126              		.loc 1 21 46 is_stmt 0
 127 00b4 13058005 		li	a0,88
 128              	.LVL8:
 129              	.LEHB0:
 130 00b8 97000000 		call	_Znwm@plt
 130      E7800000 
 131              	.LVL9:
 132              	.LEHE0:
 133 00c0 93040500 		mv	s1,a0
 134 00c4 93060A00 		mv	a3,s4
 135 00c8 13860900 		mv	a2,s3
 136 00cc 93050900 		mv	a1,s2
 137              	.LEHB1:
 138 00d0 97000000 		call	_ZN7kThreadC1EPFvPvES0_S0_
 138      E7800000 
 139              	.LVL10:
 140              	.LEHE1:
 141 00d8 6F000002 		j	.L15
 142              	.L12:
 143 00dc 13090500 		mv	s2,a0
GAS LISTING /tmp/ccefayST.s 			page 4


 144              	.LVL11:
 145 00e0 13850400 		mv	a0,s1
 146 00e4 97000000 		call	_ZdlPv@plt
 146      E7800000 
 147              	.LVL12:
 148 00ec 13050900 		mv	a0,s2
 149              	.LEHB2:
 150 00f0 97000000 		call	_Unwind_Resume@plt
 150      E7800000 
 151              	.LVL13:
 152              	.LEHE2:
 153              	.L15:
  22:src/kThread.cpp **** 
  23:src/kThread.cpp **** }
 154              		.loc 1 23 1
 155 00f8 13850400 		mv	a0,s1
 156 00fc 83308102 		ld	ra,40(sp)
 157              		.cfi_restore 1
 158 0100 03340102 		ld	s0,32(sp)
 159              		.cfi_restore 8
 160              		.cfi_def_cfa 2, 48
 161 0104 83348101 		ld	s1,24(sp)
 162              		.cfi_restore 9
 163 0108 03390101 		ld	s2,16(sp)
 164              		.cfi_restore 18
 165              	.LVL14:
 166 010c 83398100 		ld	s3,8(sp)
 167              		.cfi_restore 19
 168              	.LVL15:
 169 0110 033A0100 		ld	s4,0(sp)
 170              		.cfi_restore 20
 171              	.LVL16:
 172 0114 13010103 		addi	sp,sp,48
 173              		.cfi_def_cfa_offset 0
 174 0118 67800000 		jr	ra
 175              		.cfi_endproc
 176              	.LFE34:
 177              		.globl	__gxx_personality_v0
 178              		.section	.gcc_except_table,"a",@progbits
 179              	.LLSDA34:
 180 0000 FF       		.byte	0xff
 181 0001 FF       		.byte	0xff
 182 0002 03       		.byte	0x3
 183 0003 27       		.byte	0x27
 184 0004 00000000 		.4byte	.LEHB0-.LFB34
 185 0008 00000000 		.4byte	.LEHE0-.LEHB0
 186 000c 00000000 		.4byte	0
 187 0010 00       		.byte	0
 188 0011 00000000 		.4byte	.LEHB1-.LFB34
 189 0015 00000000 		.4byte	.LEHE1-.LEHB1
 190 0019 00000000 		.4byte	.L12-.LFB34
 191 001d 00       		.byte	0
 192 001e 00000000 		.4byte	.LEHB2-.LFB34
 193 0022 00000000 		.4byte	.LEHE2-.LEHB2
 194 0026 00000000 		.4byte	0
 195 002a 00       		.byte	0
 196              		.text
GAS LISTING /tmp/ccefayST.s 			page 5


 198              		.align	2
 199              		.globl	_ZN7kThread8dispatchEv
 201              	_ZN7kThread8dispatchEv:
 202              	.LFB36:
  24:src/kThread.cpp **** 
  25:src/kThread.cpp **** void kThread::yield()
  26:src/kThread.cpp **** {
  27:src/kThread.cpp ****     Riscv::pushRegisters();
  28:src/kThread.cpp ****     kThread::dispatch();
  29:src/kThread.cpp ****     Riscv::popRegisters();
  30:src/kThread.cpp **** 
  31:src/kThread.cpp **** }
  32:src/kThread.cpp **** 
  33:src/kThread.cpp **** void kThread::dispatch()
  34:src/kThread.cpp **** {
 203              		.loc 1 34 1 is_stmt 1
 204              		.cfi_startproc
 205 011c 130101FE 		addi	sp,sp,-32
 206              		.cfi_def_cfa_offset 32
 207 0120 233C1100 		sd	ra,24(sp)
 208 0124 23388100 		sd	s0,16(sp)
 209 0128 23349100 		sd	s1,8(sp)
 210              		.cfi_offset 1, -8
 211              		.cfi_offset 8, -16
 212              		.cfi_offset 9, -24
 213 012c 13040102 		addi	s0,sp,32
 214              		.cfi_def_cfa 8, 0
  35:src/kThread.cpp ****     kThread *old = running;
 215              		.loc 1 35 5
 216              		.loc 1 35 14 is_stmt 0
 217 0130 97040000 		ld	s1,.LANCHOR0
 217      83B40400 
 218              	.LVL17:
  36:src/kThread.cpp ****     if (!old->isFinished()) {
 219              		.loc 1 36 5 is_stmt 1
 220              	.LBB8:
 221              	.LBB9:
 222              		.file 2 "src/../h/kThread.hpp"
   1:src/../h/kThread.hpp **** #ifndef OPERATIVNI_SISTEMI_KTHREAD_HPP
   2:src/../h/kThread.hpp **** #define OPERATIVNI_SISTEMI_KTHREAD_HPP
   3:src/../h/kThread.hpp **** 
   4:src/../h/kThread.hpp **** #include "../lib/hw.h"
   5:src/../h/kThread.hpp **** 
   6:src/../h/kThread.hpp **** class kScheduler;
   7:src/../h/kThread.hpp **** 
   8:src/../h/kThread.hpp **** class kThread{
   9:src/../h/kThread.hpp **** 
  10:src/../h/kThread.hpp **** public:
  11:src/../h/kThread.hpp **** 
  12:src/../h/kThread.hpp ****     ~kThread() { delete[] stack; }
  13:src/../h/kThread.hpp ****     inline bool isFinished() const { return finished; }
 223              		.loc 2 13 38
 224              		.loc 2 13 45 is_stmt 0
 225 0138 83C70405 		lbu	a5,80(s1)
 226              	.LVL18:
 227              	.LBE9:
 228              	.LBE8:
GAS LISTING /tmp/ccefayST.s 			page 6


 229              		.loc 1 36 5
 230 013c 638C0702 		beqz	a5,.L19
 231              	.L17:
  37:src/kThread.cpp ****         kScheduler::putReady(old);
  38:src/kThread.cpp ****     }
  39:src/kThread.cpp ****         running = kScheduler::getReady();
 232              		.loc 1 39 9 is_stmt 1
 233              		.loc 1 39 39 is_stmt 0
 234 0140 97000000 		call	_ZN10kScheduler8getReadyEv@plt
 234      E7800000 
 235              	.LVL19:
 236              		.loc 1 39 17
 237 0148 97070000 		sd	a0,.LANCHOR0,a5
 237      23B0A700 
  40:src/kThread.cpp ****         kThread::contextSwitch(&old->context, &running->context);
 238              		.loc 1 40 9 is_stmt 1
 239              		.loc 1 40 31 is_stmt 0
 240 0150 93050504 		addi	a1,a0,64
 241 0154 13850404 		addi	a0,s1,64
 242 0158 97000000 		call	_ZN7kThread13contextSwitchEPNS_7ContextES1_@plt
 242      E7800000 
 243              	.LVL20:
  41:src/kThread.cpp **** }
 244              		.loc 1 41 1
 245 0160 83308101 		ld	ra,24(sp)
 246              		.cfi_remember_state
 247              		.cfi_restore 1
 248 0164 03340101 		ld	s0,16(sp)
 249              		.cfi_restore 8
 250              		.cfi_def_cfa 2, 32
 251 0168 83348100 		ld	s1,8(sp)
 252              		.cfi_restore 9
 253              	.LVL21:
 254 016c 13010102 		addi	sp,sp,32
 255              		.cfi_def_cfa_offset 0
 256 0170 67800000 		jr	ra
 257              	.LVL22:
 258              	.L19:
 259              		.cfi_restore_state
  37:src/kThread.cpp ****         kScheduler::putReady(old);
 260              		.loc 1 37 9 is_stmt 1
  37:src/kThread.cpp ****         kScheduler::putReady(old);
 261              		.loc 1 37 29 is_stmt 0
 262 0174 13850400 		mv	a0,s1
 263 0178 97000000 		call	_ZN10kScheduler8putReadyEP7kThread@plt
 263      E7800000 
 264              	.LVL23:
 265 0180 6FF01FFC 		j	.L17
 266              		.cfi_endproc
 267              	.LFE36:
 269              		.align	2
 270              		.globl	_ZN7kThread5yieldEv
 272              	_ZN7kThread5yieldEv:
 273              	.LFB35:
  26:src/kThread.cpp ****     Riscv::pushRegisters();
 274              		.loc 1 26 1 is_stmt 1
 275              		.cfi_startproc
GAS LISTING /tmp/ccefayST.s 			page 7


 276 0184 130101FF 		addi	sp,sp,-16
 277              		.cfi_def_cfa_offset 16
 278 0188 23341100 		sd	ra,8(sp)
 279 018c 23308100 		sd	s0,0(sp)
 280              		.cfi_offset 1, -8
 281              		.cfi_offset 8, -16
 282 0190 13040101 		addi	s0,sp,16
 283              		.cfi_def_cfa 8, 0
  27:src/kThread.cpp ****     kThread::dispatch();
 284              		.loc 1 27 5
  27:src/kThread.cpp ****     kThread::dispatch();
 285              		.loc 1 27 25 is_stmt 0
 286 0194 97000000 		call	_ZN5Riscv13pushRegistersEv@plt
 286      E7800000 
 287              	.LVL24:
  28:src/kThread.cpp ****     Riscv::popRegisters();
 288              		.loc 1 28 5 is_stmt 1
  28:src/kThread.cpp ****     Riscv::popRegisters();
 289              		.loc 1 28 22 is_stmt 0
 290 019c 97000000 		call	_ZN7kThread8dispatchEv
 290      E7800000 
 291              	.LVL25:
  29:src/kThread.cpp **** 
 292              		.loc 1 29 5 is_stmt 1
  29:src/kThread.cpp **** 
 293              		.loc 1 29 24 is_stmt 0
 294 01a4 97000000 		call	_ZN5Riscv12popRegistersEv@plt
 294      E7800000 
 295              	.LVL26:
  31:src/kThread.cpp **** 
 296              		.loc 1 31 1
 297 01ac 83308100 		ld	ra,8(sp)
 298              		.cfi_restore 1
 299 01b0 03340100 		ld	s0,0(sp)
 300              		.cfi_restore 8
 301              		.cfi_def_cfa 2, 16
 302 01b4 13010101 		addi	sp,sp,16
 303              		.cfi_def_cfa_offset 0
 304 01b8 67800000 		jr	ra
 305              		.cfi_endproc
 306              	.LFE35:
 308              		.align	2
 309              		.globl	_ZN7kThread11kThreadJoinEPS_
 311              	_ZN7kThread11kThreadJoinEPS_:
 312              	.LFB40:
  42:src/kThread.cpp **** 
  43:src/kThread.cpp **** 
  44:src/kThread.cpp **** void kThread::threadWrapper() {
  45:src/kThread.cpp **** 
  46:src/kThread.cpp ****     Riscv::popSppSpie();
  47:src/kThread.cpp ****     running->body(running->arg);
  48:src/kThread.cpp ****     running->kThreadExit();
  49:src/kThread.cpp **** }
  50:src/kThread.cpp **** 
  51:src/kThread.cpp **** void kThread::kThreadExit() {
  52:src/kThread.cpp **** 
  53:src/kThread.cpp ****     running->setFinished(true);
GAS LISTING /tmp/ccefayST.s 			page 8


  54:src/kThread.cpp ****     running->unblockSuspended();
  55:src/kThread.cpp ****     yield();
  56:src/kThread.cpp ****     //treba negde i da je obrises, smisli kako
  57:src/kThread.cpp **** 
  58:src/kThread.cpp **** }
  59:src/kThread.cpp **** 
  60:src/kThread.cpp **** void kThread::helper(kThread* thr) {
  61:src/kThread.cpp ****     Riscv::popRegisters();
  62:src/kThread.cpp ****     kThreadJoin(thr);
  63:src/kThread.cpp ****     Riscv::pushRegisters();
  64:src/kThread.cpp **** 
  65:src/kThread.cpp **** }
  66:src/kThread.cpp **** void  kThread::kThreadJoin(kThread* thr) {
 313              		.loc 1 66 42 is_stmt 1
 314              		.cfi_startproc
 315              	.LVL27:
 316 01bc 130101FE 		addi	sp,sp,-32
 317              		.cfi_def_cfa_offset 32
 318 01c0 233C1100 		sd	ra,24(sp)
 319 01c4 23388100 		sd	s0,16(sp)
 320 01c8 23349100 		sd	s1,8(sp)
 321 01cc 23302101 		sd	s2,0(sp)
 322              		.cfi_offset 1, -8
 323              		.cfi_offset 8, -16
 324              		.cfi_offset 9, -24
 325              		.cfi_offset 18, -32
 326 01d0 13040102 		addi	s0,sp,32
 327              		.cfi_def_cfa 8, 0
  67:src/kThread.cpp **** 
  68:src/kThread.cpp ****     kThread* old = running;
 328              		.loc 1 68 5
 329              		.loc 1 68 14 is_stmt 0
 330 01d4 17090000 		lla	s2,.LANCHOR0
 330      13090900 
 331 01dc 83340900 		ld	s1,0(s2)
 332              	.LVL28:
  69:src/kThread.cpp ****     kScheduler::putSuspended(thr, old);
 333              		.loc 1 69 5 is_stmt 1
 334              		.loc 1 69 29 is_stmt 0
 335 01e0 93850400 		mv	a1,s1
 336 01e4 97000000 		call	_ZN10kScheduler12putSuspendedEP7kThreadS1_@plt
 336      E7800000 
 337              	.LVL29:
  70:src/kThread.cpp ****     running = kScheduler::getReady();
 338              		.loc 1 70 5 is_stmt 1
 339              		.loc 1 70 35 is_stmt 0
 340 01ec 97000000 		call	_ZN10kScheduler8getReadyEv@plt
 340      E7800000 
 341              	.LVL30:
 342              		.loc 1 70 13
 343 01f4 2330A900 		sd	a0,0(s2)
  71:src/kThread.cpp ****     kThread::contextSwitch(&old->context, &running->context);
 344              		.loc 1 71 5 is_stmt 1
 345              		.loc 1 71 27 is_stmt 0
 346 01f8 93050504 		addi	a1,a0,64
 347 01fc 13850404 		addi	a0,s1,64
 348 0200 97000000 		call	_ZN7kThread13contextSwitchEPNS_7ContextES1_@plt
GAS LISTING /tmp/ccefayST.s 			page 9


 348      E7800000 
 349              	.LVL31:
  72:src/kThread.cpp **** 
  73:src/kThread.cpp **** }
 350              		.loc 1 73 1
 351 0208 83308101 		ld	ra,24(sp)
 352              		.cfi_restore 1
 353 020c 03340101 		ld	s0,16(sp)
 354              		.cfi_restore 8
 355              		.cfi_def_cfa 2, 32
 356 0210 83348100 		ld	s1,8(sp)
 357              		.cfi_restore 9
 358              	.LVL32:
 359 0214 03390100 		ld	s2,0(sp)
 360              		.cfi_restore 18
 361 0218 13010102 		addi	sp,sp,32
 362              		.cfi_def_cfa_offset 0
 363 021c 67800000 		jr	ra
 364              		.cfi_endproc
 365              	.LFE40:
 367              		.align	2
 368              		.globl	_ZN7kThread6helperEPS_
 370              	_ZN7kThread6helperEPS_:
 371              	.LFB39:
  60:src/kThread.cpp ****     Riscv::popRegisters();
 372              		.loc 1 60 36 is_stmt 1
 373              		.cfi_startproc
 374              	.LVL33:
 375 0220 130101FE 		addi	sp,sp,-32
 376              		.cfi_def_cfa_offset 32
 377 0224 233C1100 		sd	ra,24(sp)
 378 0228 23388100 		sd	s0,16(sp)
 379 022c 23349100 		sd	s1,8(sp)
 380              		.cfi_offset 1, -8
 381              		.cfi_offset 8, -16
 382              		.cfi_offset 9, -24
 383 0230 13040102 		addi	s0,sp,32
 384              		.cfi_def_cfa 8, 0
 385 0234 93040500 		mv	s1,a0
  61:src/kThread.cpp ****     kThreadJoin(thr);
 386              		.loc 1 61 5
  61:src/kThread.cpp ****     kThreadJoin(thr);
 387              		.loc 1 61 24 is_stmt 0
 388 0238 97000000 		call	_ZN5Riscv12popRegistersEv@plt
 388      E7800000 
 389              	.LVL34:
  62:src/kThread.cpp ****     Riscv::pushRegisters();
 390              		.loc 1 62 5 is_stmt 1
  62:src/kThread.cpp ****     Riscv::pushRegisters();
 391              		.loc 1 62 16 is_stmt 0
 392 0240 13850400 		mv	a0,s1
 393 0244 97000000 		call	_ZN7kThread11kThreadJoinEPS_
 393      E7800000 
 394              	.LVL35:
  63:src/kThread.cpp **** 
 395              		.loc 1 63 5 is_stmt 1
  63:src/kThread.cpp **** 
GAS LISTING /tmp/ccefayST.s 			page 10


 396              		.loc 1 63 25 is_stmt 0
 397 024c 97000000 		call	_ZN5Riscv13pushRegistersEv@plt
 397      E7800000 
 398              	.LVL36:
  65:src/kThread.cpp **** void  kThread::kThreadJoin(kThread* thr) {
 399              		.loc 1 65 1
 400 0254 83308101 		ld	ra,24(sp)
 401              		.cfi_restore 1
 402 0258 03340101 		ld	s0,16(sp)
 403              		.cfi_restore 8
 404              		.cfi_def_cfa 2, 32
 405 025c 83348100 		ld	s1,8(sp)
 406              		.cfi_restore 9
 407              	.LVL37:
 408 0260 13010102 		addi	sp,sp,32
 409              		.cfi_def_cfa_offset 0
 410 0264 67800000 		jr	ra
 411              		.cfi_endproc
 412              	.LFE39:
 414              		.align	2
 415              		.globl	_ZN7kThread16unblockSuspendedEv
 417              	_ZN7kThread16unblockSuspendedEv:
 418              	.LFB41:
  74:src/kThread.cpp **** 
  75:src/kThread.cpp **** void kThread::unblockSuspended() {
 419              		.loc 1 75 34 is_stmt 1
 420              		.cfi_startproc
 421              	.LVL38:
  76:src/kThread.cpp **** 
  77:src/kThread.cpp ****     kThread* tmp;
 422              		.loc 1 77 5
  78:src/kThread.cpp ****     while(running->headSuspended)
 423              		.loc 1 78 5
 424              		.loc 1 78 20
 425 0268 17050000 		ld	a0,.LANCHOR0
 425      03350500 
 426              	.LVL39:
 427 0270 83378501 		ld	a5,24(a0)
 428 0274 63820704 		beqz	a5,.L34
  75:src/kThread.cpp **** 
 429              		.loc 1 75 34 is_stmt 0
 430 0278 130101FF 		addi	sp,sp,-16
 431              		.cfi_def_cfa_offset 16
 432 027c 23341100 		sd	ra,8(sp)
 433 0280 23308100 		sd	s0,0(sp)
 434              		.cfi_offset 1, -8
 435              		.cfi_offset 8, -16
 436 0284 13040101 		addi	s0,sp,16
 437              		.cfi_def_cfa 8, 0
 438              	.L31:
  79:src/kThread.cpp ****     {
  80:src/kThread.cpp ****         tmp = kScheduler::getSuspended(running);
 439              		.loc 1 80 9 is_stmt 1
 440              		.loc 1 80 39 is_stmt 0
 441 0288 97000000 		call	_ZN10kScheduler12getSuspendedEP7kThread@plt
 441      E7800000 
 442              	.LVL40:
GAS LISTING /tmp/ccefayST.s 			page 11


  81:src/kThread.cpp ****         kScheduler::putReady(tmp);
 443              		.loc 1 81 9 is_stmt 1
 444              		.loc 1 81 29 is_stmt 0
 445 0290 97000000 		call	_ZN10kScheduler8putReadyEP7kThread@plt
 445      E7800000 
 446              	.LVL41:
  77:src/kThread.cpp ****     while(running->headSuspended)
 447              		.loc 1 77 5 is_stmt 1
  78:src/kThread.cpp ****     {
 448              		.loc 1 78 5
  78:src/kThread.cpp ****     {
 449              		.loc 1 78 20
 450 0298 17050000 		ld	a0,.LANCHOR0
 450      03350500 
 451 02a0 83378501 		ld	a5,24(a0)
 452 02a4 E39207FE 		bnez	a5,.L31
  82:src/kThread.cpp **** 
  83:src/kThread.cpp ****     }
  84:src/kThread.cpp **** }
 453              		.loc 1 84 1 is_stmt 0
 454 02a8 83308100 		ld	ra,8(sp)
 455              		.cfi_restore 1
 456 02ac 03340100 		ld	s0,0(sp)
 457              		.cfi_restore 8
 458              		.cfi_def_cfa 2, 16
 459 02b0 13010101 		addi	sp,sp,16
 460              		.cfi_def_cfa_offset 0
 461 02b4 67800000 		jr	ra
 462              	.L34:
 463 02b8 67800000 		ret
 464              		.cfi_endproc
 465              	.LFE41:
 467              		.align	2
 468              		.globl	_ZN7kThread11kThreadExitEv
 470              	_ZN7kThread11kThreadExitEv:
 471              	.LFB38:
  51:src/kThread.cpp **** 
 472              		.loc 1 51 29 is_stmt 1
 473              		.cfi_startproc
 474 02bc 130101FF 		addi	sp,sp,-16
 475              		.cfi_def_cfa_offset 16
 476 02c0 23341100 		sd	ra,8(sp)
 477 02c4 23308100 		sd	s0,0(sp)
 478              		.cfi_offset 1, -8
 479              		.cfi_offset 8, -16
 480 02c8 13040101 		addi	s0,sp,16
 481              		.cfi_def_cfa 8, 0
  53:src/kThread.cpp ****     running->unblockSuspended();
 482              		.loc 1 53 5
  53:src/kThread.cpp ****     running->unblockSuspended();
 483              		.loc 1 53 25 is_stmt 0
 484 02cc 17050000 		ld	a0,.LANCHOR0
 484      03350500 
 485              	.LVL42:
 486              	.LBB10:
 487              	.LBB11:
  14:src/../h/kThread.hpp ****     inline void setFinished(bool finished) { kThread::finished = finished; }
GAS LISTING /tmp/ccefayST.s 			page 12


 488              		.loc 2 14 46 is_stmt 1
 489              		.loc 2 14 64 is_stmt 0
 490 02d4 93071000 		li	a5,1
 491 02d8 2308F504 		sb	a5,80(a0)
 492              	.LVL43:
 493              	.LBE11:
 494              	.LBE10:
  54:src/kThread.cpp ****     yield();
 495              		.loc 1 54 5 is_stmt 1
  54:src/kThread.cpp ****     yield();
 496              		.loc 1 54 30 is_stmt 0
 497 02dc 97000000 		call	_ZN7kThread16unblockSuspendedEv
 497      E7800000 
 498              	.LVL44:
  55:src/kThread.cpp ****     //treba negde i da je obrises, smisli kako
 499              		.loc 1 55 5 is_stmt 1
  55:src/kThread.cpp ****     //treba negde i da je obrises, smisli kako
 500              		.loc 1 55 10 is_stmt 0
 501 02e4 97000000 		call	_ZN7kThread5yieldEv
 501      E7800000 
 502              	.LVL45:
  58:src/kThread.cpp **** 
 503              		.loc 1 58 1
 504 02ec 83308100 		ld	ra,8(sp)
 505              		.cfi_restore 1
 506 02f0 03340100 		ld	s0,0(sp)
 507              		.cfi_restore 8
 508              		.cfi_def_cfa 2, 16
 509 02f4 13010101 		addi	sp,sp,16
 510              		.cfi_def_cfa_offset 0
 511 02f8 67800000 		jr	ra
 512              		.cfi_endproc
 513              	.LFE38:
 515              		.align	2
 516              		.globl	_ZN7kThread13threadWrapperEv
 518              	_ZN7kThread13threadWrapperEv:
 519              	.LFB37:
  44:src/kThread.cpp **** 
 520              		.loc 1 44 31 is_stmt 1
 521              		.cfi_startproc
 522 02fc 130101FF 		addi	sp,sp,-16
 523              		.cfi_def_cfa_offset 16
 524 0300 23341100 		sd	ra,8(sp)
 525 0304 23308100 		sd	s0,0(sp)
 526              		.cfi_offset 1, -8
 527              		.cfi_offset 8, -16
 528 0308 13040101 		addi	s0,sp,16
 529              		.cfi_def_cfa 8, 0
  46:src/kThread.cpp ****     running->body(running->arg);
 530              		.loc 1 46 5
  46:src/kThread.cpp ****     running->body(running->arg);
 531              		.loc 1 46 22 is_stmt 0
 532 030c 97000000 		call	_ZN5Riscv10popSppSpieEv@plt
 532      E7800000 
 533              	.LVL46:
  47:src/kThread.cpp ****     running->kThreadExit();
 534              		.loc 1 47 5 is_stmt 1
GAS LISTING /tmp/ccefayST.s 			page 13


  47:src/kThread.cpp ****     running->kThreadExit();
 535              		.loc 1 47 14 is_stmt 0
 536 0314 97070000 		ld	a5,.LANCHOR0
 536      83B70700 
 537 031c 03B78702 		ld	a4,40(a5)
  47:src/kThread.cpp ****     running->kThreadExit();
 538              		.loc 1 47 18
 539 0320 03B50703 		ld	a0,48(a5)
 540 0324 E7000700 		jalr	a4
 541              	.LVL47:
  48:src/kThread.cpp **** }
 542              		.loc 1 48 5 is_stmt 1
  48:src/kThread.cpp **** }
 543              		.loc 1 48 25 is_stmt 0
 544 0328 97000000 		call	_ZN7kThread11kThreadExitEv
 544      E7800000 
 545              	.LVL48:
  49:src/kThread.cpp **** 
 546              		.loc 1 49 1
 547 0330 83308100 		ld	ra,8(sp)
 548              		.cfi_restore 1
 549 0334 03340100 		ld	s0,0(sp)
 550              		.cfi_restore 8
 551              		.cfi_def_cfa 2, 16
 552 0338 13010101 		addi	sp,sp,16
 553              		.cfi_def_cfa_offset 0
 554 033c 67800000 		jr	ra
 555              		.cfi_endproc
 556              	.LFE37:
 558              		.globl	_ZN7kThread7runningE
 559              		.bss
 560              		.align	3
 561              		.set	.LANCHOR0,. + 0
 564              	_ZN7kThread7runningE:
 565 0000 00000000 		.zero	8
 565      00000000 
 566              		.text
 567              	.Letext0:
 568              		.file 3 "src/../h/../lib/hw.h"
 569              		.file 4 "src/../h/riscv.hpp"
 570              		.file 5 "src/../h/../h/kSemaphore.hpp"
 571              		.file 6 "src/../h/kScheduler.hpp"
 3489              		.align	3
 3492              	DW.ref.__gxx_personality_v0:
 3493 0000 00000000 		.dword	__gxx_personality_v0
 3493      00000000 
 3494              		.ident	"GCC: (Ubuntu 9.4.0-1ubuntu1~20.04) 9.4.0"
 3495              		.section	.note.GNU-stack,"",@progbits
GAS LISTING /tmp/ccefayST.s 			page 14


DEFINED SYMBOLS
                            *ABS*:0000000000000000 kThread.cpp
     /tmp/ccefayST.s:9      .text:0000000000000000 _ZN7kThreadC2EPFvPvES0_S0_
     /tmp/ccefayST.s:13     .text:0000000000000000 .L0 
     /tmp/ccefayST.s:15     .text:0000000000000000 .L0 
     /tmp/ccefayST.s:16     .text:0000000000000004 .L0 
     /tmp/ccefayST.s:20     .text:0000000000000010 .L0 
     /tmp/ccefayST.s:21     .text:0000000000000010 .L0 
     /tmp/ccefayST.s:22     .text:0000000000000010 .L0 
     /tmp/ccefayST.s:24     .text:0000000000000014 .L0 
     /tmp/ccefayST.s:28     .text:0000000000000018 .L0 
     /tmp/ccefayST.s:31     .text:0000000000000020 .L0 
     /tmp/ccefayST.s:33     .text:0000000000000024 .L0 
     /tmp/ccefayST.s:39     .text:0000000000000030 .L0 
     /tmp/ccefayST.s:41     .text:0000000000000034 .L0 
     /tmp/ccefayST.s:518    .text:00000000000002fc _ZN7kThread13threadWrapperEv
     /tmp/ccefayST.s:43     .text:0000000000000038 .L0 
     /tmp/ccefayST.s:46     .text:0000000000000040 .L0 
     /tmp/ccefayST.s:50     .text:000000000000004c .L0 
     /tmp/ccefayST.s:52     .text:0000000000000050 .L0 
     /tmp/ccefayST.s:53     .text:0000000000000050 .L0 
     /tmp/ccefayST.s:59     .text:000000000000005c .L0 
     /tmp/ccefayST.s:60     .text:000000000000005c .L0 
     /tmp/ccefayST.s:62     .text:0000000000000060 .L0 
     /tmp/ccefayST.s:63     .text:0000000000000060 .L0 
     /tmp/ccefayST.s:66     .text:0000000000000064 .L0 
     /tmp/ccefayST.s:67     .text:0000000000000068 .L0 
     /tmp/ccefayST.s:68     .text:0000000000000068 .L0 
     /tmp/ccefayST.s:70     .text:000000000000006c .L0 
     /tmp/ccefayST.s:71     .text:000000000000006c .L0 
     /tmp/ccefayST.s:73     .text:0000000000000070 .L0 
     /tmp/ccefayST.s:76     .text:0000000000000074 .L0 
     /tmp/ccefayST.s:80     .text:0000000000000078 .L0 
     /tmp/ccefayST.s:83     .text:0000000000000078 .L0 
     /tmp/ccefayST.s:88     .text:0000000000000080 .L0 
     /tmp/ccefayST.s:91     .text:0000000000000088 .L0 
     /tmp/ccefayST.s:9      .text:0000000000000000 _ZN7kThreadC1EPFvPvES0_S0_
     /tmp/ccefayST.s:99     .text:0000000000000088 _ZN7kThread13createProcessEPFvPvES0_S0_
     /tmp/ccefayST.s:102    .text:0000000000000088 .L0 
     /tmp/ccefayST.s:3492   .data.rel.local.DW.ref.__gxx_personality_v0:0000000000000000 DW.ref.__gxx_personality_v0
     /tmp/ccefayST.s:106    .text:0000000000000088 .L0 
     /tmp/ccefayST.s:107    .text:000000000000008c .L0 
     /tmp/ccefayST.s:114    .text:00000000000000a4 .L0 
     /tmp/ccefayST.s:115    .text:00000000000000a4 .L0 
     /tmp/ccefayST.s:116    .text:00000000000000a4 .L0 
     /tmp/ccefayST.s:117    .text:00000000000000a4 .L0 
     /tmp/ccefayST.s:118    .text:00000000000000a4 .L0 
     /tmp/ccefayST.s:119    .text:00000000000000a4 .L0 
     /tmp/ccefayST.s:121    .text:00000000000000a8 .L0 
     /tmp/ccefayST.s:126    .text:00000000000000b4 .L0 
     /tmp/ccefayST.s:127    .text:00000000000000b4 .L0 
     /tmp/ccefayST.s:155    .text:00000000000000f8 .L0 
     /tmp/ccefayST.s:157    .text:0000000000000100 .L0 
     /tmp/ccefayST.s:159    .text:0000000000000104 .L0 
     /tmp/ccefayST.s:160    .text:0000000000000104 .L0 
     /tmp/ccefayST.s:162    .text:0000000000000108 .L0 
     /tmp/ccefayST.s:164    .text:000000000000010c .L0 
GAS LISTING /tmp/ccefayST.s 			page 15


     /tmp/ccefayST.s:167    .text:0000000000000110 .L0 
     /tmp/ccefayST.s:170    .text:0000000000000114 .L0 
     /tmp/ccefayST.s:173    .text:0000000000000118 .L0 
     /tmp/ccefayST.s:175    .text:000000000000011c .L0 
     /tmp/ccefayST.s:201    .text:000000000000011c _ZN7kThread8dispatchEv
     /tmp/ccefayST.s:204    .text:000000000000011c .L0 
     /tmp/ccefayST.s:205    .text:000000000000011c .L0 
     /tmp/ccefayST.s:206    .text:0000000000000120 .L0 
     /tmp/ccefayST.s:210    .text:000000000000012c .L0 
     /tmp/ccefayST.s:211    .text:000000000000012c .L0 
     /tmp/ccefayST.s:212    .text:000000000000012c .L0 
     /tmp/ccefayST.s:214    .text:0000000000000130 .L0 
     /tmp/ccefayST.s:216    .text:0000000000000130 .L0 
     /tmp/ccefayST.s:217    .text:0000000000000130 .L0 
     /tmp/ccefayST.s:223    .text:0000000000000138 .L0 
     /tmp/ccefayST.s:224    .text:0000000000000138 .L0 
     /tmp/ccefayST.s:225    .text:0000000000000138 .L0 
     /tmp/ccefayST.s:230    .text:000000000000013c .L0 
     /tmp/ccefayST.s:233    .text:0000000000000140 .L0 
     /tmp/ccefayST.s:234    .text:0000000000000140 .L0 
     /tmp/ccefayST.s:237    .text:0000000000000148 .L0 
     /tmp/ccefayST.s:239    .text:0000000000000150 .L0 
     /tmp/ccefayST.s:240    .text:0000000000000150 .L0 
     /tmp/ccefayST.s:245    .text:0000000000000160 .L0 
     /tmp/ccefayST.s:246    .text:0000000000000164 .L0 
     /tmp/ccefayST.s:247    .text:0000000000000164 .L0 
     /tmp/ccefayST.s:249    .text:0000000000000168 .L0 
     /tmp/ccefayST.s:250    .text:0000000000000168 .L0 
     /tmp/ccefayST.s:252    .text:000000000000016c .L0 
     /tmp/ccefayST.s:255    .text:0000000000000170 .L0 
     /tmp/ccefayST.s:259    .text:0000000000000174 .L0 
     /tmp/ccefayST.s:261    .text:0000000000000174 .L0 
     /tmp/ccefayST.s:262    .text:0000000000000174 .L0 
     /tmp/ccefayST.s:266    .text:0000000000000184 .L0 
     /tmp/ccefayST.s:272    .text:0000000000000184 _ZN7kThread5yieldEv
     /tmp/ccefayST.s:275    .text:0000000000000184 .L0 
     /tmp/ccefayST.s:276    .text:0000000000000184 .L0 
     /tmp/ccefayST.s:277    .text:0000000000000188 .L0 
     /tmp/ccefayST.s:280    .text:0000000000000190 .L0 
     /tmp/ccefayST.s:281    .text:0000000000000190 .L0 
     /tmp/ccefayST.s:283    .text:0000000000000194 .L0 
     /tmp/ccefayST.s:285    .text:0000000000000194 .L0 
     /tmp/ccefayST.s:286    .text:0000000000000194 .L0 
     /tmp/ccefayST.s:289    .text:000000000000019c .L0 
     /tmp/ccefayST.s:290    .text:000000000000019c .L0 
     /tmp/ccefayST.s:293    .text:00000000000001a4 .L0 
     /tmp/ccefayST.s:294    .text:00000000000001a4 .L0 
     /tmp/ccefayST.s:297    .text:00000000000001ac .L0 
     /tmp/ccefayST.s:298    .text:00000000000001b0 .L0 
     /tmp/ccefayST.s:300    .text:00000000000001b4 .L0 
     /tmp/ccefayST.s:301    .text:00000000000001b4 .L0 
     /tmp/ccefayST.s:303    .text:00000000000001b8 .L0 
     /tmp/ccefayST.s:305    .text:00000000000001bc .L0 
     /tmp/ccefayST.s:311    .text:00000000000001bc _ZN7kThread11kThreadJoinEPS_
     /tmp/ccefayST.s:314    .text:00000000000001bc .L0 
     /tmp/ccefayST.s:316    .text:00000000000001bc .L0 
     /tmp/ccefayST.s:317    .text:00000000000001c0 .L0 
GAS LISTING /tmp/ccefayST.s 			page 16


     /tmp/ccefayST.s:322    .text:00000000000001d0 .L0 
     /tmp/ccefayST.s:323    .text:00000000000001d0 .L0 
     /tmp/ccefayST.s:324    .text:00000000000001d0 .L0 
     /tmp/ccefayST.s:325    .text:00000000000001d0 .L0 
     /tmp/ccefayST.s:327    .text:00000000000001d4 .L0 
     /tmp/ccefayST.s:329    .text:00000000000001d4 .L0 
     /tmp/ccefayST.s:330    .text:00000000000001d4 .L0 
     /tmp/ccefayST.s:334    .text:00000000000001e0 .L0 
     /tmp/ccefayST.s:335    .text:00000000000001e0 .L0 
     /tmp/ccefayST.s:339    .text:00000000000001ec .L0 
     /tmp/ccefayST.s:340    .text:00000000000001ec .L0 
     /tmp/ccefayST.s:343    .text:00000000000001f4 .L0 
     /tmp/ccefayST.s:345    .text:00000000000001f8 .L0 
     /tmp/ccefayST.s:346    .text:00000000000001f8 .L0 
     /tmp/ccefayST.s:351    .text:0000000000000208 .L0 
     /tmp/ccefayST.s:352    .text:000000000000020c .L0 
     /tmp/ccefayST.s:354    .text:0000000000000210 .L0 
     /tmp/ccefayST.s:355    .text:0000000000000210 .L0 
     /tmp/ccefayST.s:357    .text:0000000000000214 .L0 
     /tmp/ccefayST.s:360    .text:0000000000000218 .L0 
     /tmp/ccefayST.s:362    .text:000000000000021c .L0 
     /tmp/ccefayST.s:364    .text:0000000000000220 .L0 
     /tmp/ccefayST.s:370    .text:0000000000000220 _ZN7kThread6helperEPS_
     /tmp/ccefayST.s:373    .text:0000000000000220 .L0 
     /tmp/ccefayST.s:375    .text:0000000000000220 .L0 
     /tmp/ccefayST.s:376    .text:0000000000000224 .L0 
     /tmp/ccefayST.s:380    .text:0000000000000230 .L0 
     /tmp/ccefayST.s:381    .text:0000000000000230 .L0 
     /tmp/ccefayST.s:382    .text:0000000000000230 .L0 
     /tmp/ccefayST.s:384    .text:0000000000000234 .L0 
     /tmp/ccefayST.s:387    .text:0000000000000238 .L0 
     /tmp/ccefayST.s:388    .text:0000000000000238 .L0 
     /tmp/ccefayST.s:391    .text:0000000000000240 .L0 
     /tmp/ccefayST.s:392    .text:0000000000000240 .L0 
     /tmp/ccefayST.s:396    .text:000000000000024c .L0 
     /tmp/ccefayST.s:397    .text:000000000000024c .L0 
     /tmp/ccefayST.s:400    .text:0000000000000254 .L0 
     /tmp/ccefayST.s:401    .text:0000000000000258 .L0 
     /tmp/ccefayST.s:403    .text:000000000000025c .L0 
     /tmp/ccefayST.s:404    .text:000000000000025c .L0 
     /tmp/ccefayST.s:406    .text:0000000000000260 .L0 
     /tmp/ccefayST.s:409    .text:0000000000000264 .L0 
     /tmp/ccefayST.s:411    .text:0000000000000268 .L0 
     /tmp/ccefayST.s:417    .text:0000000000000268 _ZN7kThread16unblockSuspendedEv
     /tmp/ccefayST.s:420    .text:0000000000000268 .L0 
     /tmp/ccefayST.s:422    .text:0000000000000268 .L0 
     /tmp/ccefayST.s:423    .text:0000000000000268 .L0 
     /tmp/ccefayST.s:424    .text:0000000000000268 .L0 
     /tmp/ccefayST.s:425    .text:0000000000000268 .L0 
     /tmp/ccefayST.s:430    .text:0000000000000278 .L0 
     /tmp/ccefayST.s:431    .text:000000000000027c .L0 
     /tmp/ccefayST.s:434    .text:0000000000000284 .L0 
     /tmp/ccefayST.s:435    .text:0000000000000284 .L0 
     /tmp/ccefayST.s:437    .text:0000000000000288 .L0 
     /tmp/ccefayST.s:440    .text:0000000000000288 .L0 
     /tmp/ccefayST.s:441    .text:0000000000000288 .L0 
     /tmp/ccefayST.s:444    .text:0000000000000290 .L0 
GAS LISTING /tmp/ccefayST.s 			page 17


     /tmp/ccefayST.s:445    .text:0000000000000290 .L0 
     /tmp/ccefayST.s:448    .text:0000000000000298 .L0 
     /tmp/ccefayST.s:449    .text:0000000000000298 .L0 
     /tmp/ccefayST.s:450    .text:0000000000000298 .L0 
     /tmp/ccefayST.s:454    .text:00000000000002a8 .L0 
     /tmp/ccefayST.s:455    .text:00000000000002ac .L0 
     /tmp/ccefayST.s:457    .text:00000000000002b0 .L0 
     /tmp/ccefayST.s:458    .text:00000000000002b0 .L0 
     /tmp/ccefayST.s:460    .text:00000000000002b4 .L0 
     /tmp/ccefayST.s:464    .text:00000000000002bc .L0 
     /tmp/ccefayST.s:470    .text:00000000000002bc _ZN7kThread11kThreadExitEv
     /tmp/ccefayST.s:473    .text:00000000000002bc .L0 
     /tmp/ccefayST.s:474    .text:00000000000002bc .L0 
     /tmp/ccefayST.s:475    .text:00000000000002c0 .L0 
     /tmp/ccefayST.s:478    .text:00000000000002c8 .L0 
     /tmp/ccefayST.s:479    .text:00000000000002c8 .L0 
     /tmp/ccefayST.s:481    .text:00000000000002cc .L0 
     /tmp/ccefayST.s:483    .text:00000000000002cc .L0 
     /tmp/ccefayST.s:484    .text:00000000000002cc .L0 
     /tmp/ccefayST.s:489    .text:00000000000002d4 .L0 
     /tmp/ccefayST.s:490    .text:00000000000002d4 .L0 
     /tmp/ccefayST.s:496    .text:00000000000002dc .L0 
     /tmp/ccefayST.s:497    .text:00000000000002dc .L0 
     /tmp/ccefayST.s:500    .text:00000000000002e4 .L0 
     /tmp/ccefayST.s:501    .text:00000000000002e4 .L0 
     /tmp/ccefayST.s:504    .text:00000000000002ec .L0 
     /tmp/ccefayST.s:505    .text:00000000000002f0 .L0 
     /tmp/ccefayST.s:507    .text:00000000000002f4 .L0 
     /tmp/ccefayST.s:508    .text:00000000000002f4 .L0 
     /tmp/ccefayST.s:510    .text:00000000000002f8 .L0 
     /tmp/ccefayST.s:512    .text:00000000000002fc .L0 
     /tmp/ccefayST.s:521    .text:00000000000002fc .L0 
     /tmp/ccefayST.s:522    .text:00000000000002fc .L0 
     /tmp/ccefayST.s:523    .text:0000000000000300 .L0 
     /tmp/ccefayST.s:526    .text:0000000000000308 .L0 
     /tmp/ccefayST.s:527    .text:0000000000000308 .L0 
     /tmp/ccefayST.s:529    .text:000000000000030c .L0 
     /tmp/ccefayST.s:531    .text:000000000000030c .L0 
     /tmp/ccefayST.s:532    .text:000000000000030c .L0 
     /tmp/ccefayST.s:535    .text:0000000000000314 .L0 
     /tmp/ccefayST.s:536    .text:0000000000000314 .L0 
     /tmp/ccefayST.s:539    .text:0000000000000320 .L0 
     /tmp/ccefayST.s:543    .text:0000000000000328 .L0 
     /tmp/ccefayST.s:544    .text:0000000000000328 .L0 
     /tmp/ccefayST.s:547    .text:0000000000000330 .L0 
     /tmp/ccefayST.s:548    .text:0000000000000334 .L0 
     /tmp/ccefayST.s:550    .text:0000000000000338 .L0 
     /tmp/ccefayST.s:551    .text:0000000000000338 .L0 
     /tmp/ccefayST.s:553    .text:000000000000033c .L0 
     /tmp/ccefayST.s:555    .text:0000000000000340 .L0 
     /tmp/ccefayST.s:564    .bss:0000000000000000 _ZN7kThread7runningE
     /tmp/ccefayST.s:561    .bss:0000000000000000 .LANCHOR0
     /tmp/ccefayST.s:572    .text:0000000000000340 .L0 
     /tmp/ccefayST.s:43     .text:0000000000000038 .L0 
     /tmp/ccefayST.s:217    .text:0000000000000130 .L0 
     /tmp/ccefayST.s:237    .text:0000000000000148 .L0 
     /tmp/ccefayST.s:330    .text:00000000000001d4 .L0 
GAS LISTING /tmp/ccefayST.s 			page 18


     /tmp/ccefayST.s:425    .text:0000000000000268 .L0 
     /tmp/ccefayST.s:450    .text:0000000000000298 .L0 
     /tmp/ccefayST.s:484    .text:00000000000002cc .L0 
     /tmp/ccefayST.s:536    .text:0000000000000314 .L0 
     /tmp/ccefayST.s:79     .text:0000000000000078 .L6
     /tmp/ccefayST.s:86     .text:0000000000000080 .L7
     /tmp/ccefayST.s:57     .text:000000000000005c .L5
     /tmp/ccefayST.s:37     .text:0000000000000030 .L2
     /tmp/ccefayST.s:44     .text:0000000000000040 .L3
     /tmp/ccefayST.s:153    .text:00000000000000f8 .L15
     /tmp/ccefayST.s:258    .text:0000000000000174 .L19
     /tmp/ccefayST.s:231    .text:0000000000000140 .L17
     /tmp/ccefayST.s:462    .text:00000000000002b8 .L34
     /tmp/ccefayST.s:438    .text:0000000000000288 .L31
     /tmp/ccefayST.s:129    .text:00000000000000b8 .LEHB0
     /tmp/ccefayST.s:100    .text:0000000000000088 .LFB34
     /tmp/ccefayST.s:132    .text:00000000000000c0 .LEHE0
     /tmp/ccefayST.s:137    .text:00000000000000d0 .LEHB1
     /tmp/ccefayST.s:140    .text:00000000000000d8 .LEHE1
     /tmp/ccefayST.s:142    .text:00000000000000dc .L12
     /tmp/ccefayST.s:149    .text:00000000000000f0 .LEHB2
     /tmp/ccefayST.s:152    .text:00000000000000f8 .LEHE2
     /tmp/ccefayST.s:1967   .debug_abbrev:0000000000000000 .Ldebug_abbrev0
     /tmp/ccefayST.s:3426   .debug_str:00000000000008b6 .LASF158
     /tmp/ccefayST.s:3442   .debug_str:0000000000000a02 .LASF159
     /tmp/ccefayST.s:3480   .debug_str:0000000000000b7a .LASF160
     /tmp/ccefayST.s:5      .text:0000000000000000 .Ltext0
     /tmp/ccefayST.s:567    .text:0000000000000340 .Letext0
     /tmp/ccefayST.s:3152   .debug_line:0000000000000000 .Ldebug_line0
     /tmp/ccefayST.s:3340   .debug_str:00000000000005de .LASF0
     /tmp/ccefayST.s:3360   .debug_str:0000000000000681 .LASF1
     /tmp/ccefayST.s:3318   .debug_str:000000000000052b .LASF2
     /tmp/ccefayST.s:3282   .debug_str:0000000000000426 .LASF4
     /tmp/ccefayST.s:3404   .debug_str:00000000000007fb .LASF3
     /tmp/ccefayST.s:3186   .debug_str:000000000000010a .LASF5
     /tmp/ccefayST.s:3364   .debug_str:00000000000006aa .LASF6
     /tmp/ccefayST.s:3338   .debug_str:00000000000005cb .LASF7
     /tmp/ccefayST.s:3440   .debug_str:00000000000009f2 .LASF8
     /tmp/ccefayST.s:3264   .debug_str:000000000000037e .LASF9
     /tmp/ccefayST.s:3378   .debug_str:0000000000000724 .LASF10
     /tmp/ccefayST.s:3430   .debug_str:0000000000000982 .LASF11
     /tmp/ccefayST.s:3190   .debug_str:0000000000000119 .LASF12
     /tmp/ccefayST.s:3162   .debug_str:000000000000004f .LASF13
     /tmp/ccefayST.s:3210   .debug_str:00000000000001ce .LASF14
     /tmp/ccefayST.s:3398   .debug_str:00000000000007c7 .LASF15
     /tmp/ccefayST.s:3226   .debug_str:0000000000000251 .LASF16
     /tmp/ccefayST.s:3358   .debug_str:0000000000000679 .LASF47
     /tmp/ccefayST.s:3168   .debug_str:000000000000007d .LASF161
     /tmp/ccefayST.s:3178   .debug_str:00000000000000e2 .LASF17
     /tmp/ccefayST.s:3366   .debug_str:00000000000006bd .LASF19
     /tmp/ccefayST.s:3368   .debug_str:00000000000006cd .LASF108
     /tmp/ccefayST.s:3438   .debug_str:00000000000009d7 .LASF110
     /tmp/ccefayST.s:3320   .debug_str:0000000000000539 .LASF18
     /tmp/ccefayST.s:3194   .debug_str:000000000000012e .LASF20
     /tmp/ccefayST.s:3392   .debug_str:00000000000007a4 .LASF21
     /tmp/ccefayST.s:3458   .debug_str:0000000000000aa5 .LASF22
     /tmp/ccefayST.s:3390   .debug_str:000000000000079f .LASF162
GAS LISTING /tmp/ccefayST.s 			page 19


     /tmp/ccefayST.s:3400   .debug_str:00000000000007dd .LASF49
     /tmp/ccefayST.s:3160   .debug_str:000000000000003b .LASF51
     /tmp/ccefayST.s:3244   .debug_str:00000000000002f0 .LASF163
     /tmp/ccefayST.s:3380   .debug_str:0000000000000733 .LASF23
     /tmp/ccefayST.s:3316   .debug_str:0000000000000517 .LASF24
     /tmp/ccefayST.s:3362   .debug_str:0000000000000694 .LASF25
     /tmp/ccefayST.s:3216   .debug_str:0000000000000204 .LASF26
     /tmp/ccefayST.s:3218   .debug_str:0000000000000212 .LASF27
     /tmp/ccefayST.s:3232   .debug_str:0000000000000288 .LASF60
     /tmp/ccefayST.s:3288   .debug_str:0000000000000444 .LASF28
     /tmp/ccefayST.s:3276   .debug_str:00000000000003ef .LASF29
     /tmp/ccefayST.s:3292   .debug_str:0000000000000454 .LASF30
     /tmp/ccefayST.s:3286   .debug_str:000000000000043b .LASF31
     /tmp/ccefayST.s:3448   .debug_str:0000000000000a48 .LASF38
     /tmp/ccefayST.s:3334   .debug_str:0000000000000599 .LASF40
     /tmp/ccefayST.s:3310   .debug_str:00000000000004e1 .LASF32
     /tmp/ccefayST.s:3382   .debug_str:0000000000000745 .LASF34
     /tmp/ccefayST.s:3344   .debug_str:00000000000005f2 .LASF33
     /tmp/ccefayST.s:3416   .debug_str:0000000000000866 .LASF35
     /tmp/ccefayST.s:3376   .debug_str:0000000000000718 .LASF36
     /tmp/ccefayST.s:3214   .debug_str:00000000000001e9 .LASF37
     /tmp/ccefayST.s:3474   .debug_str:0000000000000b5b .LASF39
     /tmp/ccefayST.s:3198   .debug_str:0000000000000158 .LASF41
     /tmp/ccefayST.s:3312   .debug_str:00000000000004ef .LASF42
     /tmp/ccefayST.s:3468   .debug_str:0000000000000b06 .LASF43
     /tmp/ccefayST.s:3308   .debug_str:00000000000004d0 .LASF44
     /tmp/ccefayST.s:3384   .debug_str:0000000000000762 .LASF45
     /tmp/ccefayST.s:3252   .debug_str:0000000000000326 .LASF46
     /tmp/ccefayST.s:3356   .debug_str:0000000000000673 .LASF48
     /tmp/ccefayST.s:3394   .debug_str:00000000000007b2 .LASF50
     /tmp/ccefayST.s:3464   .debug_str:0000000000000ae5 .LASF52
     /tmp/ccefayST.s:3180   .debug_str:00000000000000eb .LASF53
     /tmp/ccefayST.s:3242   .debug_str:00000000000002d5 .LASF54
     /tmp/ccefayST.s:3418   .debug_str:000000000000087d .LASF55
     /tmp/ccefayST.s:3278   .debug_str:00000000000003f5 .LASF56
     /tmp/ccefayST.s:3408   .debug_str:0000000000000814 .LASF57
     /tmp/ccefayST.s:3200   .debug_str:0000000000000175 .LASF58
     /tmp/ccefayST.s:3164   .debug_str:000000000000005f .LASF62
     /tmp/ccefayST.s:3246   .debug_str:00000000000002f8 .LASF64
     /tmp/ccefayST.s:3238   .debug_str:00000000000002bd .LASF59
     /tmp/ccefayST.s:3236   .debug_str:00000000000002a8 .LASF61
     /tmp/ccefayST.s:3406   .debug_str:000000000000080d .LASF63
     /tmp/ccefayST.s:3386   .debug_str:0000000000000782 .LASF65
     /tmp/ccefayST.s:3424   .debug_str:00000000000008af .LASF66
     /tmp/ccefayST.s:3420   .debug_str:000000000000088a .LASF67
     /tmp/ccefayST.s:3256   .debug_str:000000000000033e .LASF68
     /tmp/ccefayST.s:3228   .debug_str:0000000000000267 .LASF69
     /tmp/ccefayST.s:3158   .debug_str:0000000000000033 .LASF70
     /tmp/ccefayST.s:3270   .debug_str:00000000000003ae .LASF71
     /tmp/ccefayST.s:3184   .debug_str:0000000000000102 .LASF72
     /tmp/ccefayST.s:3450   .debug_str:0000000000000a56 .LASF73
     /tmp/ccefayST.s:3478   .debug_str:0000000000000b72 .LASF74
     /tmp/ccefayST.s:3248   .debug_str:000000000000030d .LASF75
     /tmp/ccefayST.s:3342   .debug_str:00000000000005eb .LASF76
     /tmp/ccefayST.s:3460   .debug_str:0000000000000acd .LASF77
     /tmp/ccefayST.s:3436   .debug_str:00000000000009d0 .LASF78
     /tmp/ccefayST.s:3254   .debug_str:000000000000032b .LASF79
GAS LISTING /tmp/ccefayST.s 			page 20


     /tmp/ccefayST.s:3258   .debug_str:0000000000000346 .LASF80
     /tmp/ccefayST.s:3422   .debug_str:000000000000089d .LASF81
     /tmp/ccefayST.s:3176   .debug_str:00000000000000dc .LASF82
     /tmp/ccefayST.s:3484   .debug_str:0000000000000ba3 .LASF83
     /tmp/ccefayST.s:3476   .debug_str:0000000000000b67 .LASF84
     /tmp/ccefayST.s:3402   .debug_str:00000000000007e3 .LASF85
     /tmp/ccefayST.s:3290   .debug_str:0000000000000449 .LASF86
     /tmp/ccefayST.s:3302   .debug_str:000000000000049c .LASF87
     /tmp/ccefayST.s:3208   .debug_str:00000000000001c4 .LASF88
     /tmp/ccefayST.s:3306   .debug_str:00000000000004ba .LASF89
     /tmp/ccefayST.s:3326   .debug_str:0000000000000575 .LASF90
     /tmp/ccefayST.s:3268   .debug_str:0000000000000398 .LASF91
     /tmp/ccefayST.s:3346   .debug_str:00000000000005fb .LASF92
     /tmp/ccefayST.s:3472   .debug_str:0000000000000b40 .LASF93
     /tmp/ccefayST.s:3166   .debug_str:0000000000000068 .LASF94
     /tmp/ccefayST.s:3372   .debug_str:00000000000006df .LASF95
     /tmp/ccefayST.s:3414   .debug_str:000000000000084f .LASF96
     /tmp/ccefayST.s:3172   .debug_str:00000000000000ad .LASF97
     /tmp/ccefayST.s:3240   .debug_str:00000000000002c6 .LASF98
     /tmp/ccefayST.s:3412   .debug_str:0000000000000833 .LASF99
     /tmp/ccefayST.s:3354   .debug_str:0000000000000668 .LASF100
     /tmp/ccefayST.s:3204   .debug_str:0000000000000197 .LASF101
     /tmp/ccefayST.s:3266   .debug_str:000000000000038c .LASF102
     /tmp/ccefayST.s:3300   .debug_str:0000000000000488 .LASF103
     /tmp/ccefayST.s:3250   .debug_str:0000000000000321 .LASF104
     /tmp/ccefayST.s:3206   .debug_str:00000000000001ab .LASF105
     /tmp/ccefayST.s:3370   .debug_str:00000000000006d8 .LASF106
     /tmp/ccefayST.s:3452   .debug_str:0000000000000a6a .LASF107
     /tmp/ccefayST.s:3328   .debug_str:000000000000057f .LASF109
     /tmp/ccefayST.s:3350   .debug_str:0000000000000623 .LASF111
     /tmp/ccefayST.s:3284   .debug_str:000000000000042d .LASF112
     /tmp/ccefayST.s:3314   .debug_str:00000000000004f6 .LASF113
     /tmp/ccefayST.s:3196   .debug_str:0000000000000149 .LASF114
     /tmp/ccefayST.s:3322   .debug_str:0000000000000545 .LASF115
     /tmp/ccefayST.s:3222   .debug_str:000000000000022d .LASF116
     /tmp/ccefayST.s:3456   .debug_str:0000000000000a99 .LASF117
     /tmp/ccefayST.s:3202   .debug_str:0000000000000191 .LASF118
     /tmp/ccefayST.s:3336   .debug_str:00000000000005c5 .LASF119
     /tmp/ccefayST.s:3272   .debug_str:00000000000003c2 .LASF120
     /tmp/ccefayST.s:3188   .debug_str:0000000000000111 .LASF121
     /tmp/ccefayST.s:3348   .debug_str:0000000000000609 .LASF122
     /tmp/ccefayST.s:3174   .debug_str:00000000000000d1 .LASF123
     /tmp/ccefayST.s:3454   .debug_str:0000000000000a85 .LASF124
     /tmp/ccefayST.s:3324   .debug_str:0000000000000569 .LASF125
     /tmp/ccefayST.s:3296   .debug_str:0000000000000467 .LASF126
     /tmp/ccefayST.s:3280   .debug_str:000000000000040f .LASF127
     /tmp/ccefayST.s:3332   .debug_str:000000000000058f .LASF128
     /tmp/ccefayST.s:3374   .debug_str:0000000000000701 .LASF129
     /tmp/ccefayST.s:3388   .debug_str:0000000000000795 .LASF130
     /tmp/ccefayST.s:3396   .debug_str:00000000000007bd .LASF131
     /tmp/ccefayST.s:3428   .debug_str:000000000000097a .LASF132
     /tmp/ccefayST.s:3466   .debug_str:0000000000000afd .LASF133
     /tmp/ccefayST.s:3156   .debug_str:0000000000000018 .LASF134
     /tmp/ccefayST.s:3182   .debug_str:00000000000000f9 .LASF135
     /tmp/ccefayST.s:3470   .debug_str:0000000000000b1d .LASF136
     /tmp/ccefayST.s:3446   .debug_str:0000000000000a3d .LASF137
     /tmp/ccefayST.s:3352   .debug_str:000000000000063e .LASF138
GAS LISTING /tmp/ccefayST.s 			page 21


     /tmp/ccefayST.s:3294   .debug_str:000000000000045c .LASF139
     /tmp/ccefayST.s:3432   .debug_str:0000000000000991 .LASF140
     /tmp/ccefayST.s:3220   .debug_str:0000000000000220 .LASF141
     /tmp/ccefayST.s:3170   .debug_str:0000000000000085 .LASF142
     /tmp/ccefayST.s:3298   .debug_str:000000000000047b .LASF143
     /tmp/ccefayST.s:3444   .debug_str:0000000000000a12 .LASF144
     /tmp/ccefayST.s:3234   .debug_str:00000000000002a3 .LASF145
     /tmp/ccefayST.s:3154   .debug_str:0000000000000000 .LASF146
     /tmp/ccefayST.s:3482   .debug_str:0000000000000b9e .LASF147
     /tmp/ccefayST.s:3262   .debug_str:0000000000000367 .LASF148
     /tmp/ccefayST.s:3274   .debug_str:00000000000003da .LASF164
     /tmp/ccefayST.s:418    .text:0000000000000268 .LFB41
     /tmp/ccefayST.s:465    .text:00000000000002bc .LFE41
     /tmp/ccefayST.s:3462   .debug_str:0000000000000ae0 .LASF151
     /tmp/ccefayST.s:2898   .debug_loc:0000000000000000 .LLST12
     /tmp/ccefayST.s:2912   .debug_loc:0000000000000039 .LLST13
     /tmp/ccefayST.s:442    .text:0000000000000290 .LVL40
     /tmp/ccefayST.s:446    .text:0000000000000298 .LVL41
     /tmp/ccefayST.s:312    .text:00000000000001bc .LFB40
     /tmp/ccefayST.s:365    .text:0000000000000220 .LFE40
     /tmp/ccefayST.s:2919   .debug_loc:000000000000005c .LLST9
     /tmp/ccefayST.s:2933   .debug_loc:0000000000000095 .LLST10
     /tmp/ccefayST.s:337    .text:00000000000001ec .LVL29
     /tmp/ccefayST.s:341    .text:00000000000001f4 .LVL30
     /tmp/ccefayST.s:349    .text:0000000000000208 .LVL31
     /tmp/ccefayST.s:371    .text:0000000000000220 .LFB39
     /tmp/ccefayST.s:412    .text:0000000000000268 .LFE39
     /tmp/ccefayST.s:2940   .debug_loc:00000000000000b8 .LLST11
     /tmp/ccefayST.s:389    .text:0000000000000240 .LVL34
     /tmp/ccefayST.s:394    .text:000000000000024c .LVL35
     /tmp/ccefayST.s:398    .text:0000000000000254 .LVL36
     /tmp/ccefayST.s:471    .text:00000000000002bc .LFB38
     /tmp/ccefayST.s:513    .text:00000000000002fc .LFE38
     /tmp/ccefayST.s:486    .text:00000000000002d4 .LBB10
     /tmp/ccefayST.s:494    .text:00000000000002dc .LBE10
     /tmp/ccefayST.s:2958   .debug_loc:0000000000000104 .LLST14
     /tmp/ccefayST.s:2966   .debug_loc:0000000000000128 .LLST15
     /tmp/ccefayST.s:498    .text:00000000000002e4 .LVL44
     /tmp/ccefayST.s:502    .text:00000000000002ec .LVL45
     /tmp/ccefayST.s:519    .text:00000000000002fc .LFB37
     /tmp/ccefayST.s:556    .text:0000000000000340 .LFE37
     /tmp/ccefayST.s:533    .text:0000000000000314 .LVL46
     /tmp/ccefayST.s:545    .text:0000000000000330 .LVL48
     /tmp/ccefayST.s:202    .text:000000000000011c .LFB36
     /tmp/ccefayST.s:267    .text:0000000000000184 .LFE36
     /tmp/ccefayST.s:2973   .debug_loc:000000000000014b .LLST7
     /tmp/ccefayST.s:220    .text:0000000000000138 .LBB8
     /tmp/ccefayST.s:228    .text:000000000000013c .LBE8
     /tmp/ccefayST.s:2984   .debug_loc:0000000000000181 .LLST8
     /tmp/ccefayST.s:235    .text:0000000000000148 .LVL19
     /tmp/ccefayST.s:243    .text:0000000000000160 .LVL20
     /tmp/ccefayST.s:264    .text:0000000000000180 .LVL23
     /tmp/ccefayST.s:273    .text:0000000000000184 .LFB35
     /tmp/ccefayST.s:306    .text:00000000000001bc .LFE35
     /tmp/ccefayST.s:287    .text:000000000000019c .LVL24
     /tmp/ccefayST.s:291    .text:00000000000001a4 .LVL25
     /tmp/ccefayST.s:295    .text:00000000000001ac .LVL26
GAS LISTING /tmp/ccefayST.s 			page 22


     /tmp/ccefayST.s:176    .text:000000000000011c .LFE34
     /tmp/ccefayST.s:2991   .debug_loc:00000000000001a4 .LLST4
     /tmp/ccefayST.s:3192   .debug_str:0000000000000129 .LASF149
     /tmp/ccefayST.s:3020   .debug_loc:0000000000000219 .LLST5
     /tmp/ccefayST.s:3434   .debug_str:00000000000009c4 .LASF150
     /tmp/ccefayST.s:3038   .debug_loc:0000000000000265 .LLST6
     /tmp/ccefayST.s:131    .text:00000000000000c0 .LVL9
     /tmp/ccefayST.s:139    .text:00000000000000d8 .LVL10
     /tmp/ccefayST.s:147    .text:00000000000000ec .LVL12
     /tmp/ccefayST.s:151    .text:00000000000000f8 .LVL13
     /tmp/ccefayST.s:3260   .debug_str:000000000000034c .LASF165
     /tmp/ccefayST.s:10     .text:0000000000000000 .LFB32
     /tmp/ccefayST.s:92     .text:0000000000000088 .LFE32
     /tmp/ccefayST.s:3056   .debug_loc:00000000000002b1 .LLST0
     /tmp/ccefayST.s:3078   .debug_loc:0000000000000310 .LLST1
     /tmp/ccefayST.s:3096   .debug_loc:000000000000035c .LLST2
     /tmp/ccefayST.s:3114   .debug_loc:00000000000003a8 .LLST3
     /tmp/ccefayST.s:56     .text:000000000000005c .LVL3
     /tmp/ccefayST.s:3304   .debug_str:00000000000004b4 .LASF152
     /tmp/ccefayST.s:3230   .debug_str:000000000000027b .LASF154
     /tmp/ccefayST.s:3330   .debug_str:0000000000000588 .LASF153
     /tmp/ccefayST.s:3410   .debug_str:0000000000000823 .LASF155
     /tmp/ccefayST.s:3212   .debug_str:00000000000001da .LASF156
     /tmp/ccefayST.s:3224   .debug_str:0000000000000239 .LASF157
     /tmp/ccefayST.s:421    .text:0000000000000268 .LVL38
     /tmp/ccefayST.s:426    .text:0000000000000270 .LVL39
     /tmp/ccefayST.s:315    .text:00000000000001bc .LVL27
     /tmp/ccefayST.s:332    .text:00000000000001e0 .LVL28
     /tmp/ccefayST.s:358    .text:0000000000000214 .LVL32
     /tmp/ccefayST.s:374    .text:0000000000000220 .LVL33
     /tmp/ccefayST.s:407    .text:0000000000000260 .LVL37
     /tmp/ccefayST.s:485    .text:00000000000002d4 .LVL42
     /tmp/ccefayST.s:492    .text:00000000000002dc .LVL43
     /tmp/ccefayST.s:218    .text:0000000000000138 .LVL17
     /tmp/ccefayST.s:253    .text:000000000000016c .LVL21
     /tmp/ccefayST.s:257    .text:0000000000000174 .LVL22
     /tmp/ccefayST.s:226    .text:000000000000013c .LVL18
     /tmp/ccefayST.s:105    .text:0000000000000088 .LVL7
     /tmp/ccefayST.s:128    .text:00000000000000b8 .LVL8
     /tmp/ccefayST.s:144    .text:00000000000000e0 .LVL11
     /tmp/ccefayST.s:165    .text:000000000000010c .LVL14
     /tmp/ccefayST.s:168    .text:0000000000000110 .LVL15
     /tmp/ccefayST.s:171    .text:0000000000000114 .LVL16
     /tmp/ccefayST.s:14     .text:0000000000000000 .LVL0
     /tmp/ccefayST.s:54     .text:0000000000000054 .LVL2
     /tmp/ccefayST.s:74     .text:0000000000000070 .LVL4
     /tmp/ccefayST.s:78     .text:0000000000000078 .LVL5
     /tmp/ccefayST.s:36     .text:0000000000000030 .LVL1
     /tmp/ccefayST.s:84     .text:000000000000007c .LVL6
     /tmp/ccefayST.s:573    .debug_info:0000000000000000 .Ldebug_info0
     /tmp/ccefayST.s:179    .gcc_except_table:0000000000000000 .LLSDA34

UNDEFINED SYMBOLS
_ZN10kScheduler8putReadyEP7kThread
_Znwm
_ZdlPv
_Unwind_Resume
GAS LISTING /tmp/ccefayST.s 			page 23


__gxx_personality_v0
_ZN10kScheduler8getReadyEv
_ZN7kThread13contextSwitchEPNS_7ContextES1_
_ZN5Riscv13pushRegistersEv
_ZN5Riscv12popRegistersEv
_ZN10kScheduler12putSuspendedEP7kThreadS1_
_ZN10kScheduler12getSuspendedEP7kThread
_ZN5Riscv10popSppSpieEv
