GAS LISTING /tmp/ccUPg65X.s 			page 1


   1              		.file	"main.cpp"
   2              		.option pic
   3              		.option norelax
   4              		.text
   5              	.Ltext0:
   6              		.section	.rodata.str1.8,"aMS",@progbits,1
   7              		.align	3
   8              	.LC0:
   9 0000 0A00     		.string	"\n"
  10 0002 00000000 		.align	3
  10      0000
  11              	.LC1:
  12 0008 4D61696E 		.string	"Main exit\n"
  12      20657869 
  12      740A00
  13              		.text
  14              		.align	2
  15              		.globl	main
  17              	main:
  18              	.LFB21:
  19              		.file 1 "src/main.cpp"
   1:src/main.cpp  **** //
   2:src/main.cpp  **** // Created by marko on 20.4.22..
   3:src/main.cpp  **** //
   4:src/main.cpp  **** 
   5:src/main.cpp  **** //#include "../h/ccb.hpp"
   6:src/main.cpp  **** #include "../h/print.hpp"
   7:src/main.cpp  **** #include "../h/riscv.hpp"
   8:src/main.cpp  **** #include "../h/syscall_c.hpp"
   9:src/main.cpp  **** #include "../h/kThread.hpp"
  10:src/main.cpp  **** #include "../h/workers.hpp"
  11:src/main.cpp  **** 
  12:src/main.cpp  **** extern "C" { extern int __supervisorTrap;}
  13:src/main.cpp  **** 
  14:src/main.cpp  **** int main()
  15:src/main.cpp  **** {
  20              		.loc 1 15 1
  21              		.cfi_startproc
  22 0000 130101FC 		addi	sp,sp,-64
  23              		.cfi_def_cfa_offset 64
  24 0004 233C1102 		sd	ra,56(sp)
  25 0008 23388102 		sd	s0,48(sp)
  26 000c 23349102 		sd	s1,40(sp)
  27 0010 23302103 		sd	s2,32(sp)
  28              		.cfi_offset 1, -8
  29              		.cfi_offset 8, -16
  30              		.cfi_offset 9, -24
  31              		.cfi_offset 18, -32
  32 0014 13040104 		addi	s0,sp,64
  33              		.cfi_def_cfa 8, 0
  16:src/main.cpp  **** 
  17:src/main.cpp  **** 
  18:src/main.cpp  ****    __asm__ volatile ("csrw stvec, %0 ": : "r" ((uint64)&__supervisorTrap | 1));
  34              		.loc 1 18 4
  35              		.loc 1 18 74 is_stmt 0
  36 0018 97070000 		la	a5,__supervisorTrap
  36      83B70700 
GAS LISTING /tmp/ccUPg65X.s 			page 2


  37 0020 93E71700 		ori	a5,a5,1
  38              		.loc 1 18 79
  39              	#APP
  40              	# 18 "src/main.cpp" 1
  19              	    //Riscv::ms_sstatus(Riscv::SSTATUS_SIE); jel ovo za timer
  20:src/main.cpp  ****     //__asm__ volatile  ("ecall");
  21:src/main.cpp  **** 
  22:src/main.cpp  **** //      int ret = -1;
  23:src/main.cpp  **** //    thread_t handleT = nullptr;
  24:src/main.cpp  **** //    sem_t handleS = nullptr;
  25:src/main.cpp  **** //    sem_t id = nullptr;
  26:src/main.cpp  **** //    unsigned int init = 0;
  27:src/main.cpp  **** //    unsigned  long time_t = 0;
  28:src/main.cpp  **** //    char c = '0';
  29:src/main.cpp  **** //
  30:src/main.cpp  ****     //printInteger(-120);
  31:src/main.cpp  **** //    int  ret = test(1,2,3,4);
  32:src/main.cpp  **** //    printInteger(ret);
  33:src/main.cpp  **** //    printString(" test done\n");
  34:src/main.cpp  **** 
  35:src/main.cpp  **** //    uint64  size = 4096;
  36:src/main.cpp  **** //    void* ptrA = mem_alloc(size);
  37:src/main.cpp  **** //    uint64 intPtr = (uint64)(&ptrA);
  38:src/main.cpp  **** //    printHex(intPtr);
  39:src/main.cpp  **** //    printString(" mem_alloc done\n");
  40:src/main.cpp  **** //
  41:src/main.cpp  **** //    void* ptrB = mem_alloc(size);
  42:src/main.cpp  **** //    intPtr = (uint64)(&ptrB);
  43:src/main.cpp  **** //    printHex(intPtr);
  44:src/main.cpp  **** //    printString(" mem_alloc done\n");
  45:src/main.cpp  **** //
  46:src/main.cpp  **** ////    ret = mem_free(ptr);
  47:src/main.cpp  **** ////    printInteger(ret);
  48:src/main.cpp  **** ////    printString(" mem_free done\n");
  49:src/main.cpp  **** 
  50:src/main.cpp  ****     kThread* threads[3];
  41              		csrw stvec, a5 
  42              	# 0 "" 2
  43              		.loc 1 50 5 is_stmt 1
  51:src/main.cpp  **** 
  52:src/main.cpp  ****     int retMain = thread_create(&threads[0], nullptr, nullptr);
  44              		.loc 1 52 5
  45              		.loc 1 52 32 is_stmt 0
  46              	#NO_APP
  47 0028 13060000 		li	a2,0
  48 002c 93050000 		li	a1,0
  49 0030 130584FC 		addi	a0,s0,-56
  50 0034 97000000 		call	_Z13thread_createPP7kThreadPFvPvES2_@plt
  50      E7800000 
  51              	.LVL0:
  53:src/main.cpp  ****     printInteger(retMain);
  52              		.loc 1 53 5 is_stmt 1
  53              		.loc 1 53 17 is_stmt 0
  54 003c 97000000 		call	_Z12printIntegerm@plt
  54      E7800000 
  55              	.LVL1:
  54:src/main.cpp  ****     printString("\n");
GAS LISTING /tmp/ccUPg65X.s 			page 3


  56              		.loc 1 54 5 is_stmt 1
  57              		.loc 1 54 16 is_stmt 0
  58 0044 17050000 		lla	a0,.LC0
  58      13050500 
  59 004c 97000000 		call	_Z11printStringPKc@plt
  59      E7800000 
  60              	.LVL2:
  55:src/main.cpp  ****     kThread::running = threads[0];
  61              		.loc 1 55 5 is_stmt 1
  62              		.loc 1 55 22 is_stmt 0
  63 0054 033784FC 		ld	a4,-56(s0)
  64 0058 97070000 		la	a5,_ZN7kThread7runningE
  64      83B70700 
  65 0060 23B0E700 		sd	a4,0(a5)
  56:src/main.cpp  **** 
  57:src/main.cpp  ****     int retA = thread_create(&threads[1], workerBodyA, nullptr);
  66              		.loc 1 57 5 is_stmt 1
  67              		.loc 1 57 29 is_stmt 0
  68 0064 13060000 		li	a2,0
  69 0068 97050000 		la	a1,_Z11workerBodyAPv
  69      83B50500 
  70 0070 130504FD 		addi	a0,s0,-48
  71 0074 97000000 		call	_Z13thread_createPP7kThreadPFvPvES2_@plt
  71      E7800000 
  72              	.LVL3:
  58:src/main.cpp  ****     printInteger(retA);
  73              		.loc 1 58 5 is_stmt 1
  74              		.loc 1 58 17 is_stmt 0
  75 007c 97000000 		call	_Z12printIntegerm@plt
  75      E7800000 
  76              	.LVL4:
  59:src/main.cpp  ****     printString("\n");
  77              		.loc 1 59 5 is_stmt 1
  78              		.loc 1 59 16 is_stmt 0
  79 0084 17050000 		lla	a0,.LC0
  79      13050500 
  80 008c 97000000 		call	_Z11printStringPKc@plt
  80      E7800000 
  81              	.LVL5:
  60:src/main.cpp  ****     int retB = thread_create(&threads[2], workerBodyB, nullptr);
  82              		.loc 1 60 5 is_stmt 1
  83              		.loc 1 60 29 is_stmt 0
  84 0094 13060000 		li	a2,0
  85 0098 97050000 		la	a1,_Z11workerBodyBPv
  85      83B50500 
  86 00a0 130584FD 		addi	a0,s0,-40
  87 00a4 97000000 		call	_Z13thread_createPP7kThreadPFvPvES2_@plt
  87      E7800000 
  88              	.LVL6:
  61:src/main.cpp  ****     printInteger(retB);
  89              		.loc 1 61 5 is_stmt 1
  90              		.loc 1 61 17 is_stmt 0
  91 00ac 97000000 		call	_Z12printIntegerm@plt
  91      E7800000 
  92              	.LVL7:
  62:src/main.cpp  ****     printString("\n");
  93              		.loc 1 62 5 is_stmt 1
GAS LISTING /tmp/ccUPg65X.s 			page 4


  94              		.loc 1 62 16 is_stmt 0
  95 00b4 17050000 		lla	a0,.LC0
  95      13050500 
  96 00bc 97000000 		call	_Z11printStringPKc@plt
  96      E7800000 
  97              	.LVL8:
  98 00c4 6F00C000 		j	.L4
  99              	.L2:
  63:src/main.cpp  **** 
  64:src/main.cpp  **** ////     kThread* threads[3];
  65:src/main.cpp  **** ////    threads[0] = kThread::createProcess(nullptr,nullptr,nullptr);
  66:src/main.cpp  **** ////    kThread::running = threads[0];
  67:src/main.cpp  **** ////    threads[1] = kThread::createProcess(workerBodyA, nullptr, ptrA);
  68:src/main.cpp  **** ////    printString("CoroutineA created\n");
  69:src/main.cpp  **** ////    threads[2] = kThread::createProcess(workerBodyB, nullptr, ptrB);
  70:src/main.cpp  **** ////    printString("CoroutineB created\n");
  71:src/main.cpp  **** //
  72:src/main.cpp  **** //
  73:src/main.cpp  **** ////    kThread* threadsCD[3];
  74:src/main.cpp  **** ////
  75:src/main.cpp  **** ////    int ret1 = thread_create(&threadsCD[0], nullptr, nullptr);
  76:src/main.cpp  **** ////    printInteger(ret1);
  77:src/main.cpp  **** ////    printString("\n");
  78:src/main.cpp  **** ////    kThread::running = threadsCD[0];
  79:src/main.cpp  **** ////
  80:src/main.cpp  **** ////    int retC = thread_create(&threadsCD[1], workerBodyC, nullptr);
  81:src/main.cpp  **** ////    printInteger(retC);
  82:src/main.cpp  **** ////    printString("\n");
  83:src/main.cpp  **** ////    int retD = thread_create(&threadsCD[2], workerBodyD, nullptr);
  84:src/main.cpp  **** ////    printInteger(retD);
  85:src/main.cpp  **** ////    printString("\n");
  86:src/main.cpp  **** 
  87:src/main.cpp  ****     while (!(threads[1]->isFinished() && threads[2]->isFinished()))
  88:src/main.cpp  ****     {
  89:src/main.cpp  ****         thread_dispatch();
 100              		.loc 1 89 9 is_stmt 1 discriminator 3
 101              		.loc 1 89 24 is_stmt 0 discriminator 3
 102 00c8 97000000 		call	_Z15thread_dispatchv@plt
 102      E7800000 
 103              	.LVL9:
 104              	.L4:
  87:src/main.cpp  ****     {
 105              		.loc 1 87 5 is_stmt 1
  87:src/main.cpp  ****     {
 106              		.loc 1 87 12
  87:src/main.cpp  ****     {
 107              		.loc 1 87 23 is_stmt 0
 108 00d0 833704FD 		ld	a5,-48(s0)
 109              	.LVL10:
 110              	.LBB10:
 111              	.LBB11:
 112              		.file 2 "src/../h/kThread.hpp"
   1:src/../h/kThread.hpp **** #ifndef OS_PROJECT_BASE_KTHREAD_H
   2:src/../h/kThread.hpp **** #define OS_PROJECT_BASE_KTHREAD_H
   3:src/../h/kThread.hpp **** 
   4:src/../h/kThread.hpp **** #include "../lib/hw.h"
   5:src/../h/kThread.hpp **** 
GAS LISTING /tmp/ccUPg65X.s 			page 5


   6:src/../h/kThread.hpp **** class kScheduler;
   7:src/../h/kThread.hpp **** 
   8:src/../h/kThread.hpp **** class kThread{
   9:src/../h/kThread.hpp **** 
  10:src/../h/kThread.hpp **** public:
  11:src/../h/kThread.hpp **** 
  12:src/../h/kThread.hpp ****     ~kThread() { delete[] stack; }
  13:src/../h/kThread.hpp ****     inline bool isFinished() const { return finished; }
 113              		.loc 2 13 38 is_stmt 1
 114              		.loc 2 13 45 is_stmt 0
 115 00d4 83C70703 		lbu	a5,48(a5)
 116              	.LVL11:
 117              	.LBE11:
 118              	.LBE10:
  87:src/main.cpp  ****     {
 119              		.loc 1 87 12
 120 00d8 E38807FE 		beqz	a5,.L2
  87:src/main.cpp  ****     {
 121              		.loc 1 87 51 discriminator 2
 122 00dc 833784FD 		ld	a5,-40(s0)
 123              	.LVL12:
 124              	.LBB12:
 125              	.LBB13:
 126              		.loc 2 13 38 is_stmt 1 discriminator 2
 127              		.loc 2 13 45 is_stmt 0 discriminator 2
 128 00e0 83C70703 		lbu	a5,48(a5)
 129              	.LVL13:
 130              	.LBE13:
 131              	.LBE12:
  87:src/main.cpp  ****     {
 132              		.loc 1 87 12 discriminator 2
 133 00e4 E38207FE 		beqz	a5,.L2
 134 00e8 930484FC 		addi	s1,s0,-56
 135 00ec 6F004001 		j	.L3
 136              	.LVL14:
 137              	.L7:
 138              	.LBB14:
  90:src/main.cpp  ****     }
  91:src/main.cpp  **** 
  92:src/main.cpp  ****     for (auto &thread: threads)
  93:src/main.cpp  ****     {
  94:src/main.cpp  ****         delete thread;
 139              		.loc 1 94 16
 140 00f0 13050900 		mv	a0,s2
 141 00f4 97000000 		call	_ZdlPv@plt
 141      E7800000 
 142              	.LVL15:
 143              	.L6:
  92:src/main.cpp  ****     {
 144              		.loc 1 92 5 is_stmt 1 discriminator 3
 145 00fc 93848400 		addi	s1,s1,8
 146              	.LVL16:
 147              	.L3:
  92:src/main.cpp  ****     {
 148              		.loc 1 92 24 discriminator 1
 149 0100 930704FE 		addi	a5,s0,-32
 150 0104 6380F402 		beq	s1,a5,.L5
GAS LISTING /tmp/ccUPg65X.s 			page 6


 151              	.LVL17:
 152              		.loc 1 94 9 discriminator 2
 153              		.loc 1 94 16 is_stmt 0 discriminator 2
 154 0108 03B90400 		ld	s2,0(s1)
 155              		.loc 1 94 22 discriminator 2
 156 010c E30809FE 		beqz	s2,.L6
 157              	.LVL18:
 158              	.LBB15:
 159              	.LBB16:
  12:src/../h/kThread.hpp ****     inline bool isFinished() const { return finished; }
 160              		.loc 2 12 18 is_stmt 1
  12:src/../h/kThread.hpp ****     inline bool isFinished() const { return finished; }
 161              		.loc 2 12 27 is_stmt 0
 162 0110 03358901 		ld	a0,24(s2)
  12:src/../h/kThread.hpp ****     inline bool isFinished() const { return finished; }
 163              		.loc 2 12 32
 164 0114 E30E05FC 		beqz	a0,.L7
  12:src/../h/kThread.hpp ****     inline bool isFinished() const { return finished; }
 165              		.loc 2 12 27
 166 0118 97000000 		call	_ZdaPv@plt
 166      E7800000 
 167              	.LVL19:
 168 0120 6FF01FFD 		j	.L7
 169              	.LVL20:
 170              	.L5:
 171              	.LBE16:
 172              	.LBE15:
 173              	.LBE14:
  95:src/main.cpp  ****     }
  96:src/main.cpp  ****     //treba da testiras thread_create i thread_dispatch pomocu niti koje se nikad ne zavrsavaju
  97:src/main.cpp  ****     printString("Main exit\n");
 174              		.loc 1 97 5 is_stmt 1
 175              		.loc 1 97 16 is_stmt 0
 176 0124 17050000 		lla	a0,.LC1
 176      13050500 
 177 012c 97000000 		call	_Z11printStringPKc@plt
 177      E7800000 
 178              	.LVL21:
  98:src/main.cpp  ****     return 0;
 179              		.loc 1 98 5 is_stmt 1
  99:src/main.cpp  **** 
 100:src/main.cpp  **** }
 180              		.loc 1 100 1 is_stmt 0
 181 0134 13050000 		li	a0,0
 182 0138 83308103 		ld	ra,56(sp)
 183              		.cfi_restore 1
 184 013c 03340103 		ld	s0,48(sp)
 185              		.cfi_restore 8
 186              		.cfi_def_cfa 2, 64
 187 0140 83348102 		ld	s1,40(sp)
 188              		.cfi_restore 9
 189              	.LVL22:
 190 0144 03390102 		ld	s2,32(sp)
 191              		.cfi_restore 18
 192 0148 13010104 		addi	sp,sp,64
 193              		.cfi_def_cfa_offset 0
 194 014c 67800000 		jr	ra
GAS LISTING /tmp/ccUPg65X.s 			page 7


 195              		.cfi_endproc
 196              	.LFE21:
 198              	.Letext0:
 199              		.file 3 "src/../h/../lib/hw.h"
 200              		.file 4 "src/../h/syscall_c.hpp"
 201              		.file 5 "src/../h/print.hpp"
GAS LISTING /tmp/ccUPg65X.s 			page 8


DEFINED SYMBOLS
                            *ABS*:0000000000000000 main.cpp
     /tmp/ccUPg65X.s:17     .text:0000000000000000 main
     /tmp/ccUPg65X.s:21     .text:0000000000000000 .L0 
     /tmp/ccUPg65X.s:22     .text:0000000000000000 .L0 
     /tmp/ccUPg65X.s:23     .text:0000000000000004 .L0 
     /tmp/ccUPg65X.s:28     .text:0000000000000014 .L0 
     /tmp/ccUPg65X.s:29     .text:0000000000000014 .L0 
     /tmp/ccUPg65X.s:30     .text:0000000000000014 .L0 
     /tmp/ccUPg65X.s:31     .text:0000000000000014 .L0 
     /tmp/ccUPg65X.s:33     .text:0000000000000018 .L0 
     /tmp/ccUPg65X.s:35     .text:0000000000000018 .L0 
     /tmp/ccUPg65X.s:36     .text:0000000000000018 .L0 
        src/main.cpp:18     .text:0000000000000024 .L0 
     /tmp/ccUPg65X.s:44     .text:0000000000000028 .L0 
     /tmp/ccUPg65X.s:45     .text:0000000000000028 .L0 
     /tmp/ccUPg65X.s:47     .text:0000000000000028 .L0 
     /tmp/ccUPg65X.s:53     .text:000000000000003c .L0 
     /tmp/ccUPg65X.s:54     .text:000000000000003c .L0 
     /tmp/ccUPg65X.s:57     .text:0000000000000044 .L0 
     /tmp/ccUPg65X.s:58     .text:0000000000000044 .L0 
     /tmp/ccUPg65X.s:62     .text:0000000000000054 .L0 
     /tmp/ccUPg65X.s:63     .text:0000000000000054 .L0 
     /tmp/ccUPg65X.s:67     .text:0000000000000064 .L0 
     /tmp/ccUPg65X.s:68     .text:0000000000000064 .L0 
     /tmp/ccUPg65X.s:74     .text:000000000000007c .L0 
     /tmp/ccUPg65X.s:75     .text:000000000000007c .L0 
     /tmp/ccUPg65X.s:78     .text:0000000000000084 .L0 
     /tmp/ccUPg65X.s:79     .text:0000000000000084 .L0 
     /tmp/ccUPg65X.s:83     .text:0000000000000094 .L0 
     /tmp/ccUPg65X.s:84     .text:0000000000000094 .L0 
     /tmp/ccUPg65X.s:90     .text:00000000000000ac .L0 
     /tmp/ccUPg65X.s:91     .text:00000000000000ac .L0 
     /tmp/ccUPg65X.s:94     .text:00000000000000b4 .L0 
     /tmp/ccUPg65X.s:95     .text:00000000000000b4 .L0 
     /tmp/ccUPg65X.s:101    .text:00000000000000c8 .L0 
     /tmp/ccUPg65X.s:102    .text:00000000000000c8 .L0 
     /tmp/ccUPg65X.s:106    .text:00000000000000d0 .L0 
     /tmp/ccUPg65X.s:107    .text:00000000000000d0 .L0 
     /tmp/ccUPg65X.s:108    .text:00000000000000d0 .L0 
     /tmp/ccUPg65X.s:114    .text:00000000000000d4 .L0 
     /tmp/ccUPg65X.s:115    .text:00000000000000d4 .L0 
     /tmp/ccUPg65X.s:120    .text:00000000000000d8 .L0 
     /tmp/ccUPg65X.s:122    .text:00000000000000dc .L0 
     /tmp/ccUPg65X.s:127    .text:00000000000000e0 .L0 
     /tmp/ccUPg65X.s:128    .text:00000000000000e0 .L0 
     /tmp/ccUPg65X.s:133    .text:00000000000000e4 .L0 
     /tmp/ccUPg65X.s:140    .text:00000000000000f0 .L0 
     /tmp/ccUPg65X.s:145    .text:00000000000000fc .L0 
     /tmp/ccUPg65X.s:149    .text:0000000000000100 .L0 
     /tmp/ccUPg65X.s:153    .text:0000000000000108 .L0 
     /tmp/ccUPg65X.s:154    .text:0000000000000108 .L0 
     /tmp/ccUPg65X.s:156    .text:000000000000010c .L0 
     /tmp/ccUPg65X.s:161    .text:0000000000000110 .L0 
     /tmp/ccUPg65X.s:162    .text:0000000000000110 .L0 
     /tmp/ccUPg65X.s:164    .text:0000000000000114 .L0 
     /tmp/ccUPg65X.s:166    .text:0000000000000118 .L0 
GAS LISTING /tmp/ccUPg65X.s 			page 9


     /tmp/ccUPg65X.s:175    .text:0000000000000124 .L0 
     /tmp/ccUPg65X.s:176    .text:0000000000000124 .L0 
     /tmp/ccUPg65X.s:180    .text:0000000000000134 .L0 
     /tmp/ccUPg65X.s:181    .text:0000000000000134 .L0 
     /tmp/ccUPg65X.s:183    .text:000000000000013c .L0 
     /tmp/ccUPg65X.s:185    .text:0000000000000140 .L0 
     /tmp/ccUPg65X.s:186    .text:0000000000000140 .L0 
     /tmp/ccUPg65X.s:188    .text:0000000000000144 .L0 
     /tmp/ccUPg65X.s:191    .text:0000000000000148 .L0 
     /tmp/ccUPg65X.s:193    .text:000000000000014c .L0 
     /tmp/ccUPg65X.s:195    .text:0000000000000150 .L0 
     /tmp/ccUPg65X.s:202    .text:0000000000000150 .L0 
     /tmp/ccUPg65X.s:36     .text:0000000000000018 .L0 
     /tmp/ccUPg65X.s:8      .rodata.str1.8:0000000000000000 .LC0
     /tmp/ccUPg65X.s:58     .text:0000000000000044 .L0 
     /tmp/ccUPg65X.s:64     .text:0000000000000058 .L0 
     /tmp/ccUPg65X.s:69     .text:0000000000000068 .L0 
     /tmp/ccUPg65X.s:79     .text:0000000000000084 .L0 
     /tmp/ccUPg65X.s:85     .text:0000000000000098 .L0 
     /tmp/ccUPg65X.s:95     .text:00000000000000b4 .L0 
     /tmp/ccUPg65X.s:11     .rodata.str1.8:0000000000000008 .LC1
     /tmp/ccUPg65X.s:176    .text:0000000000000124 .L0 
     /tmp/ccUPg65X.s:104    .text:00000000000000d0 .L4
     /tmp/ccUPg65X.s:99     .text:00000000000000c8 .L2
     /tmp/ccUPg65X.s:147    .text:0000000000000100 .L3
     /tmp/ccUPg65X.s:170    .text:0000000000000124 .L5
     /tmp/ccUPg65X.s:143    .text:00000000000000fc .L6
     /tmp/ccUPg65X.s:137    .text:00000000000000f0 .L7
     /tmp/ccUPg65X.s:865    .debug_abbrev:0000000000000000 .Ldebug_abbrev0
     /tmp/ccUPg65X.s:1781   .debug_str:0000000000000370 .LASF60
     /tmp/ccUPg65X.s:1719   .debug_str:00000000000001af .LASF61
     /tmp/ccUPg65X.s:1801   .debug_str:00000000000004e5 .LASF62
     /tmp/ccUPg65X.s:5      .text:0000000000000000 .Ltext0
     /tmp/ccUPg65X.s:198    .text:0000000000000150 .Letext0
     /tmp/ccUPg65X.s:1653   .debug_line:0000000000000000 .Ldebug_line0
     /tmp/ccUPg65X.s:1735   .debug_str:0000000000000234 .LASF0
     /tmp/ccUPg65X.s:1741   .debug_str:0000000000000252 .LASF1
     /tmp/ccUPg65X.s:1727   .debug_str:00000000000001db .LASF2
     /tmp/ccUPg65X.s:1711   .debug_str:0000000000000192 .LASF4
     /tmp/ccUPg65X.s:1773   .debug_str:0000000000000324 .LASF3
     /tmp/ccUPg65X.s:1669   .debug_str:000000000000005a .LASF5
     /tmp/ccUPg65X.s:1743   .debug_str:0000000000000265 .LASF6
     /tmp/ccUPg65X.s:1733   .debug_str:0000000000000221 .LASF7
     /tmp/ccUPg65X.s:1791   .debug_str:0000000000000480 .LASF8
     /tmp/ccUPg65X.s:1705   .debug_str:0000000000000174 .LASF9
     /tmp/ccUPg65X.s:1755   .debug_str:00000000000002ab .LASF10
     /tmp/ccUPg65X.s:1783   .debug_str:0000000000000434 .LASF11
     /tmp/ccUPg65X.s:1671   .debug_str:0000000000000061 .LASF12
     /tmp/ccUPg65X.s:1657   .debug_str:0000000000000014 .LASF13
     /tmp/ccUPg65X.s:1677   .debug_str:0000000000000098 .LASF14
     /tmp/ccUPg65X.s:1767   .debug_str:0000000000000301 .LASF15
     /tmp/ccUPg65X.s:1685   .debug_str:00000000000000f4 .LASF16
     /tmp/ccUPg65X.s:1739   .debug_str:000000000000024a .LASF63
     /tmp/ccUPg65X.s:1661   .debug_str:0000000000000030 .LASF64
     /tmp/ccUPg65X.s:1667   .debug_str:0000000000000051 .LASF17
     /tmp/ccUPg65X.s:1745   .debug_str:0000000000000278 .LASF19
     /tmp/ccUPg65X.s:1747   .debug_str:0000000000000288 .LASF37
GAS LISTING /tmp/ccUPg65X.s 			page 10


     /tmp/ccUPg65X.s:1789   .debug_str:0000000000000465 .LASF65
     /tmp/ccUPg65X.s:1729   .debug_str:00000000000001e9 .LASF18
     /tmp/ccUPg65X.s:1673   .debug_str:0000000000000071 .LASF20
     /tmp/ccUPg65X.s:1765   .debug_str:00000000000002f3 .LASF21
     /tmp/ccUPg65X.s:1797   .debug_str:00000000000004aa .LASF22
     /tmp/ccUPg65X.s:1763   .debug_str:00000000000002ee .LASF66
     /tmp/ccUPg65X.s:1769   .debug_str:0000000000000317 .LASF23
     /tmp/ccUPg65X.s:1655   .debug_str:0000000000000000 .LASF25
     /tmp/ccUPg65X.s:1695   .debug_str:000000000000013d .LASF67
     /tmp/ccUPg65X.s:1753   .debug_str:000000000000029f .LASF24
     /tmp/ccUPg65X.s:1679   .debug_str:00000000000000a4 .LASF26
     /tmp/ccUPg65X.s:1757   .debug_str:00000000000002ba .LASF68
     /tmp/ccUPg65X.s:1689   .debug_str:0000000000000118 .LASF69
     /tmp/ccUPg65X.s:1715   .debug_str:00000000000001a2 .LASF27
     /tmp/ccUPg65X.s:1707   .debug_str:0000000000000182 .LASF28
     /tmp/ccUPg65X.s:1717   .debug_str:00000000000001a7 .LASF29
     /tmp/ccUPg65X.s:1713   .debug_str:0000000000000199 .LASF30
     /tmp/ccUPg65X.s:1793   .debug_str:0000000000000490 .LASF70
     /tmp/ccUPg65X.s:1731   .debug_str:00000000000001f5 .LASF71
     /tmp/ccUPg65X.s:1723   .debug_str:00000000000001c6 .LASF31
     /tmp/ccUPg65X.s:1759   .debug_str:00000000000002cc .LASF33
     /tmp/ccUPg65X.s:1737   .debug_str:0000000000000241 .LASF32
     /tmp/ccUPg65X.s:1777   .debug_str:0000000000000346 .LASF34
     /tmp/ccUPg65X.s:1697   .debug_str:0000000000000145 .LASF35
     /tmp/ccUPg65X.s:1665   .debug_str:0000000000000040 .LASF36
     /tmp/ccUPg65X.s:1751   .debug_str:000000000000029a .LASF38
     /tmp/ccUPg65X.s:18     .text:0000000000000000 .LFB21
     /tmp/ccUPg65X.s:196    .text:0000000000000150 .LFE21
     /tmp/ccUPg65X.s:1703   .debug_str:000000000000016c .LASF39
     /tmp/ccUPg65X.s:1663   .debug_str:0000000000000038 .LASF40
     /tmp/ccUPg65X.s:1580   .debug_loc:0000000000000000 .LLST0
     /tmp/ccUPg65X.s:1691   .debug_str:0000000000000133 .LASF41
     /tmp/ccUPg65X.s:1587   .debug_loc:0000000000000023 .LLST1
     /tmp/ccUPg65X.s:1693   .debug_str:0000000000000138 .LASF42
     /tmp/ccUPg65X.s:1594   .debug_loc:0000000000000046 .LLST2
     /tmp/ccUPg65X.s:138    .text:00000000000000f0 .LBB14
     /tmp/ccUPg65X.s:173    .text:0000000000000124 .LBE14
     /tmp/ccUPg65X.s:1749   .debug_str:0000000000000293 .LASF43
     /tmp/ccUPg65X.s:1601   .debug_loc:0000000000000069 .LLST5
     /tmp/ccUPg65X.s:1795   .debug_str:000000000000049e .LASF44
     /tmp/ccUPg65X.s:1675   .debug_str:000000000000008c .LASF72
     /tmp/ccUPg65X.s:1612   .debug_loc:000000000000009f .LLST6
     /tmp/ccUPg65X.s:1721   .debug_str:00000000000001bc .LASF45
     /tmp/ccUPg65X.s:158    .text:0000000000000110 .LBB15
     /tmp/ccUPg65X.s:172    .text:0000000000000124 .LBE15
     /tmp/ccUPg65X.s:1619   .debug_loc:00000000000000c2 .LLST7
     /tmp/ccUPg65X.s:167    .text:0000000000000120 .LVL19
     /tmp/ccUPg65X.s:142    .text:00000000000000fc .LVL15
     /tmp/ccUPg65X.s:110    .text:00000000000000d4 .LBB10
     /tmp/ccUPg65X.s:118    .text:00000000000000d8 .LBE10
     /tmp/ccUPg65X.s:1626   .debug_loc:00000000000000e5 .LLST3
     /tmp/ccUPg65X.s:124    .text:00000000000000e0 .LBB12
     /tmp/ccUPg65X.s:131    .text:00000000000000e4 .LBE12
     /tmp/ccUPg65X.s:1633   .debug_loc:0000000000000108 .LLST4
     /tmp/ccUPg65X.s:51     .text:000000000000003c .LVL0
     /tmp/ccUPg65X.s:55     .text:0000000000000044 .LVL1
     /tmp/ccUPg65X.s:60     .text:0000000000000054 .LVL2
GAS LISTING /tmp/ccUPg65X.s 			page 11


     /tmp/ccUPg65X.s:72     .text:000000000000007c .LVL3
     /tmp/ccUPg65X.s:76     .text:0000000000000084 .LVL4
     /tmp/ccUPg65X.s:81     .text:0000000000000094 .LVL5
     /tmp/ccUPg65X.s:88     .text:00000000000000ac .LVL6
     /tmp/ccUPg65X.s:92     .text:00000000000000b4 .LVL7
     /tmp/ccUPg65X.s:97     .text:00000000000000c4 .LVL8
     /tmp/ccUPg65X.s:103    .text:00000000000000d0 .LVL9
     /tmp/ccUPg65X.s:178    .text:0000000000000134 .LVL21
     /tmp/ccUPg65X.s:1761   .debug_str:00000000000002e9 .LASF46
     /tmp/ccUPg65X.s:1709   .debug_str:0000000000000188 .LASF47
     /tmp/ccUPg65X.s:1787   .debug_str:0000000000000455 .LASF73
     /tmp/ccUPg65X.s:1771   .debug_str:000000000000031d .LASF48
     /tmp/ccUPg65X.s:1779   .debug_str:000000000000035d .LASF50
     /tmp/ccUPg65X.s:1725   .debug_str:00000000000001d4 .LASF49
     /tmp/ccUPg65X.s:1775   .debug_str:0000000000000336 .LASF51
     /tmp/ccUPg65X.s:1683   .debug_str:00000000000000cf .LASF52
     /tmp/ccUPg65X.s:1687   .debug_str:000000000000010a .LASF54
     /tmp/ccUPg65X.s:1785   .debug_str:0000000000000443 .LASF53
     /tmp/ccUPg65X.s:1701   .debug_str:000000000000015f .LASF55
     /tmp/ccUPg65X.s:1799   .debug_str:00000000000004d2 .LASF56
     /tmp/ccUPg65X.s:1659   .debug_str:0000000000000024 .LASF57
     /tmp/ccUPg65X.s:1699   .debug_str:000000000000014a .LASF58
     /tmp/ccUPg65X.s:1681   .debug_str:00000000000000bf .LASF59
     /tmp/ccUPg65X.s:136    .text:00000000000000f0 .LVL14
     /tmp/ccUPg65X.s:146    .text:0000000000000100 .LVL16
     /tmp/ccUPg65X.s:151    .text:0000000000000108 .LVL17
     /tmp/ccUPg65X.s:169    .text:0000000000000124 .LVL20
     /tmp/ccUPg65X.s:189    .text:0000000000000144 .LVL22
     /tmp/ccUPg65X.s:157    .text:0000000000000110 .LVL18
     /tmp/ccUPg65X.s:109    .text:00000000000000d4 .LVL10
     /tmp/ccUPg65X.s:116    .text:00000000000000d8 .LVL11
     /tmp/ccUPg65X.s:123    .text:00000000000000e0 .LVL12
     /tmp/ccUPg65X.s:129    .text:00000000000000e4 .LVL13
     /tmp/ccUPg65X.s:203    .debug_info:0000000000000000 .Ldebug_info0

UNDEFINED SYMBOLS
__supervisorTrap
_Z13thread_createPP7kThreadPFvPvES2_
_Z12printIntegerm
_Z11printStringPKc
_ZN7kThread7runningE
_Z11workerBodyAPv
_Z11workerBodyBPv
_Z15thread_dispatchv
_ZdlPv
_ZdaPv
