GAS LISTING /tmp/ccQ7ORje.s 			page 1


   1              		.file	"main.cpp"
   2              		.option pic
   3              		.option norelax
   4              		.text
   5              	.Ltext0:
   6              		.section	.rodata.str1.8,"aMS",@progbits,1
   7              		.align	3
   8              	.LC0:
   9 0000 206D656D 		.string	" mem_alloc done\n"
   9      5F616C6C 
   9      6F632064 
   9      6F6E650A 
   9      00
  10 0011 00000000 		.align	3
  10      000000
  11              	.LC1:
  12 0018 436F726F 		.string	"CoroutineA created\n"
  12      7574696E 
  12      65412063 
  12      72656174 
  12      65640A00 
  13 002c 00000000 		.align	3
  14              	.LC2:
  15 0030 436F726F 		.string	"CoroutineB created\n"
  15      7574696E 
  15      65422063 
  15      72656174 
  15      65640A00 
  16 0044 00000000 		.align	3
  17              	.LC3:
  18 0048 4D61696E 		.string	"Main exit\n"
  18      20657869 
  18      740A00
  19              		.text
  20              		.align	2
  21              		.globl	main
  23              	main:
  24              	.LFB21:
  25              		.file 1 "src/main.cpp"
   1:src/main.cpp  **** //
   2:src/main.cpp  **** // Created by marko on 20.4.22..
   3:src/main.cpp  **** //
   4:src/main.cpp  **** 
   5:src/main.cpp  **** //#include "../h/ccb.hpp"
   6:src/main.cpp  **** #include "../h/print.hpp"
   7:src/main.cpp  **** #include "../h/riscv.hpp"
   8:src/main.cpp  **** #include "../h/syscall_c.hpp"
   9:src/main.cpp  **** #include "../h/kThread.hpp"
  10:src/main.cpp  **** #include "../h/workers.hpp"
  11:src/main.cpp  **** 
  12:src/main.cpp  **** extern "C" { extern int __supervisorTrap;}
  13:src/main.cpp  **** 
  14:src/main.cpp  **** int main()
  15:src/main.cpp  **** {
  26              		.loc 1 15 1
  27              		.cfi_startproc
  28 0000 130101FB 		addi	sp,sp,-80
GAS LISTING /tmp/ccQ7ORje.s 			page 2


  29              		.cfi_def_cfa_offset 80
  30 0004 23341104 		sd	ra,72(sp)
  31 0008 23308104 		sd	s0,64(sp)
  32 000c 233C9102 		sd	s1,56(sp)
  33 0010 23382103 		sd	s2,48(sp)
  34              		.cfi_offset 1, -8
  35              		.cfi_offset 8, -16
  36              		.cfi_offset 9, -24
  37              		.cfi_offset 18, -32
  38 0014 13040105 		addi	s0,sp,80
  39              		.cfi_def_cfa 8, 0
  16:src/main.cpp  **** 
  17:src/main.cpp  **** 
  18:src/main.cpp  ****    __asm__ volatile ("csrw stvec, %0 ": : "r" ((uint64)&__supervisorTrap | 1));
  40              		.loc 1 18 4
  41              		.loc 1 18 74 is_stmt 0
  42 0018 97070000 		la	a5,__supervisorTrap
  42      83B70700 
  43 0020 93E71700 		ori	a5,a5,1
  44              		.loc 1 18 79
  45              	#APP
  46              	# 18 "src/main.cpp" 1
  19              	    //Riscv::ms_sstatus(Riscv::SSTATUS_SIE); jel ovo za timer
  20:src/main.cpp  ****     //__asm__ volatile  ("ecall");
  21:src/main.cpp  **** 
  22:src/main.cpp  **** //      int ret = -1;
  23:src/main.cpp  **** //    thread_t handleT = nullptr;
  24:src/main.cpp  **** //    sem_t handleS = nullptr;
  25:src/main.cpp  **** //    sem_t id = nullptr;
  26:src/main.cpp  **** //    unsigned int init = 0;
  27:src/main.cpp  **** //    unsigned  long time_t = 0;
  28:src/main.cpp  **** //    char c = '0';
  29:src/main.cpp  **** //
  30:src/main.cpp  ****     //printInteger(-120);
  31:src/main.cpp  **** //    ret = test(13);
  32:src/main.cpp  **** //    printInteger(ret);
  33:src/main.cpp  **** //    printString(" test done\n");
  34:src/main.cpp  **** //
  35:src/main.cpp  ****     uint64  size = 4096;
  47              		csrw stvec, a5 
  48              	# 0 "" 2
  49              		.loc 1 35 5 is_stmt 1
  50              	.LVL0:
  36:src/main.cpp  ****     void* ptrA = mem_alloc(size);
  51              		.loc 1 36 5
  52              		.loc 1 36 27 is_stmt 0
  53              	#NO_APP
  54 0028 37150000 		li	a0,4096
  55 002c 97000000 		call	_Z9mem_allocm@plt
  55      E7800000 
  56              	.LVL1:
  57              		.loc 1 36 32
  58 0034 233CA4FC 		sd	a0,-40(s0)
  37:src/main.cpp  ****     uint64 intPtr = (uint64)(&ptrA);
  59              		.loc 1 37 5 is_stmt 1
  60              	.LVL2:
  38:src/main.cpp  ****     printHex(intPtr);
GAS LISTING /tmp/ccQ7ORje.s 			page 3


  61              		.loc 1 38 5
  62              		.loc 1 38 13 is_stmt 0
  63 0038 130584FD 		addi	a0,s0,-40
  64              	.LVL3:
  65 003c 97000000 		call	_Z8printHexm@plt
  65      E7800000 
  66              	.LVL4:
  39:src/main.cpp  ****     printString(" mem_alloc done\n");
  67              		.loc 1 39 5 is_stmt 1
  68              		.loc 1 39 16 is_stmt 0
  69 0044 17050000 		lla	a0,.LC0
  69      13050500 
  70 004c 97000000 		call	_Z11printStringPKc@plt
  70      E7800000 
  71              	.LVL5:
  40:src/main.cpp  **** 
  41:src/main.cpp  ****     void* ptrB = mem_alloc(size);
  72              		.loc 1 41 5 is_stmt 1
  73              		.loc 1 41 27 is_stmt 0
  74 0054 37150000 		li	a0,4096
  75 0058 97000000 		call	_Z9mem_allocm@plt
  75      E7800000 
  76              	.LVL6:
  77              		.loc 1 41 32
  78 0060 2338A4FC 		sd	a0,-48(s0)
  42:src/main.cpp  ****     intPtr = (uint64)(&ptrB);
  79              		.loc 1 42 5 is_stmt 1
  80              	.LVL7:
  43:src/main.cpp  ****     printHex(intPtr);
  81              		.loc 1 43 5
  82              		.loc 1 43 13 is_stmt 0
  83 0064 130504FD 		addi	a0,s0,-48
  84              	.LVL8:
  85 0068 97000000 		call	_Z8printHexm@plt
  85      E7800000 
  86              	.LVL9:
  44:src/main.cpp  ****     printString(" mem_alloc done\n");
  87              		.loc 1 44 5 is_stmt 1
  88              		.loc 1 44 16 is_stmt 0
  89 0070 17050000 		lla	a0,.LC0
  89      13050500 
  90 0078 97000000 		call	_Z11printStringPKc@plt
  90      E7800000 
  91              	.LVL10:
  45:src/main.cpp  **** 
  46:src/main.cpp  **** //    ret = mem_free(ptr);
  47:src/main.cpp  **** //    printInteger(ret);
  48:src/main.cpp  **** //    printString(" mem_free done\n");
  49:src/main.cpp  **** 
  50:src/main.cpp  ****     kThread* threads[3];
  92              		.loc 1 50 5 is_stmt 1
  51:src/main.cpp  **** 
  52:src/main.cpp  **** //    int retMain = thread_create(&threads[0], nullptr, nullptr);
  53:src/main.cpp  **** //    printInteger(retMain);
  54:src/main.cpp  **** //    printString("\n");
  55:src/main.cpp  **** //    kThread::running = threads[0];
  56:src/main.cpp  **** //
GAS LISTING /tmp/ccQ7ORje.s 			page 4


  57:src/main.cpp  **** //    int retA = thread_create(&threads[1], workerBodyA, nullptr);
  58:src/main.cpp  **** //    printInteger(retA);
  59:src/main.cpp  **** //    printString("\n");
  60:src/main.cpp  **** //    int retB = thread_create(&threads[2], workerBodyB, nullptr);
  61:src/main.cpp  **** //    printInteger(retB);
  62:src/main.cpp  **** //    printString("\n");
  63:src/main.cpp  **** 
  64:src/main.cpp  **** 
  65:src/main.cpp  ****     threads[0] = kThread::createProcess(nullptr,nullptr,nullptr);
  93              		.loc 1 65 5
  94              		.loc 1 65 40 is_stmt 0
  95 0080 13060000 		li	a2,0
  96 0084 93050000 		li	a1,0
  97 0088 13050000 		li	a0,0
  98 008c 97000000 		call	_ZN7kThread13createProcessEPFvPvES0_S0_@plt
  98      E7800000 
  99              	.LVL11:
 100              		.loc 1 65 16
 101 0094 233CA4FA 		sd	a0,-72(s0)
  66:src/main.cpp  ****     kThread::running = threads[0];
 102              		.loc 1 66 5 is_stmt 1
 103              		.loc 1 66 22 is_stmt 0
 104 0098 97070000 		la	a5,_ZN7kThread7runningE
 104      83B70700 
 105 00a0 23B0A700 		sd	a0,0(a5)
  67:src/main.cpp  ****     threads[1] = kThread::createProcess(workerBodyA, nullptr, ptrA);
 106              		.loc 1 67 5 is_stmt 1
 107              		.loc 1 67 40 is_stmt 0
 108 00a4 033684FD 		ld	a2,-40(s0)
 109 00a8 93050000 		li	a1,0
 110 00ac 17050000 		la	a0,_Z11workerBodyAPv
 110      03350500 
 111 00b4 97000000 		call	_ZN7kThread13createProcessEPFvPvES0_S0_@plt
 111      E7800000 
 112              	.LVL12:
 113              		.loc 1 67 16
 114 00bc 2330A4FC 		sd	a0,-64(s0)
  68:src/main.cpp  ****     printString("CoroutineA created\n");
 115              		.loc 1 68 5 is_stmt 1
 116              		.loc 1 68 16 is_stmt 0
 117 00c0 17050000 		lla	a0,.LC1
 117      13050500 
 118 00c8 97000000 		call	_Z11printStringPKc@plt
 118      E7800000 
 119              	.LVL13:
  69:src/main.cpp  ****     threads[2] = kThread::createProcess(workerBodyB, nullptr, ptrB);
 120              		.loc 1 69 5 is_stmt 1
 121              		.loc 1 69 40 is_stmt 0
 122 00d0 033604FD 		ld	a2,-48(s0)
 123 00d4 93050000 		li	a1,0
 124 00d8 17050000 		la	a0,_Z11workerBodyBPv
 124      03350500 
 125 00e0 97000000 		call	_ZN7kThread13createProcessEPFvPvES0_S0_@plt
 125      E7800000 
 126              	.LVL14:
 127              		.loc 1 69 16
 128 00e8 2334A4FC 		sd	a0,-56(s0)
GAS LISTING /tmp/ccQ7ORje.s 			page 5


  70:src/main.cpp  ****     printString("CoroutineB created\n");
 129              		.loc 1 70 5 is_stmt 1
 130              		.loc 1 70 16 is_stmt 0
 131 00ec 17050000 		lla	a0,.LC2
 131      13050500 
 132 00f4 97000000 		call	_Z11printStringPKc@plt
 132      E7800000 
 133              	.LVL15:
 134 00fc 6F00C000 		j	.L4
 135              	.L2:
  71:src/main.cpp  **** 
  72:src/main.cpp  ****     while (!(threads[1]->isFinished() && threads[2]->isFinished()))
  73:src/main.cpp  ****     {
  74:src/main.cpp  ****         kThread::yield();
 136              		.loc 1 74 9 is_stmt 1 discriminator 3
 137              		.loc 1 74 23 is_stmt 0 discriminator 3
 138 0100 97000000 		call	_ZN7kThread5yieldEv@plt
 138      E7800000 
 139              	.LVL16:
 140              	.L4:
  72:src/main.cpp  ****     {
 141              		.loc 1 72 5 is_stmt 1
  72:src/main.cpp  ****     {
 142              		.loc 1 72 12
  72:src/main.cpp  ****     {
 143              		.loc 1 72 23 is_stmt 0
 144 0108 833704FC 		ld	a5,-64(s0)
 145              	.LVL17:
 146              	.LBB10:
 147              	.LBB11:
 148              		.file 2 "src/../h/kThread.hpp"
   1:src/../h/kThread.hpp **** #ifndef OS_PROJECT_BASE_KTHREAD_H
   2:src/../h/kThread.hpp **** #define OS_PROJECT_BASE_KTHREAD_H
   3:src/../h/kThread.hpp **** 
   4:src/../h/kThread.hpp **** #include "../lib/hw.h"
   5:src/../h/kThread.hpp **** 
   6:src/../h/kThread.hpp **** class kScheduler;
   7:src/../h/kThread.hpp **** 
   8:src/../h/kThread.hpp **** class kThread{
   9:src/../h/kThread.hpp **** 
  10:src/../h/kThread.hpp **** public:
  11:src/../h/kThread.hpp **** 
  12:src/../h/kThread.hpp ****     ~kThread() { delete[] stack; }
  13:src/../h/kThread.hpp ****     inline bool isFinished() const { return finished; }
 149              		.loc 2 13 38 is_stmt 1
 150              		.loc 2 13 45 is_stmt 0
 151 010c 83C70703 		lbu	a5,48(a5)
 152              	.LVL18:
 153              	.LBE11:
 154              	.LBE10:
  72:src/main.cpp  ****     {
 155              		.loc 1 72 12
 156 0110 E38807FE 		beqz	a5,.L2
  72:src/main.cpp  ****     {
 157              		.loc 1 72 51 discriminator 2
 158 0114 833784FC 		ld	a5,-56(s0)
 159              	.LVL19:
GAS LISTING /tmp/ccQ7ORje.s 			page 6


 160              	.LBB12:
 161              	.LBB13:
 162              		.loc 2 13 38 is_stmt 1 discriminator 2
 163              		.loc 2 13 45 is_stmt 0 discriminator 2
 164 0118 83C70703 		lbu	a5,48(a5)
 165              	.LVL20:
 166              	.LBE13:
 167              	.LBE12:
  72:src/main.cpp  ****     {
 168              		.loc 1 72 12 discriminator 2
 169 011c E38207FE 		beqz	a5,.L2
 170 0120 930484FB 		addi	s1,s0,-72
 171 0124 6F004001 		j	.L3
 172              	.LVL21:
 173              	.L7:
 174              	.LBB14:
  75:src/main.cpp  ****     }
  76:src/main.cpp  **** 
  77:src/main.cpp  ****     for (auto &thread: threads)
  78:src/main.cpp  ****     {
  79:src/main.cpp  ****         delete thread;
 175              		.loc 1 79 16
 176 0128 13050900 		mv	a0,s2
 177 012c 97000000 		call	_ZdlPv@plt
 177      E7800000 
 178              	.LVL22:
 179              	.L6:
  77:src/main.cpp  ****     {
 180              		.loc 1 77 5 is_stmt 1 discriminator 3
 181 0134 93848400 		addi	s1,s1,8
 182              	.LVL23:
 183              	.L3:
  77:src/main.cpp  ****     {
 184              		.loc 1 77 24 discriminator 1
 185 0138 930704FD 		addi	a5,s0,-48
 186              	.LVL24:
 187 013c 6380F402 		beq	s1,a5,.L5
 188              	.LVL25:
 189              		.loc 1 79 9 discriminator 2
 190              		.loc 1 79 16 is_stmt 0 discriminator 2
 191 0140 03B90400 		ld	s2,0(s1)
 192              		.loc 1 79 22 discriminator 2
 193 0144 E30809FE 		beqz	s2,.L6
 194              	.LVL26:
 195              	.LBB15:
 196              	.LBB16:
  12:src/../h/kThread.hpp ****     inline bool isFinished() const { return finished; }
 197              		.loc 2 12 18 is_stmt 1
  12:src/../h/kThread.hpp ****     inline bool isFinished() const { return finished; }
 198              		.loc 2 12 27 is_stmt 0
 199 0148 03358901 		ld	a0,24(s2)
  12:src/../h/kThread.hpp ****     inline bool isFinished() const { return finished; }
 200              		.loc 2 12 32
 201 014c E30E05FC 		beqz	a0,.L7
  12:src/../h/kThread.hpp ****     inline bool isFinished() const { return finished; }
 202              		.loc 2 12 27
 203 0150 97000000 		call	_ZdaPv@plt
GAS LISTING /tmp/ccQ7ORje.s 			page 7


 203      E7800000 
 204              	.LVL27:
 205 0158 6FF01FFD 		j	.L7
 206              	.LVL28:
 207              	.L5:
 208              	.LBE16:
 209              	.LBE15:
 210              	.LBE14:
  80:src/main.cpp  ****     }
  81:src/main.cpp  **** 
  82:src/main.cpp  ****     printString("Main exit\n");
 211              		.loc 1 82 5 is_stmt 1
 212              		.loc 1 82 16 is_stmt 0
 213 015c 17050000 		lla	a0,.LC3
 213      13050500 
 214 0164 97000000 		call	_Z11printStringPKc@plt
 214      E7800000 
 215              	.LVL29:
  83:src/main.cpp  ****     return 0;
 216              		.loc 1 83 5 is_stmt 1
  84:src/main.cpp  **** 
  85:src/main.cpp  **** }
 217              		.loc 1 85 1 is_stmt 0
 218 016c 13050000 		li	a0,0
 219 0170 83308104 		ld	ra,72(sp)
 220              		.cfi_restore 1
 221 0174 03340104 		ld	s0,64(sp)
 222              		.cfi_restore 8
 223              		.cfi_def_cfa 2, 80
 224              	.LVL30:
 225 0178 83348103 		ld	s1,56(sp)
 226              		.cfi_restore 9
 227              	.LVL31:
 228 017c 03390103 		ld	s2,48(sp)
 229              		.cfi_restore 18
 230 0180 13010105 		addi	sp,sp,80
 231              		.cfi_def_cfa_offset 0
 232              	.LVL32:
 233 0184 67800000 		jr	ra
 234              		.cfi_endproc
 235              	.LFE21:
 237              	.Letext0:
 238              		.file 3 "src/../h/../lib/hw.h"
 239              		.file 4 "src/../h/syscall_c.hpp"
 240              		.file 5 "src/../h/print.hpp"
GAS LISTING /tmp/ccQ7ORje.s 			page 8


DEFINED SYMBOLS
                            *ABS*:0000000000000000 main.cpp
     /tmp/ccQ7ORje.s:23     .text:0000000000000000 main
     /tmp/ccQ7ORje.s:27     .text:0000000000000000 .L0 
     /tmp/ccQ7ORje.s:28     .text:0000000000000000 .L0 
     /tmp/ccQ7ORje.s:29     .text:0000000000000004 .L0 
     /tmp/ccQ7ORje.s:34     .text:0000000000000014 .L0 
     /tmp/ccQ7ORje.s:35     .text:0000000000000014 .L0 
     /tmp/ccQ7ORje.s:36     .text:0000000000000014 .L0 
     /tmp/ccQ7ORje.s:37     .text:0000000000000014 .L0 
     /tmp/ccQ7ORje.s:39     .text:0000000000000018 .L0 
     /tmp/ccQ7ORje.s:41     .text:0000000000000018 .L0 
     /tmp/ccQ7ORje.s:42     .text:0000000000000018 .L0 
        src/main.cpp:18     .text:0000000000000024 .L0 
     /tmp/ccQ7ORje.s:51     .text:0000000000000028 .L0 
     /tmp/ccQ7ORje.s:52     .text:0000000000000028 .L0 
     /tmp/ccQ7ORje.s:54     .text:0000000000000028 .L0 
     /tmp/ccQ7ORje.s:58     .text:0000000000000034 .L0 
     /tmp/ccQ7ORje.s:61     .text:0000000000000038 .L0 
     /tmp/ccQ7ORje.s:62     .text:0000000000000038 .L0 
     /tmp/ccQ7ORje.s:63     .text:0000000000000038 .L0 
     /tmp/ccQ7ORje.s:68     .text:0000000000000044 .L0 
     /tmp/ccQ7ORje.s:69     .text:0000000000000044 .L0 
     /tmp/ccQ7ORje.s:73     .text:0000000000000054 .L0 
     /tmp/ccQ7ORje.s:74     .text:0000000000000054 .L0 
     /tmp/ccQ7ORje.s:78     .text:0000000000000060 .L0 
     /tmp/ccQ7ORje.s:81     .text:0000000000000064 .L0 
     /tmp/ccQ7ORje.s:82     .text:0000000000000064 .L0 
     /tmp/ccQ7ORje.s:83     .text:0000000000000064 .L0 
     /tmp/ccQ7ORje.s:88     .text:0000000000000070 .L0 
     /tmp/ccQ7ORje.s:89     .text:0000000000000070 .L0 
     /tmp/ccQ7ORje.s:93     .text:0000000000000080 .L0 
     /tmp/ccQ7ORje.s:94     .text:0000000000000080 .L0 
     /tmp/ccQ7ORje.s:95     .text:0000000000000080 .L0 
     /tmp/ccQ7ORje.s:101    .text:0000000000000094 .L0 
     /tmp/ccQ7ORje.s:103    .text:0000000000000098 .L0 
     /tmp/ccQ7ORje.s:104    .text:0000000000000098 .L0 
     /tmp/ccQ7ORje.s:107    .text:00000000000000a4 .L0 
     /tmp/ccQ7ORje.s:108    .text:00000000000000a4 .L0 
     /tmp/ccQ7ORje.s:114    .text:00000000000000bc .L0 
     /tmp/ccQ7ORje.s:116    .text:00000000000000c0 .L0 
     /tmp/ccQ7ORje.s:117    .text:00000000000000c0 .L0 
     /tmp/ccQ7ORje.s:121    .text:00000000000000d0 .L0 
     /tmp/ccQ7ORje.s:122    .text:00000000000000d0 .L0 
     /tmp/ccQ7ORje.s:128    .text:00000000000000e8 .L0 
     /tmp/ccQ7ORje.s:130    .text:00000000000000ec .L0 
     /tmp/ccQ7ORje.s:131    .text:00000000000000ec .L0 
     /tmp/ccQ7ORje.s:137    .text:0000000000000100 .L0 
     /tmp/ccQ7ORje.s:138    .text:0000000000000100 .L0 
     /tmp/ccQ7ORje.s:142    .text:0000000000000108 .L0 
     /tmp/ccQ7ORje.s:143    .text:0000000000000108 .L0 
     /tmp/ccQ7ORje.s:144    .text:0000000000000108 .L0 
     /tmp/ccQ7ORje.s:150    .text:000000000000010c .L0 
     /tmp/ccQ7ORje.s:151    .text:000000000000010c .L0 
     /tmp/ccQ7ORje.s:156    .text:0000000000000110 .L0 
     /tmp/ccQ7ORje.s:158    .text:0000000000000114 .L0 
     /tmp/ccQ7ORje.s:163    .text:0000000000000118 .L0 
GAS LISTING /tmp/ccQ7ORje.s 			page 9


     /tmp/ccQ7ORje.s:164    .text:0000000000000118 .L0 
     /tmp/ccQ7ORje.s:169    .text:000000000000011c .L0 
     /tmp/ccQ7ORje.s:176    .text:0000000000000128 .L0 
     /tmp/ccQ7ORje.s:181    .text:0000000000000134 .L0 
     /tmp/ccQ7ORje.s:185    .text:0000000000000138 .L0 
     /tmp/ccQ7ORje.s:190    .text:0000000000000140 .L0 
     /tmp/ccQ7ORje.s:191    .text:0000000000000140 .L0 
     /tmp/ccQ7ORje.s:193    .text:0000000000000144 .L0 
     /tmp/ccQ7ORje.s:198    .text:0000000000000148 .L0 
     /tmp/ccQ7ORje.s:199    .text:0000000000000148 .L0 
     /tmp/ccQ7ORje.s:201    .text:000000000000014c .L0 
     /tmp/ccQ7ORje.s:203    .text:0000000000000150 .L0 
     /tmp/ccQ7ORje.s:212    .text:000000000000015c .L0 
     /tmp/ccQ7ORje.s:213    .text:000000000000015c .L0 
     /tmp/ccQ7ORje.s:217    .text:000000000000016c .L0 
     /tmp/ccQ7ORje.s:218    .text:000000000000016c .L0 
     /tmp/ccQ7ORje.s:220    .text:0000000000000174 .L0 
     /tmp/ccQ7ORje.s:222    .text:0000000000000178 .L0 
     /tmp/ccQ7ORje.s:223    .text:0000000000000178 .L0 
     /tmp/ccQ7ORje.s:226    .text:000000000000017c .L0 
     /tmp/ccQ7ORje.s:229    .text:0000000000000180 .L0 
     /tmp/ccQ7ORje.s:231    .text:0000000000000184 .L0 
     /tmp/ccQ7ORje.s:234    .text:0000000000000188 .L0 
     /tmp/ccQ7ORje.s:241    .text:0000000000000188 .L0 
     /tmp/ccQ7ORje.s:42     .text:0000000000000018 .L0 
     /tmp/ccQ7ORje.s:8      .rodata.str1.8:0000000000000000 .LC0
     /tmp/ccQ7ORje.s:69     .text:0000000000000044 .L0 
     /tmp/ccQ7ORje.s:89     .text:0000000000000070 .L0 
     /tmp/ccQ7ORje.s:104    .text:0000000000000098 .L0 
     /tmp/ccQ7ORje.s:110    .text:00000000000000ac .L0 
     /tmp/ccQ7ORje.s:11     .rodata.str1.8:0000000000000018 .LC1
     /tmp/ccQ7ORje.s:117    .text:00000000000000c0 .L0 
     /tmp/ccQ7ORje.s:124    .text:00000000000000d8 .L0 
     /tmp/ccQ7ORje.s:14     .rodata.str1.8:0000000000000030 .LC2
     /tmp/ccQ7ORje.s:131    .text:00000000000000ec .L0 
     /tmp/ccQ7ORje.s:17     .rodata.str1.8:0000000000000048 .LC3
     /tmp/ccQ7ORje.s:213    .text:000000000000015c .L0 
     /tmp/ccQ7ORje.s:140    .text:0000000000000108 .L4
     /tmp/ccQ7ORje.s:135    .text:0000000000000100 .L2
     /tmp/ccQ7ORje.s:183    .text:0000000000000138 .L3
     /tmp/ccQ7ORje.s:207    .text:000000000000015c .L5
     /tmp/ccQ7ORje.s:179    .text:0000000000000134 .L6
     /tmp/ccQ7ORje.s:173    .text:0000000000000128 .L7
     /tmp/ccQ7ORje.s:942    .debug_abbrev:0000000000000000 .Ldebug_abbrev0
     /tmp/ccQ7ORje.s:1896   .debug_str:000000000000031f .LASF59
     /tmp/ccQ7ORje.s:1830   .debug_str:000000000000014f .LASF60
     /tmp/ccQ7ORje.s:1922   .debug_str:00000000000004a0 .LASF61
     /tmp/ccQ7ORje.s:5      .text:0000000000000000 .Ltext0
     /tmp/ccQ7ORje.s:237    .text:0000000000000188 .Letext0
     /tmp/ccQ7ORje.s:1776   .debug_line:0000000000000000 .Ldebug_line0
     /tmp/ccQ7ORje.s:1846   .debug_str:00000000000001d4 .LASF0
     /tmp/ccQ7ORje.s:1852   .debug_str:00000000000001f2 .LASF1
     /tmp/ccQ7ORje.s:1838   .debug_str:000000000000017b .LASF2
     /tmp/ccQ7ORje.s:1822   .debug_str:0000000000000132 .LASF4
     /tmp/ccQ7ORje.s:1884   .debug_str:00000000000002c4 .LASF3
     /tmp/ccQ7ORje.s:1792   .debug_str:000000000000005b .LASF5
     /tmp/ccQ7ORje.s:1854   .debug_str:0000000000000205 .LASF6
GAS LISTING /tmp/ccQ7ORje.s 			page 10


     /tmp/ccQ7ORje.s:1844   .debug_str:00000000000001c1 .LASF7
     /tmp/ccQ7ORje.s:1904   .debug_str:000000000000041d .LASF8
     /tmp/ccQ7ORje.s:1816   .debug_str:0000000000000114 .LASF9
     /tmp/ccQ7ORje.s:1866   .debug_str:000000000000024b .LASF10
     /tmp/ccQ7ORje.s:1898   .debug_str:00000000000003e3 .LASF11
     /tmp/ccQ7ORje.s:1794   .debug_str:0000000000000062 .LASF12
     /tmp/ccQ7ORje.s:1780   .debug_str:0000000000000014 .LASF13
     /tmp/ccQ7ORje.s:1800   .debug_str:0000000000000099 .LASF14
     /tmp/ccQ7ORje.s:1878   .debug_str:00000000000002a1 .LASF15
     /tmp/ccQ7ORje.s:1806   .debug_str:00000000000000ce .LASF16
     /tmp/ccQ7ORje.s:1850   .debug_str:00000000000001ea .LASF62
     /tmp/ccQ7ORje.s:1786   .debug_str:0000000000000039 .LASF63
     /tmp/ccQ7ORje.s:1790   .debug_str:0000000000000052 .LASF17
     /tmp/ccQ7ORje.s:1856   .debug_str:0000000000000218 .LASF19
     /tmp/ccQ7ORje.s:1858   .debug_str:0000000000000228 .LASF37
     /tmp/ccQ7ORje.s:1902   .debug_str:0000000000000402 .LASF64
     /tmp/ccQ7ORje.s:1840   .debug_str:0000000000000189 .LASF18
     /tmp/ccQ7ORje.s:1796   .debug_str:0000000000000072 .LASF20
     /tmp/ccQ7ORje.s:1876   .debug_str:0000000000000293 .LASF21
     /tmp/ccQ7ORje.s:1914   .debug_str:000000000000045b .LASF22
     /tmp/ccQ7ORje.s:1874   .debug_str:000000000000028e .LASF65
     /tmp/ccQ7ORje.s:1880   .debug_str:00000000000002b7 .LASF23
     /tmp/ccQ7ORje.s:1778   .debug_str:0000000000000000 .LASF25
     /tmp/ccQ7ORje.s:1810   .debug_str:00000000000000ff .LASF66
     /tmp/ccQ7ORje.s:1864   .debug_str:000000000000023f .LASF24
     /tmp/ccQ7ORje.s:1802   .debug_str:00000000000000a5 .LASF26
     /tmp/ccQ7ORje.s:1868   .debug_str:000000000000025a .LASF67
     /tmp/ccQ7ORje.s:1808   .debug_str:00000000000000e4 .LASF68
     /tmp/ccQ7ORje.s:1826   .debug_str:0000000000000142 .LASF27
     /tmp/ccQ7ORje.s:1818   .debug_str:0000000000000122 .LASF28
     /tmp/ccQ7ORje.s:1828   .debug_str:0000000000000147 .LASF29
     /tmp/ccQ7ORje.s:1824   .debug_str:0000000000000139 .LASF30
     /tmp/ccQ7ORje.s:1910   .debug_str:0000000000000441 .LASF69
     /tmp/ccQ7ORje.s:1842   .debug_str:0000000000000195 .LASF70
     /tmp/ccQ7ORje.s:1834   .debug_str:0000000000000166 .LASF31
     /tmp/ccQ7ORje.s:1870   .debug_str:000000000000026c .LASF33
     /tmp/ccQ7ORje.s:1848   .debug_str:00000000000001e1 .LASF32
     /tmp/ccQ7ORje.s:1890   .debug_str:00000000000002f0 .LASF34
     /tmp/ccQ7ORje.s:1812   .debug_str:0000000000000107 .LASF35
     /tmp/ccQ7ORje.s:1788   .debug_str:0000000000000041 .LASF36
     /tmp/ccQ7ORje.s:1862   .debug_str:000000000000023a .LASF38
     /tmp/ccQ7ORje.s:24     .text:0000000000000000 .LFB21
     /tmp/ccQ7ORje.s:235    .text:0000000000000188 .LFE21
     /tmp/ccQ7ORje.s:1894   .debug_str:000000000000031a .LASF39
     /tmp/ccQ7ORje.s:1918   .debug_str:0000000000000496 .LASF40
     /tmp/ccQ7ORje.s:1908   .debug_str:000000000000043a .LASF41
     /tmp/ccQ7ORje.s:1657   .debug_loc:0000000000000000 .LLST0
     /tmp/ccQ7ORje.s:1920   .debug_str:000000000000049b .LASF42
     /tmp/ccQ7ORje.s:1814   .debug_str:000000000000010c .LASF43
     /tmp/ccQ7ORje.s:174    .text:0000000000000128 .LBB14
     /tmp/ccQ7ORje.s:210    .text:000000000000015c .LBE14
     /tmp/ccQ7ORje.s:1860   .debug_str:0000000000000233 .LASF44
     /tmp/ccQ7ORje.s:1724   .debug_loc:0000000000000104 .LLST3
     /tmp/ccQ7ORje.s:1912   .debug_str:000000000000044f .LASF45
     /tmp/ccQ7ORje.s:1798   .debug_str:000000000000008d .LASF71
     /tmp/ccQ7ORje.s:1735   .debug_loc:000000000000013a .LLST4
     /tmp/ccQ7ORje.s:1832   .debug_str:000000000000015c .LASF46
GAS LISTING /tmp/ccQ7ORje.s 			page 11


     /tmp/ccQ7ORje.s:195    .text:0000000000000148 .LBB15
     /tmp/ccQ7ORje.s:209    .text:000000000000015c .LBE15
     /tmp/ccQ7ORje.s:1742   .debug_loc:000000000000015d .LLST5
     /tmp/ccQ7ORje.s:204    .text:0000000000000158 .LVL27
     /tmp/ccQ7ORje.s:178    .text:0000000000000134 .LVL22
     /tmp/ccQ7ORje.s:146    .text:000000000000010c .LBB10
     /tmp/ccQ7ORje.s:154    .text:0000000000000110 .LBE10
     /tmp/ccQ7ORje.s:1749   .debug_loc:0000000000000180 .LLST1
     /tmp/ccQ7ORje.s:160    .text:0000000000000118 .LBB12
     /tmp/ccQ7ORje.s:167    .text:000000000000011c .LBE12
     /tmp/ccQ7ORje.s:1756   .debug_loc:00000000000001a3 .LLST2
     /tmp/ccQ7ORje.s:56     .text:0000000000000034 .LVL1
     /tmp/ccQ7ORje.s:66     .text:0000000000000044 .LVL4
     /tmp/ccQ7ORje.s:71     .text:0000000000000054 .LVL5
     /tmp/ccQ7ORje.s:76     .text:0000000000000060 .LVL6
     /tmp/ccQ7ORje.s:86     .text:0000000000000070 .LVL9
     /tmp/ccQ7ORje.s:91     .text:0000000000000080 .LVL10
     /tmp/ccQ7ORje.s:99     .text:0000000000000094 .LVL11
     /tmp/ccQ7ORje.s:112    .text:00000000000000bc .LVL12
     /tmp/ccQ7ORje.s:119    .text:00000000000000d0 .LVL13
     /tmp/ccQ7ORje.s:126    .text:00000000000000e8 .LVL14
     /tmp/ccQ7ORje.s:133    .text:00000000000000fc .LVL15
     /tmp/ccQ7ORje.s:139    .text:0000000000000108 .LVL16
     /tmp/ccQ7ORje.s:215    .text:000000000000016c .LVL29
     /tmp/ccQ7ORje.s:1872   .debug_str:0000000000000289 .LASF47
     /tmp/ccQ7ORje.s:1820   .debug_str:0000000000000128 .LASF48
     /tmp/ccQ7ORje.s:1900   .debug_str:00000000000003f2 .LASF72
     /tmp/ccQ7ORje.s:1882   .debug_str:00000000000002bd .LASF49
     /tmp/ccQ7ORje.s:1892   .debug_str:0000000000000307 .LASF51
     /tmp/ccQ7ORje.s:1836   .debug_str:0000000000000174 .LASF50
     /tmp/ccQ7ORje.s:1888   .debug_str:00000000000002e0 .LASF52
     /tmp/ccQ7ORje.s:1804   .debug_str:00000000000000c0 .LASF53
     /tmp/ccQ7ORje.s:1886   .debug_str:00000000000002d6 .LASF55
     /tmp/ccQ7ORje.s:1906   .debug_str:000000000000042d .LASF54
     /tmp/ccQ7ORje.s:1782   .debug_str:0000000000000024 .LASF56
     /tmp/ccQ7ORje.s:1916   .debug_str:0000000000000483 .LASF57
     /tmp/ccQ7ORje.s:1784   .debug_str:000000000000002d .LASF58
     /tmp/ccQ7ORje.s:60     .text:0000000000000038 .LVL2
     /tmp/ccQ7ORje.s:64     .text:000000000000003c .LVL3
     /tmp/ccQ7ORje.s:80     .text:0000000000000064 .LVL7
     /tmp/ccQ7ORje.s:84     .text:0000000000000068 .LVL8
     /tmp/ccQ7ORje.s:186    .text:000000000000013c .LVL24
     /tmp/ccQ7ORje.s:206    .text:000000000000015c .LVL28
     /tmp/ccQ7ORje.s:224    .text:0000000000000178 .LVL30
     /tmp/ccQ7ORje.s:232    .text:0000000000000184 .LVL32
     /tmp/ccQ7ORje.s:172    .text:0000000000000128 .LVL21
     /tmp/ccQ7ORje.s:182    .text:0000000000000138 .LVL23
     /tmp/ccQ7ORje.s:188    .text:0000000000000140 .LVL25
     /tmp/ccQ7ORje.s:227    .text:000000000000017c .LVL31
     /tmp/ccQ7ORje.s:194    .text:0000000000000148 .LVL26
     /tmp/ccQ7ORje.s:145    .text:000000000000010c .LVL17
     /tmp/ccQ7ORje.s:152    .text:0000000000000110 .LVL18
     /tmp/ccQ7ORje.s:159    .text:0000000000000118 .LVL19
     /tmp/ccQ7ORje.s:165    .text:000000000000011c .LVL20
     /tmp/ccQ7ORje.s:242    .debug_info:0000000000000000 .Ldebug_info0

UNDEFINED SYMBOLS
GAS LISTING /tmp/ccQ7ORje.s 			page 12


__supervisorTrap
_Z9mem_allocm
_Z8printHexm
_Z11printStringPKc
_ZN7kThread13createProcessEPFvPvES0_S0_
_ZN7kThread7runningE
_Z11workerBodyAPv
_Z11workerBodyBPv
_ZN7kThread5yieldEv
_ZdlPv
_ZdaPv
