GAS LISTING /tmp/ccX0w8De.s 			page 1


   1              		.file	"print.cpp"
   2              		.option pic
   3              		.option norelax
   4              		.text
   5              	.Ltext0:
   6              		.align	2
   7              		.globl	_Z11printStringPKc
   9              	_Z11printStringPKc:
  10              	.LFB0:
  11              		.file 1 "src/print.cpp"
   1:src/print.cpp **** //
   2:src/print.cpp **** // Created by marko on 20.4.22..
   3:src/print.cpp **** //
   4:src/print.cpp **** 
   5:src/print.cpp **** #include "../h/print.hpp"
   6:src/print.cpp **** #include "../lib/console.h"
   7:src/print.cpp **** 
   8:src/print.cpp **** void printString(char const *string)
   9:src/print.cpp **** {
  12              		.loc 1 9 1
  13              		.cfi_startproc
  14              	.LVL0:
  15 0000 130101FE 		addi	sp,sp,-32
  16              		.cfi_def_cfa_offset 32
  17 0004 233C1100 		sd	ra,24(sp)
  18 0008 23388100 		sd	s0,16(sp)
  19 000c 23349100 		sd	s1,8(sp)
  20              		.cfi_offset 1, -8
  21              		.cfi_offset 8, -16
  22              		.cfi_offset 9, -24
  23 0010 13040102 		addi	s0,sp,32
  24              		.cfi_def_cfa 8, 0
  25 0014 93040500 		mv	s1,a0
  26              	.LVL1:
  27              	.L3:
  10:src/print.cpp ****     while (*string != '\0')
  28              		.loc 1 10 5
  29              		.loc 1 10 20
  30              		.loc 1 10 12 is_stmt 0
  31 0018 03C50400 		lbu	a0,0(s1)
  32              		.loc 1 10 20
  33 001c 630A0500 		beqz	a0,.L1
  11:src/print.cpp ****     {
  12:src/print.cpp ****         __putc(*string);
  34              		.loc 1 12 9 is_stmt 1
  35              		.loc 1 12 15 is_stmt 0
  36 0020 97000000 		call	__putc@plt
  36      E7800000 
  37              	.LVL2:
  13:src/print.cpp ****         string++;
  38              		.loc 1 13 9 is_stmt 1
  39              		.loc 1 13 15 is_stmt 0
  40 0028 93841400 		addi	s1,s1,1
  41              	.LVL3:
  10:src/print.cpp ****     while (*string != '\0')
  42              		.loc 1 10 5
  43 002c 6FF0DFFE 		j	.L3
GAS LISTING /tmp/ccX0w8De.s 			page 2


  44              	.L1:
  14:src/print.cpp ****     }
  15:src/print.cpp **** }
  45              		.loc 1 15 1
  46 0030 83308101 		ld	ra,24(sp)
  47              		.cfi_restore 1
  48 0034 03340101 		ld	s0,16(sp)
  49              		.cfi_restore 8
  50              		.cfi_def_cfa 2, 32
  51 0038 83348100 		ld	s1,8(sp)
  52              		.cfi_restore 9
  53              	.LVL4:
  54 003c 13010102 		addi	sp,sp,32
  55              		.cfi_def_cfa_offset 0
  56 0040 67800000 		jr	ra
  57              		.cfi_endproc
  58              	.LFE0:
  60              		.align	2
  61              		.globl	_Z12printIntegerm
  63              	_Z12printIntegerm:
  64              	.LFB1:
  16:src/print.cpp **** 
  17:src/print.cpp **** void printInteger(uint64 integer)
  18:src/print.cpp **** {
  65              		.loc 1 18 1 is_stmt 1
  66              		.cfi_startproc
  67              	.LVL5:
  68 0044 130101FD 		addi	sp,sp,-48
  69              		.cfi_def_cfa_offset 48
  70 0048 23341102 		sd	ra,40(sp)
  71 004c 23308102 		sd	s0,32(sp)
  72 0050 233C9100 		sd	s1,24(sp)
  73              		.cfi_offset 1, -8
  74              		.cfi_offset 8, -16
  75              		.cfi_offset 9, -24
  76 0054 13040103 		addi	s0,sp,48
  77              		.cfi_def_cfa 8, 0
  19:src/print.cpp ****     static char digits[] = "0123456789";
  78              		.loc 1 19 5
  20:src/print.cpp ****     char buf[16];
  79              		.loc 1 20 5
  21:src/print.cpp ****     int i, neg;
  80              		.loc 1 21 5
  22:src/print.cpp ****     uint x;
  81              		.loc 1 22 5
  23:src/print.cpp **** 
  24:src/print.cpp ****     neg = 0;
  82              		.loc 1 24 5
  83              	.LVL6:
  25:src/print.cpp ****     if (integer < 0)
  84              		.loc 1 25 5
  26:src/print.cpp ****     {
  27:src/print.cpp ****         neg = 1;
  28:src/print.cpp ****         x = -integer;
  29:src/print.cpp ****     } else
  30:src/print.cpp ****     {
  31:src/print.cpp ****         x = integer;
GAS LISTING /tmp/ccX0w8De.s 			page 3


  85              		.loc 1 31 9
  86              		.loc 1 31 11 is_stmt 0
  87 0058 1B050500 		sext.w	a0,a0
  88              	.LVL7:
  32:src/print.cpp ****     }
  33:src/print.cpp **** 
  34:src/print.cpp ****     i = 0;
  89              		.loc 1 34 5 is_stmt 1
  90              		.loc 1 34 7 is_stmt 0
  91 005c 93040000 		li	s1,0
  92              	.LVL8:
  93              	.L6:
  35:src/print.cpp ****     do
  94              		.loc 1 35 5 is_stmt 1
  36:src/print.cpp ****     {
  37:src/print.cpp ****         buf[i++] = digits[x % 10];
  95              		.loc 1 37 9
  96              		.loc 1 37 29 is_stmt 0
  97 0060 1306A000 		li	a2,10
  98 0064 3B77C502 		remuw	a4,a0,a2
  99              	.LVL9:
 100              		.loc 1 37 33
 101 0068 93160702 		slli	a3,a4,32
 102 006c 93D60602 		srli	a3,a3,32
 103 0070 17070000 		lla	a4,.LANCHOR0
 103      13070700 
 104 0078 3307D700 		add	a4,a4,a3
 105 007c 03470700 		lbu	a4,0(a4)
 106              		.loc 1 37 18
 107 0080 930604FE 		addi	a3,s0,-32
 108 0084 B3879600 		add	a5,a3,s1
 109 0088 9B841400 		addiw	s1,s1,1
 110              	.LVL10:
 111 008c 2388E7FE 		sb	a4,-16(a5)
  38:src/print.cpp ****     } while ((x /= 10) != 0);
 112              		.loc 1 38 24 is_stmt 1
 113 0090 1B070500 		sext.w	a4,a0
 114              		.loc 1 38 17 is_stmt 0
 115 0094 3B55C502 		divuw	a0,a0,a2
 116              	.LVL11:
 117              		.loc 1 38 24
 118 0098 93079000 		li	a5,9
 119 009c E3E2E7FC 		bgtu	a4,a5,.L6
 120              	.LVL12:
 121              	.L8:
  39:src/print.cpp **** 
  40:src/print.cpp ****     if (neg==1)
  41:src/print.cpp ****         buf[i++] = '-';
  42:src/print.cpp **** 
  43:src/print.cpp ****     while (--i >= 0)
 122              		.loc 1 43 5 is_stmt 1
 123              		.loc 1 43 16
 124 00a0 9B84F4FF 		addiw	s1,s1,-1
 125              	.LVL13:
 126 00a4 63CE0400 		bltz	s1,.L5
  44:src/print.cpp ****         __putc(buf[i]);
 127              		.loc 1 44 9
GAS LISTING /tmp/ccX0w8De.s 			page 4


 128              		.loc 1 44 15 is_stmt 0
 129 00a8 930704FE 		addi	a5,s0,-32
 130 00ac B3879700 		add	a5,a5,s1
 131 00b0 03C507FF 		lbu	a0,-16(a5)
 132 00b4 97000000 		call	__putc@plt
 132      E7800000 
 133              	.LVL14:
 134 00bc 6FF05FFE 		j	.L8
 135              	.L5:
  45:src/print.cpp **** }
 136              		.loc 1 45 1
 137 00c0 83308102 		ld	ra,40(sp)
 138              		.cfi_restore 1
 139 00c4 03340102 		ld	s0,32(sp)
 140              		.cfi_restore 8
 141              		.cfi_def_cfa 2, 48
 142 00c8 83348101 		ld	s1,24(sp)
 143              		.cfi_restore 9
 144 00cc 13010103 		addi	sp,sp,48
 145              		.cfi_def_cfa_offset 0
 146 00d0 67800000 		jr	ra
 147              		.cfi_endproc
 148              	.LFE1:
 150              		.align	2
 151              		.globl	_Z8printHexm
 153              	_Z8printHexm:
 154              	.LFB2:
  46:src/print.cpp **** 
  47:src/print.cpp **** 
  48:src/print.cpp **** void printHex(uint64 integer)
  49:src/print.cpp **** {
 155              		.loc 1 49 1 is_stmt 1
 156              		.cfi_startproc
 157              	.LVL15:
 158 00d4 130101FC 		addi	sp,sp,-64
 159              		.cfi_def_cfa_offset 64
 160 00d8 233C1102 		sd	ra,56(sp)
 161 00dc 23388102 		sd	s0,48(sp)
 162 00e0 23349102 		sd	s1,40(sp)
 163              		.cfi_offset 1, -8
 164              		.cfi_offset 8, -16
 165              		.cfi_offset 9, -24
 166 00e4 13040104 		addi	s0,sp,64
 167              		.cfi_def_cfa 8, 0
  50:src/print.cpp ****     static char hexDigits[] = "0123456789ABCDEF";
 168              		.loc 1 50 5
  51:src/print.cpp ****     char hexChars[17];
 169              		.loc 1 51 5
  52:src/print.cpp ****     int index = 0;
 170              		.loc 1 52 5
 171              	.LVL16:
 172              		.loc 1 52 9 is_stmt 0
 173 00e8 93040000 		li	s1,0
 174              	.LVL17:
 175              	.L12:
  53:src/print.cpp **** 
  54:src/print.cpp ****     while (integer > 0) {
GAS LISTING /tmp/ccX0w8De.s 			page 5


 176              		.loc 1 54 5 is_stmt 1
 177              		.loc 1 54 20
 178 00ec 63080502 		beqz	a0,.L11
 179              	.LBB2:
  55:src/print.cpp ****         uint64 remainder = integer % 16;
 180              		.loc 1 55 9
 181              		.loc 1 55 16 is_stmt 0
 182 00f0 1377F500 		andi	a4,a0,15
 183              	.LVL18:
  56:src/print.cpp ****         hexChars[index++] = hexDigits[remainder];
 184              		.loc 1 56 9 is_stmt 1
 185              		.loc 1 56 48 is_stmt 0
 186 00f4 97070000 		lla	a5,.LANCHOR0
 186      93870700 
 187 00fc B387E700 		add	a5,a5,a4
 188 0100 03C70701 		lbu	a4,16(a5)
 189              	.LVL19:
 190              		.loc 1 56 27
 191 0104 930704FE 		addi	a5,s0,-32
 192 0108 B3879700 		add	a5,a5,s1
 193 010c 2384E7FE 		sb	a4,-24(a5)
  57:src/print.cpp ****         integer /= 16;
 194              		.loc 1 57 9 is_stmt 1
 195              		.loc 1 57 17 is_stmt 0
 196 0110 13554500 		srli	a0,a0,4
 197              	.LVL20:
  56:src/print.cpp ****         hexChars[index++] = hexDigits[remainder];
 198              		.loc 1 56 23
 199 0114 9B841400 		addiw	s1,s1,1
 200              	.LVL21:
 201              	.LBE2:
  54:src/print.cpp ****         uint64 remainder = integer % 16;
 202              		.loc 1 54 5
 203 0118 6FF05FFD 		j	.L12
 204              	.LVL22:
 205              	.L11:
  58:src/print.cpp ****     }
  59:src/print.cpp **** 
  60:src/print.cpp ****     __putc('0');
 206              		.loc 1 60 5 is_stmt 1
 207              		.loc 1 60 11 is_stmt 0
 208 011c 13050003 		li	a0,48
 209              	.LVL23:
 210 0120 97000000 		call	__putc@plt
 210      E7800000 
 211              	.LVL24:
  61:src/print.cpp ****     __putc('x');
 212              		.loc 1 61 5 is_stmt 1
 213              		.loc 1 61 11 is_stmt 0
 214 0128 13058007 		li	a0,120
 215 012c 97000000 		call	__putc@plt
 215      E7800000 
 216              	.LVL25:
 217              	.L14:
  62:src/print.cpp ****     // Print the hexadecimal characters in reverse order
  63:src/print.cpp ****     while (--index >= 0) {
 218              		.loc 1 63 5 is_stmt 1
GAS LISTING /tmp/ccX0w8De.s 			page 6


 219              		.loc 1 63 20
 220 0134 9B84F4FF 		addiw	s1,s1,-1
 221              	.LVL26:
 222 0138 63CE0400 		bltz	s1,.L10
  64:src/print.cpp ****         __putc(hexChars[index]);
 223              		.loc 1 64 9
 224              		.loc 1 64 15 is_stmt 0
 225 013c 930704FE 		addi	a5,s0,-32
 226 0140 B3879700 		add	a5,a5,s1
 227 0144 03C587FE 		lbu	a0,-24(a5)
 228 0148 97000000 		call	__putc@plt
 228      E7800000 
 229              	.LVL27:
 230 0150 6FF05FFE 		j	.L14
 231              	.L10:
  65:src/print.cpp ****     }
  66:src/print.cpp **** }...
 232              		.loc 1 66 1
 233 0154 83308103 		ld	ra,56(sp)
 234              		.cfi_restore 1
 235 0158 03340103 		ld	s0,48(sp)
 236              		.cfi_restore 8
 237              		.cfi_def_cfa 2, 64
 238 015c 83348102 		ld	s1,40(sp)
 239              		.cfi_restore 9
 240 0160 13010104 		addi	sp,sp,64
 241              		.cfi_def_cfa_offset 0
 242 0164 67800000 		jr	ra
 243              		.cfi_endproc
 244              	.LFE2:
 246              		.section	.rodata
 247              		.align	3
 248              		.set	.LANCHOR0,. + 0
 251              	_ZZ12printIntegermE6digits:
 252 0000 30313233 		.string	"0123456789"
 252      34353637 
 252      383900
 253 000b 00000000 		.zero	5
 253      00
 256              	_ZZ8printHexmE9hexDigits:
 257 0010 30313233 		.string	"0123456789ABCDEF"
 257      34353637 
 257      38394142 
 257      43444546 
 257      00
 258              		.text
 259              	.Letext0:
 260              		.file 2 "src/../h/../lib/hw.h"
 261              		.file 3 "src/../lib/console.h"
GAS LISTING /tmp/ccX0w8De.s 			page 7

