GAS LISTING /tmp/ccqc56oG.s 			page 1


   1              		.file	"syscall_c.cpp"
   2              		.option pic
   3              		.option norelax
   4              		.text
   5              	.Ltext0:
   6              		.align	2
   7              		.globl	_Z4testiiii
   9              	_Z4testiiii:
  10              	.LFB0:
  11              		.file 1 "src/syscall_c.cpp"
   1:src/syscall_c.cpp **** #include "../h/syscall_c.hpp"
   2:src/syscall_c.cpp **** #include "../lib/console.h"
   3:src/syscall_c.cpp **** 
   4:src/syscall_c.cpp **** int test(int arg1,int arg2, int arg3, int arg4)
   5:src/syscall_c.cpp **** {
  12              		.loc 1 5 1
  13              		.cfi_startproc
  14              	.LVL0:
  15 0000 130101FF 		addi	sp,sp,-16
  16              		.cfi_def_cfa_offset 16
  17 0004 23348100 		sd	s0,8(sp)
  18              		.cfi_offset 8, -8
  19 0008 13040101 		addi	s0,sp,16
  20              		.cfi_def_cfa 8, 0
   6:src/syscall_c.cpp ****     int ret = 0;
  21              		.loc 1 6 5
  22              	.LVL1:
   7:src/syscall_c.cpp **** 
   8:src/syscall_c.cpp ****     asm volatile("mv a6, %0" : : "r" (arg4)); //a3->a4
  23              		.loc 1 8 5
  24              		.loc 1 8 45 is_stmt 0
  25              	#APP
  26              	# 8 "src/syscall_c.cpp" 1
   9              	    asm volatile("mv a3, %0" : : "r" (arg3)); //a2->a3
  27              		mv a6, a3
  28              	# 0 "" 2
  29              		.loc 1 9 5 is_stmt 1
  30              		.loc 1 9 45 is_stmt 0
  31              	# 9 "src/syscall_c.cpp" 1
  10              	    asm volatile("mv a2, %0" : : "r" (arg2)); //a1->a2
  32              		mv a3, a2
  33              	# 0 "" 2
  34              		.loc 1 10 5 is_stmt 1
  35              		.loc 1 10 45 is_stmt 0
  36              	# 10 "src/syscall_c.cpp" 1
  11              	    asm volatile("mv a1, %0" : : "r" (arg1));//a0->a1
  37              		mv a2, a1
  38              	# 0 "" 2
  39              		.loc 1 11 5 is_stmt 1
  40              		.loc 1 11 45 is_stmt 0
  41              	# 11 "src/syscall_c.cpp" 1
  12              	    asm volatile("mv a0, %0" : : "r" (0x55));
  42              		mv a1, a0
  43              	# 0 "" 2
  44              		.loc 1 12 5 is_stmt 1
  45              		.loc 1 12 45 is_stmt 0
  46              	#NO_APP
GAS LISTING /tmp/ccqc56oG.s 			page 2


  47 001c 93075005 		li	a5,85
  48              	#APP
  49              	# 12 "src/syscall_c.cpp" 1
  13              	    asm volatile("ecall");
  50              		mv a0, a5
  51              	# 0 "" 2
  52              		.loc 1 13 5 is_stmt 1
  53              		.loc 1 13 26 is_stmt 0
  54              	# 13 "src/syscall_c.cpp" 1
  14              	    asm volatile("mv %0, a0" : "=r" (ret));
  55              		ecall
  56              	# 0 "" 2
  57              		.loc 1 14 5 is_stmt 1
  58              		.loc 1 14 43 is_stmt 0
  59              	# 14 "src/syscall_c.cpp" 1
  15              	
  60              		mv a0, a0
  61              	# 0 "" 2
  62              	.LVL2:
  16:src/syscall_c.cpp ****     return ret;
  63              		.loc 1 16 5 is_stmt 1
  17:src/syscall_c.cpp **** }
  64              		.loc 1 17 1 is_stmt 0
  65              	#NO_APP
  66 002c 1B050500 		sext.w	a0,a0
  67 0030 03348100 		ld	s0,8(sp)
  68              		.cfi_restore 8
  69              		.cfi_def_cfa 2, 16
  70 0034 13010101 		addi	sp,sp,16
  71              		.cfi_def_cfa_offset 0
  72 0038 67800000 		jr	ra
  73              		.cfi_endproc
  74              	.LFE0:
  76              		.align	2
  77              		.globl	_Z9mem_allocm
  79              	_Z9mem_allocm:
  80              	.LFB1:
  18:src/syscall_c.cpp **** void* mem_alloc(size_t size){
  81              		.loc 1 18 29 is_stmt 1
  82              		.cfi_startproc
  83              	.LVL3:
  84 003c 130101FF 		addi	sp,sp,-16
  85              		.cfi_def_cfa_offset 16
  86 0040 23348100 		sd	s0,8(sp)
  87              		.cfi_offset 8, -8
  88 0044 13040101 		addi	s0,sp,16
  89              		.cfi_def_cfa 8, 0
  19:src/syscall_c.cpp **** 
  20:src/syscall_c.cpp ****     void* ptr = nullptr; //moram u startu da ga imam inicijalizovanog
  90              		.loc 1 20 5
  91              	.LVL4:
  21:src/syscall_c.cpp ****     int numMemBlocks = size/MEM_BLOCK_SIZE;
  92              		.loc 1 21 5
  93              		.loc 1 21 28 is_stmt 0
  94 0048 93576500 		srli	a5,a0,6
  95              		.loc 1 21 9
  96 004c 9B870700 		sext.w	a5,a5
GAS LISTING /tmp/ccqc56oG.s 			page 3


  97              	.LVL5:
  22:src/syscall_c.cpp ****     if(size%MEM_BLOCK_SIZE) numMemBlocks += 1;
  98              		.loc 1 22 5 is_stmt 1
  99              		.loc 1 22 12 is_stmt 0
 100 0050 1375F503 		andi	a0,a0,63
 101              	.LVL6:
 102              		.loc 1 22 5
 103 0054 63040500 		beqz	a0,.L4
 104              		.loc 1 22 29 is_stmt 1 discriminator 1
 105              		.loc 1 22 42 is_stmt 0 discriminator 1
 106 0058 9B871700 		addiw	a5,a5,1
 107              	.LVL7:
 108              	.L4:
  23:src/syscall_c.cpp ****     __asm__ volatile("mv a0, %0" : : "r" (0x01));
 109              		.loc 1 23 5 is_stmt 1
 110              		.loc 1 23 49 is_stmt 0
 111 005c 13071000 		li	a4,1
 112              	#APP
 113              	# 23 "src/syscall_c.cpp" 1
  24              	    __asm__ volatile("mv a1, %0" : : "r" (numMemBlocks));
 114              		mv a0, a4
 115              	# 0 "" 2
 116              		.loc 1 24 5 is_stmt 1
 117              		.loc 1 24 57 is_stmt 0
 118              	# 24 "src/syscall_c.cpp" 1
  25              	    __asm__ volatile("ecall");
 119              		mv a1, a5
 120              	# 0 "" 2
 121              		.loc 1 25 5 is_stmt 1
 122              		.loc 1 25 30 is_stmt 0
 123              	# 25 "src/syscall_c.cpp" 1
  26              	    __asm__ volatile("mv %0, a0": "=r"(ptr));
 124              		ecall
 125              	# 0 "" 2
 126              		.loc 1 26 5 is_stmt 1
 127              		.loc 1 26 45 is_stmt 0
 128              	# 26 "src/syscall_c.cpp" 1
  27              	    return ptr;
 129              		mv a0, a0
 130              	# 0 "" 2
 131              	.LVL8:
 132              		.loc 1 27 5 is_stmt 1
  28:src/syscall_c.cpp **** }
 133              		.loc 1 28 1 is_stmt 0
 134              	#NO_APP
 135 0070 03348100 		ld	s0,8(sp)
 136              		.cfi_restore 8
 137              		.cfi_def_cfa 2, 16
 138 0074 13010101 		addi	sp,sp,16
 139              		.cfi_def_cfa_offset 0
 140 0078 67800000 		jr	ra
 141              		.cfi_endproc
 142              	.LFE1:
 144              		.align	2
 145              		.globl	_Z8mem_freePv
 147              	_Z8mem_freePv:
 148              	.LFB2:
GAS LISTING /tmp/ccqc56oG.s 			page 4


  29:src/syscall_c.cpp **** int mem_free(void* ptr){
 149              		.loc 1 29 24 is_stmt 1
 150              		.cfi_startproc
 151              	.LVL9:
 152 007c 130101FF 		addi	sp,sp,-16
 153              		.cfi_def_cfa_offset 16
 154 0080 23348100 		sd	s0,8(sp)
 155              		.cfi_offset 8, -8
 156 0084 13040101 		addi	s0,sp,16
 157              		.cfi_def_cfa 8, 0
  30:src/syscall_c.cpp ****     int ret = 0;
 158              		.loc 1 30 5
 159              	.LVL10:
  31:src/syscall_c.cpp ****     __asm__ volatile("mv a1, %0" : : "r" (ptr));
 160              		.loc 1 31 5
 161              		.loc 1 31 48 is_stmt 0
 162              	#APP
 163              	# 31 "src/syscall_c.cpp" 1
  32              	    __asm__ volatile("mv a0, %0" : : "r" (0x02));
 164              		mv a1, a0
 165              	# 0 "" 2
 166              		.loc 1 32 5 is_stmt 1
 167              		.loc 1 32 49 is_stmt 0
 168              	#NO_APP
 169 008c 93072000 		li	a5,2
 170              	#APP
 171              	# 32 "src/syscall_c.cpp" 1
  33              	    __asm__ volatile("ecall");
 172              		mv a0, a5
 173              	# 0 "" 2
 174              		.loc 1 33 5 is_stmt 1
 175              		.loc 1 33 30 is_stmt 0
 176              	# 33 "src/syscall_c.cpp" 1
  34              	    __asm__ volatile("mv %0, a0": "=r"(ret));
 177              		ecall
 178              	# 0 "" 2
 179              		.loc 1 34 5 is_stmt 1
 180              		.loc 1 34 45 is_stmt 0
 181              	# 34 "src/syscall_c.cpp" 1
  35              	    return ret;
 182              		mv a0, a0
 183              	# 0 "" 2
 184              	.LVL11:
 185              		.loc 1 35 5 is_stmt 1
  36:src/syscall_c.cpp **** }
 186              		.loc 1 36 1 is_stmt 0
 187              	#NO_APP
 188 009c 1B050500 		sext.w	a0,a0
 189 00a0 03348100 		ld	s0,8(sp)
 190              		.cfi_restore 8
 191              		.cfi_def_cfa 2, 16
 192 00a4 13010101 		addi	sp,sp,16
 193              		.cfi_def_cfa_offset 0
 194 00a8 67800000 		jr	ra
 195              		.cfi_endproc
 196              	.LFE2:
 198              		.align	2
GAS LISTING /tmp/ccqc56oG.s 			page 5


 199              		.globl	_Z13thread_createPP7kThreadPFvPvES2_
 201              	_Z13thread_createPP7kThreadPFvPvES2_:
 202              	.LFB3:
  37:src/syscall_c.cpp **** 
  38:src/syscall_c.cpp **** int thread_create(thread_t * handle, void(*start_routine)(void*), void* arg){
 203              		.loc 1 38 77 is_stmt 1
 204              		.cfi_startproc
 205              	.LVL12:
 206 00ac 130101FD 		addi	sp,sp,-48
 207              		.cfi_def_cfa_offset 48
 208 00b0 23341102 		sd	ra,40(sp)
 209 00b4 23308102 		sd	s0,32(sp)
 210 00b8 233C9100 		sd	s1,24(sp)
 211 00bc 23382101 		sd	s2,16(sp)
 212 00c0 23343101 		sd	s3,8(sp)
 213              		.cfi_offset 1, -8
 214              		.cfi_offset 8, -16
 215              		.cfi_offset 9, -24
 216              		.cfi_offset 18, -32
 217              		.cfi_offset 19, -40
 218 00c4 13040103 		addi	s0,sp,48
 219              		.cfi_def_cfa 8, 0
 220 00c8 13090500 		mv	s2,a0
 221 00cc 93840500 		mv	s1,a1
 222 00d0 93090600 		mv	s3,a2
  39:src/syscall_c.cpp **** 
  40:src/syscall_c.cpp ****     int ret = 0;
 223              		.loc 1 40 5
 224              	.LVL13:
  41:src/syscall_c.cpp ****     void* stack_space;
 225              		.loc 1 41 5
  42:src/syscall_c.cpp ****     if(start_routine)  stack_space = mem_alloc(DEFAULT_STACK_SIZE);
 226              		.loc 1 42 5
 227 00d4 63880504 		beqz	a1,.L10
 228              		.loc 1 42 24 discriminator 1
 229              		.loc 1 42 47 is_stmt 0 discriminator 1
 230 00d8 37150000 		li	a0,4096
 231              	.LVL14:
 232 00dc 97000000 		call	_Z9mem_allocm
 232      E7800000 
 233              	.LVL15:
 234              	.L9:
  43:src/syscall_c.cpp ****     else stack_space = nullptr;
  44:src/syscall_c.cpp **** 
  45:src/syscall_c.cpp ****     __asm__ volatile("mv a3, %0": :"r"(arg));
 235              		.loc 1 45 5 is_stmt 1
 236              		.loc 1 45 45 is_stmt 0
 237              	#APP
 238              	# 45 "src/syscall_c.cpp" 1
  46              	    __asm__ volatile("mv a2, %0": :"r"(start_routine)); //proveri
 239              		mv a3, s3
 240              	# 0 "" 2
 241              		.loc 1 46 5 is_stmt 1
 242              		.loc 1 46 55 is_stmt 0
 243              	# 46 "src/syscall_c.cpp" 1
  47              	    __asm__ volatile("mv a1, %0": :"r"(handle));
 244              		mv a2, s1
GAS LISTING /tmp/ccqc56oG.s 			page 6


 245              	# 0 "" 2
 246              		.loc 1 47 5 is_stmt 1
 247              		.loc 1 47 48 is_stmt 0
 248              	# 47 "src/syscall_c.cpp" 1
  48              	    __asm__ volatile("mv a6, %0": : "r"(stack_space));
 249              		mv a1, s2
 250              	# 0 "" 2
 251              		.loc 1 48 5 is_stmt 1
 252              		.loc 1 48 54 is_stmt 0
 253              	# 48 "src/syscall_c.cpp" 1
  49              	    __asm__ volatile("mv a0, %0" : : "r" (0x11));
 254              		mv a6, a0
 255              	# 0 "" 2
 256              		.loc 1 49 5 is_stmt 1
 257              		.loc 1 49 49 is_stmt 0
 258              	#NO_APP
 259 00f4 93071001 		li	a5,17
 260              	#APP
 261              	# 49 "src/syscall_c.cpp" 1
  50              	    __asm__ volatile("ecall"); //ovo je trenutak u kom menjam rezim
 262              		mv a0, a5
 263              	# 0 "" 2
 264              		.loc 1 50 5 is_stmt 1
 265              		.loc 1 50 30 is_stmt 0
 266              	# 50 "src/syscall_c.cpp" 1
  51              	    __asm__ volatile("mv %0, a0": "=r"(ret));
 267              		ecall
 268              	# 0 "" 2
 269              		.loc 1 51 5 is_stmt 1
 270              		.loc 1 51 45 is_stmt 0
 271              	# 51 "src/syscall_c.cpp" 1
  52              	
 272              		mv a0, a0
 273              	# 0 "" 2
 274              	.LVL16:
  53:src/syscall_c.cpp ****     return ret;
 275              		.loc 1 53 5 is_stmt 1
  54:src/syscall_c.cpp **** 
  55:src/syscall_c.cpp **** }
 276              		.loc 1 55 1 is_stmt 0
 277              	#NO_APP
 278 0104 1B050500 		sext.w	a0,a0
 279 0108 83308102 		ld	ra,40(sp)
 280              		.cfi_remember_state
 281              		.cfi_restore 1
 282 010c 03340102 		ld	s0,32(sp)
 283              		.cfi_restore 8
 284              		.cfi_def_cfa 2, 48
 285 0110 83348101 		ld	s1,24(sp)
 286              		.cfi_restore 9
 287              	.LVL17:
 288 0114 03390101 		ld	s2,16(sp)
 289              		.cfi_restore 18
 290              	.LVL18:
 291 0118 83398100 		ld	s3,8(sp)
 292              		.cfi_restore 19
 293              	.LVL19:
GAS LISTING /tmp/ccqc56oG.s 			page 7


 294 011c 13010103 		addi	sp,sp,48
 295              		.cfi_def_cfa_offset 0
 296 0120 67800000 		jr	ra
 297              	.LVL20:
 298              	.L10:
 299              		.cfi_restore_state
  43:src/syscall_c.cpp **** 
 300              		.loc 1 43 22
 301 0124 13050000 		li	a0,0
 302              	.LVL21:
 303 0128 6FF0DFFB 		j	.L9
 304              		.cfi_endproc
 305              	.LFE3:
 307              		.align	2
 308              		.globl	_Z11thread_exitv
 310              	_Z11thread_exitv:
 311              	.LFB4:
  56:src/syscall_c.cpp **** 
  57:src/syscall_c.cpp **** int thread_exit(){
 312              		.loc 1 57 18 is_stmt 1
 313              		.cfi_startproc
 314 012c 130101FF 		addi	sp,sp,-16
 315              		.cfi_def_cfa_offset 16
 316 0130 23348100 		sd	s0,8(sp)
 317              		.cfi_offset 8, -8
 318 0134 13040101 		addi	s0,sp,16
 319              		.cfi_def_cfa 8, 0
  58:src/syscall_c.cpp **** 
  59:src/syscall_c.cpp ****     int ret = 0;
 320              		.loc 1 59 5
 321              	.LVL22:
  60:src/syscall_c.cpp ****     __asm__ volatile("mv a0, %0" : : "r" (0x12));
 322              		.loc 1 60 5
 323              		.loc 1 60 49 is_stmt 0
 324 0138 93072001 		li	a5,18
 325              	#APP
 326              	# 60 "src/syscall_c.cpp" 1
  61              	    __asm__ volatile("ecall");
 327              		mv a0, a5
 328              	# 0 "" 2
 329              		.loc 1 61 5 is_stmt 1
 330              		.loc 1 61 30 is_stmt 0
 331              	# 61 "src/syscall_c.cpp" 1
  62              	    __asm__ volatile("mv %0, a0": "=r"(ret));
 332              		ecall
 333              	# 0 "" 2
 334              		.loc 1 62 5 is_stmt 1
 335              		.loc 1 62 45 is_stmt 0
 336              	# 62 "src/syscall_c.cpp" 1
  63              	    return ret;
 337              		mv a0, a0
 338              	# 0 "" 2
 339              	.LVL23:
 340              		.loc 1 63 5 is_stmt 1
  64:src/syscall_c.cpp **** 
  65:src/syscall_c.cpp **** }
 341              		.loc 1 65 1 is_stmt 0
GAS LISTING /tmp/ccqc56oG.s 			page 8


 342              	#NO_APP
 343 0148 1B050500 		sext.w	a0,a0
 344 014c 03348100 		ld	s0,8(sp)
 345              		.cfi_restore 8
 346              		.cfi_def_cfa 2, 16
 347 0150 13010101 		addi	sp,sp,16
 348              		.cfi_def_cfa_offset 0
 349 0154 67800000 		jr	ra
 350              		.cfi_endproc
 351              	.LFE4:
 353              		.align	2
 354              		.globl	_Z15thread_dispatchv
 356              	_Z15thread_dispatchv:
 357              	.LFB5:
  66:src/syscall_c.cpp **** 
  67:src/syscall_c.cpp **** void thread_dispatch(){
 358              		.loc 1 67 23 is_stmt 1
 359              		.cfi_startproc
 360 0158 130101FF 		addi	sp,sp,-16
 361              		.cfi_def_cfa_offset 16
 362 015c 23348100 		sd	s0,8(sp)
 363              		.cfi_offset 8, -8
 364 0160 13040101 		addi	s0,sp,16
 365              		.cfi_def_cfa 8, 0
  68:src/syscall_c.cpp **** 
  69:src/syscall_c.cpp ****     __asm__ volatile("mv a0, %0" : : "r" (0x13));
 366              		.loc 1 69 5
 367              		.loc 1 69 49 is_stmt 0
 368 0164 93073001 		li	a5,19
 369              	#APP
 370              	# 69 "src/syscall_c.cpp" 1
  70              	    __asm__ volatile("ecall");
 371              		mv a0, a5
 372              	# 0 "" 2
 373              		.loc 1 70 5 is_stmt 1
 374              		.loc 1 70 30 is_stmt 0
 375              	# 70 "src/syscall_c.cpp" 1
  71              	}
 376              		ecall
 377              	# 0 "" 2
 378              		.loc 1 71 1
 379              	#NO_APP
 380 0170 03348100 		ld	s0,8(sp)
 381              		.cfi_restore 8
 382              		.cfi_def_cfa 2, 16
 383 0174 13010101 		addi	sp,sp,16
 384              		.cfi_def_cfa_offset 0
 385 0178 67800000 		jr	ra
 386              		.cfi_endproc
 387              	.LFE5:
 389              		.align	2
 390              		.globl	_Z11thread_joinP7kThread
 392              	_Z11thread_joinP7kThread:
 393              	.LFB6:
  72:src/syscall_c.cpp **** 
  73:src/syscall_c.cpp **** void thread_join(thread_t handle){
 394              		.loc 1 73 34 is_stmt 1
GAS LISTING /tmp/ccqc56oG.s 			page 9


 395              		.cfi_startproc
 396              	.LVL24:
 397 017c 130101FF 		addi	sp,sp,-16
 398              		.cfi_def_cfa_offset 16
 399 0180 23348100 		sd	s0,8(sp)
 400              		.cfi_offset 8, -8
 401 0184 13040101 		addi	s0,sp,16
 402              		.cfi_def_cfa 8, 0
  74:src/syscall_c.cpp **** 
  75:src/syscall_c.cpp ****     __asm__ volatile("mv a1, %0" : : "r" (handle));
 403              		.loc 1 75 5
 404              		.loc 1 75 51 is_stmt 0
 405              	#APP
 406              	# 75 "src/syscall_c.cpp" 1
  76              	    __asm__ volatile("mv a0, %0" : : "r" (0x14));
 407              		mv a1, a0
 408              	# 0 "" 2
 409              		.loc 1 76 5 is_stmt 1
 410              		.loc 1 76 49 is_stmt 0
 411              	#NO_APP
 412 018c 93074001 		li	a5,20
 413              	#APP
 414              	# 76 "src/syscall_c.cpp" 1
  77              	    __asm__ volatile("ecall");
 415              		mv a0, a5
 416              	# 0 "" 2
 417              		.loc 1 77 5 is_stmt 1
 418              		.loc 1 77 30 is_stmt 0
 419              	# 77 "src/syscall_c.cpp" 1
  78              	}
 420              		ecall
 421              	# 0 "" 2
 422              		.loc 1 78 1
 423              	#NO_APP
 424 0198 03348100 		ld	s0,8(sp)
 425              		.cfi_restore 8
 426              		.cfi_def_cfa 2, 16
 427 019c 13010101 		addi	sp,sp,16
 428              		.cfi_def_cfa_offset 0
 429 01a0 67800000 		jr	ra
 430              		.cfi_endproc
 431              	.LFE6:
 433              		.align	2
 434              		.globl	_Z8sem_openPP10kSemaphorej
 436              	_Z8sem_openPP10kSemaphorej:
 437              	.LFB7:
  79:src/syscall_c.cpp **** 
  80:src/syscall_c.cpp **** int sem_open(sem_t* handle, unsigned init){
 438              		.loc 1 80 43 is_stmt 1
 439              		.cfi_startproc
 440              	.LVL25:
 441 01a4 130101FF 		addi	sp,sp,-16
 442              		.cfi_def_cfa_offset 16
 443 01a8 23348100 		sd	s0,8(sp)
 444              		.cfi_offset 8, -8
 445 01ac 13040101 		addi	s0,sp,16
 446              		.cfi_def_cfa 8, 0
GAS LISTING /tmp/ccqc56oG.s 			page 10


  81:src/syscall_c.cpp **** 
  82:src/syscall_c.cpp ****     int ret = 0;
 447              		.loc 1 82 5
 448              	.LVL26:
  83:src/syscall_c.cpp **** 
  84:src/syscall_c.cpp ****     __asm__ volatile("mv a2, %0" : : "r" (init));
 449              		.loc 1 84 5
 450              		.loc 1 84 49 is_stmt 0
 451              	#APP
 452              	# 84 "src/syscall_c.cpp" 1
  85              	    __asm__ volatile("mv a1, %0" : : "r" (handle));
 453              		mv a2, a1
 454              	# 0 "" 2
 455              		.loc 1 85 5 is_stmt 1
 456              		.loc 1 85 51 is_stmt 0
 457              	# 85 "src/syscall_c.cpp" 1
  86              	    __asm__ volatile("mv a0, %0" : : "r" (0x21));
 458              		mv a1, a0
 459              	# 0 "" 2
 460              		.loc 1 86 5 is_stmt 1
 461              		.loc 1 86 49 is_stmt 0
 462              	#NO_APP
 463 01b8 93071002 		li	a5,33
 464              	#APP
 465              	# 86 "src/syscall_c.cpp" 1
  87              	    __asm__ volatile("ecall");
 466              		mv a0, a5
 467              	# 0 "" 2
 468              		.loc 1 87 5 is_stmt 1
 469              		.loc 1 87 30 is_stmt 0
 470              	# 87 "src/syscall_c.cpp" 1
  88              	    __asm__ volatile("mv %0, a0": "=r"(ret));
 471              		ecall
 472              	# 0 "" 2
 473              		.loc 1 88 5 is_stmt 1
 474              		.loc 1 88 45 is_stmt 0
 475              	# 88 "src/syscall_c.cpp" 1
  89              	    return ret;
 476              		mv a0, a0
 477              	# 0 "" 2
 478              	.LVL27:
 479              		.loc 1 89 5 is_stmt 1
  90:src/syscall_c.cpp **** 
  91:src/syscall_c.cpp **** }
 480              		.loc 1 91 1 is_stmt 0
 481              	#NO_APP
 482 01c8 1B050500 		sext.w	a0,a0
 483 01cc 03348100 		ld	s0,8(sp)
 484              		.cfi_restore 8
 485              		.cfi_def_cfa 2, 16
 486 01d0 13010101 		addi	sp,sp,16
 487              		.cfi_def_cfa_offset 0
 488 01d4 67800000 		jr	ra
 489              		.cfi_endproc
 490              	.LFE7:
 492              		.align	2
 493              		.globl	_Z9sem_closeP10kSemaphore
GAS LISTING /tmp/ccqc56oG.s 			page 11


 495              	_Z9sem_closeP10kSemaphore:
 496              	.LFB8:
  92:src/syscall_c.cpp **** 
  93:src/syscall_c.cpp **** int sem_close(sem_t handle){
 497              		.loc 1 93 28 is_stmt 1
 498              		.cfi_startproc
 499              	.LVL28:
 500 01d8 130101FF 		addi	sp,sp,-16
 501              		.cfi_def_cfa_offset 16
 502 01dc 23348100 		sd	s0,8(sp)
 503              		.cfi_offset 8, -8
 504 01e0 13040101 		addi	s0,sp,16
 505              		.cfi_def_cfa 8, 0
  94:src/syscall_c.cpp **** 
  95:src/syscall_c.cpp ****     int ret = 0;
 506              		.loc 1 95 5
 507              	.LVL29:
  96:src/syscall_c.cpp ****     __asm__ volatile("mv a1, %0" : : "r" (handle));
 508              		.loc 1 96 5
 509              		.loc 1 96 51 is_stmt 0
 510              	#APP
 511              	# 96 "src/syscall_c.cpp" 1
  97              	    __asm__ volatile("mv a0, %0" : : "r" (0x22));
 512              		mv a1, a0
 513              	# 0 "" 2
 514              		.loc 1 97 5 is_stmt 1
 515              		.loc 1 97 49 is_stmt 0
 516              	#NO_APP
 517 01e8 93072002 		li	a5,34
 518              	#APP
 519              	# 97 "src/syscall_c.cpp" 1
  98              	    __asm__ volatile("ecall");
 520              		mv a0, a5
 521              	# 0 "" 2
 522              		.loc 1 98 5 is_stmt 1
 523              		.loc 1 98 30 is_stmt 0
 524              	# 98 "src/syscall_c.cpp" 1
  99              	    __asm__ volatile("mv %0, a0": "=r"(ret));
 525              		ecall
 526              	# 0 "" 2
 527              		.loc 1 99 5 is_stmt 1
 528              		.loc 1 99 45 is_stmt 0
 529              	# 99 "src/syscall_c.cpp" 1
 100              	    return ret;
 530              		mv a0, a0
 531              	# 0 "" 2
 532              	.LVL30:
 533              		.loc 1 100 5 is_stmt 1
 101:src/syscall_c.cpp **** 
 102:src/syscall_c.cpp **** }
 534              		.loc 1 102 1 is_stmt 0
 535              	#NO_APP
 536 01f8 1B050500 		sext.w	a0,a0
 537 01fc 03348100 		ld	s0,8(sp)
 538              		.cfi_restore 8
 539              		.cfi_def_cfa 2, 16
 540 0200 13010101 		addi	sp,sp,16
GAS LISTING /tmp/ccqc56oG.s 			page 12


 541              		.cfi_def_cfa_offset 0
 542 0204 67800000 		jr	ra
 543              		.cfi_endproc
 544              	.LFE8:
 546              		.align	2
 547              		.globl	_Z8sem_waitP10kSemaphore
 549              	_Z8sem_waitP10kSemaphore:
 550              	.LFB9:
 103:src/syscall_c.cpp **** 
 104:src/syscall_c.cpp **** int sem_wait(sem_t id){
 551              		.loc 1 104 23 is_stmt 1
 552              		.cfi_startproc
 553              	.LVL31:
 554 0208 130101FF 		addi	sp,sp,-16
 555              		.cfi_def_cfa_offset 16
 556 020c 23348100 		sd	s0,8(sp)
 557              		.cfi_offset 8, -8
 558 0210 13040101 		addi	s0,sp,16
 559              		.cfi_def_cfa 8, 0
 105:src/syscall_c.cpp **** 
 106:src/syscall_c.cpp ****     int ret = 0;
 560              		.loc 1 106 5
 561              	.LVL32:
 107:src/syscall_c.cpp ****     __asm__ volatile("mv a1, %0" : : "r" (id));
 562              		.loc 1 107 5
 563              		.loc 1 107 47 is_stmt 0
 564              	#APP
 565              	# 107 "src/syscall_c.cpp" 1
 108              	    __asm__ volatile("mv a0, %0" : : "r" (0x23));
 566              		mv a1, a0
 567              	# 0 "" 2
 568              		.loc 1 108 5 is_stmt 1
 569              		.loc 1 108 49 is_stmt 0
 570              	#NO_APP
 571 0218 93073002 		li	a5,35
 572              	#APP
 573              	# 108 "src/syscall_c.cpp" 1
 109              	    __asm__ volatile("ecall");
 574              		mv a0, a5
 575              	# 0 "" 2
 576              		.loc 1 109 5 is_stmt 1
 577              		.loc 1 109 30 is_stmt 0
 578              	# 109 "src/syscall_c.cpp" 1
 110              	    __asm__ volatile("mv %0, a0": "=r"(ret));
 579              		ecall
 580              	# 0 "" 2
 581              		.loc 1 110 5 is_stmt 1
 582              		.loc 1 110 45 is_stmt 0
 583              	# 110 "src/syscall_c.cpp" 1
 111              	    return ret;
 584              		mv a0, a0
 585              	# 0 "" 2
 586              	.LVL33:
 587              		.loc 1 111 5 is_stmt 1
 112:src/syscall_c.cpp **** 
 113:src/syscall_c.cpp **** }
 588              		.loc 1 113 1 is_stmt 0
GAS LISTING /tmp/ccqc56oG.s 			page 13


 589              	#NO_APP
 590 0228 1B050500 		sext.w	a0,a0
 591 022c 03348100 		ld	s0,8(sp)
 592              		.cfi_restore 8
 593              		.cfi_def_cfa 2, 16
 594 0230 13010101 		addi	sp,sp,16
 595              		.cfi_def_cfa_offset 0
 596 0234 67800000 		jr	ra
 597              		.cfi_endproc
 598              	.LFE9:
 600              		.align	2
 601              		.globl	_Z10sem_signalP10kSemaphore
 603              	_Z10sem_signalP10kSemaphore:
 604              	.LFB10:
 114:src/syscall_c.cpp **** 
 115:src/syscall_c.cpp **** int sem_signal(sem_t id){
 605              		.loc 1 115 25 is_stmt 1
 606              		.cfi_startproc
 607              	.LVL34:
 608 0238 130101FF 		addi	sp,sp,-16
 609              		.cfi_def_cfa_offset 16
 610 023c 23348100 		sd	s0,8(sp)
 611              		.cfi_offset 8, -8
 612 0240 13040101 		addi	s0,sp,16
 613              		.cfi_def_cfa 8, 0
 116:src/syscall_c.cpp **** 
 117:src/syscall_c.cpp ****     int ret = 0;
 614              		.loc 1 117 5
 615              	.LVL35:
 118:src/syscall_c.cpp ****     __asm__ volatile("mv a1, %0" : : "r" (id));
 616              		.loc 1 118 5
 617              		.loc 1 118 47 is_stmt 0
 618              	#APP
 619              	# 118 "src/syscall_c.cpp" 1
 119              	    __asm__ volatile("mv a0, %0" : : "r" (0x24));
 620              		mv a1, a0
 621              	# 0 "" 2
 622              		.loc 1 119 5 is_stmt 1
 623              		.loc 1 119 49 is_stmt 0
 624              	#NO_APP
 625 0248 93074002 		li	a5,36
 626              	#APP
 627              	# 119 "src/syscall_c.cpp" 1
 120              	    __asm__ volatile("ecall");
 628              		mv a0, a5
 629              	# 0 "" 2
 630              		.loc 1 120 5 is_stmt 1
 631              		.loc 1 120 30 is_stmt 0
 632              	# 120 "src/syscall_c.cpp" 1
 121              	    __asm__ volatile("mv %0, a0": "=r"(ret));
 633              		ecall
 634              	# 0 "" 2
 635              		.loc 1 121 5 is_stmt 1
 636              		.loc 1 121 45 is_stmt 0
 637              	# 121 "src/syscall_c.cpp" 1
 122              	    return ret;
 638              		mv a0, a0
GAS LISTING /tmp/ccqc56oG.s 			page 14


 639              	# 0 "" 2
 640              	.LVL36:
 641              		.loc 1 122 5 is_stmt 1
 123:src/syscall_c.cpp **** 
 124:src/syscall_c.cpp **** }
 642              		.loc 1 124 1 is_stmt 0
 643              	#NO_APP
 644 0258 1B050500 		sext.w	a0,a0
 645 025c 03348100 		ld	s0,8(sp)
 646              		.cfi_restore 8
 647              		.cfi_def_cfa 2, 16
 648 0260 13010101 		addi	sp,sp,16
 649              		.cfi_def_cfa_offset 0
 650 0264 67800000 		jr	ra
 651              		.cfi_endproc
 652              	.LFE10:
 654              		.align	2
 655              		.globl	_Z10time_sleepm
 657              	_Z10time_sleepm:
 658              	.LFB11:
 125:src/syscall_c.cpp **** 
 126:src/syscall_c.cpp **** int time_sleep(time_t time){
 659              		.loc 1 126 28 is_stmt 1
 660              		.cfi_startproc
 661              	.LVL37:
 662 0268 130101FF 		addi	sp,sp,-16
 663              		.cfi_def_cfa_offset 16
 664 026c 23348100 		sd	s0,8(sp)
 665              		.cfi_offset 8, -8
 666 0270 13040101 		addi	s0,sp,16
 667              		.cfi_def_cfa 8, 0
 127:src/syscall_c.cpp **** 
 128:src/syscall_c.cpp ****     int ret = 0;
 668              		.loc 1 128 5
 669              	.LVL38:
 129:src/syscall_c.cpp ****     __asm__ volatile("mv a1, %0" : : "r" (time));
 670              		.loc 1 129 5
 671              		.loc 1 129 49 is_stmt 0
 672              	#APP
 673              	# 129 "src/syscall_c.cpp" 1
 130              	    __asm__ volatile("mv a0, %0" : : "r" (0x31));
 674              		mv a1, a0
 675              	# 0 "" 2
 676              		.loc 1 130 5 is_stmt 1
 677              		.loc 1 130 49 is_stmt 0
 678              	#NO_APP
 679 0278 93071003 		li	a5,49
 680              	#APP
 681              	# 130 "src/syscall_c.cpp" 1
 131              	    __asm__ volatile("ecall");
 682              		mv a0, a5
 683              	# 0 "" 2
 684              		.loc 1 131 5 is_stmt 1
 685              		.loc 1 131 30 is_stmt 0
 686              	# 131 "src/syscall_c.cpp" 1
 132              	    __asm__ volatile("mv %0, a0": "=r"(ret));
 687              		ecall
GAS LISTING /tmp/ccqc56oG.s 			page 15


 688              	# 0 "" 2
 689              		.loc 1 132 5 is_stmt 1
 690              		.loc 1 132 45 is_stmt 0
 691              	# 132 "src/syscall_c.cpp" 1
 133              	    return ret;
 692              		mv a0, a0
 693              	# 0 "" 2
 694              	.LVL39:
 695              		.loc 1 133 5 is_stmt 1
 134:src/syscall_c.cpp **** }
 696              		.loc 1 134 1 is_stmt 0
 697              	#NO_APP
 698 0288 1B050500 		sext.w	a0,a0
 699 028c 03348100 		ld	s0,8(sp)
 700              		.cfi_restore 8
 701              		.cfi_def_cfa 2, 16
 702 0290 13010101 		addi	sp,sp,16
 703              		.cfi_def_cfa_offset 0
 704 0294 67800000 		jr	ra
 705              		.cfi_endproc
 706              	.LFE11:
 708              		.align	2
 709              		.globl	_Z4getcv
 711              	_Z4getcv:
 712              	.LFB12:
 135:src/syscall_c.cpp **** 
 136:src/syscall_c.cpp **** char getc(){
 713              		.loc 1 136 12 is_stmt 1
 714              		.cfi_startproc
 715 0298 130101FF 		addi	sp,sp,-16
 716              		.cfi_def_cfa_offset 16
 717 029c 23348100 		sd	s0,8(sp)
 718              		.cfi_offset 8, -8
 719 02a0 13040101 		addi	s0,sp,16
 720              		.cfi_def_cfa 8, 0
 137:src/syscall_c.cpp **** 
 138:src/syscall_c.cpp ****     char ret = '0';
 721              		.loc 1 138 5
 722              	.LVL40:
 139:src/syscall_c.cpp ****     __asm__ volatile("mv a0, %0" : : "r" (0x41));
 723              		.loc 1 139 5
 724              		.loc 1 139 49 is_stmt 0
 725 02a4 93071004 		li	a5,65
 726              	#APP
 727              	# 139 "src/syscall_c.cpp" 1
 140              	    __asm__ volatile("ecall");
 728              		mv a0, a5
 729              	# 0 "" 2
 730              		.loc 1 140 5 is_stmt 1
 731              		.loc 1 140 30 is_stmt 0
 732              	# 140 "src/syscall_c.cpp" 1
 141              	    __asm__ volatile("mv %0, a0": "=r"(ret));
 733              		ecall
 734              	# 0 "" 2
 735              		.loc 1 141 5 is_stmt 1
 736              		.loc 1 141 45 is_stmt 0
 737              	# 141 "src/syscall_c.cpp" 1
GAS LISTING /tmp/ccqc56oG.s 			page 16


 142              	    return ret;
 738              		mv a0, a0
 739              	# 0 "" 2
 740              	.LVL41:
 741              		.loc 1 142 5 is_stmt 1
 143:src/syscall_c.cpp **** 
 144:src/syscall_c.cpp **** }
 742              		.loc 1 144 1 is_stmt 0
 743              	#NO_APP
 744 02b4 1375F50F 		andi	a0,a0,0xff
 745 02b8 03348100 		ld	s0,8(sp)
 746              		.cfi_restore 8
 747              		.cfi_def_cfa 2, 16
 748 02bc 13010101 		addi	sp,sp,16
 749              		.cfi_def_cfa_offset 0
 750 02c0 67800000 		jr	ra
 751              		.cfi_endproc
 752              	.LFE12:
 754              		.align	2
 755              		.globl	_Z4putcc
 757              	_Z4putcc:
 758              	.LFB13:
 145:src/syscall_c.cpp **** 
 146:src/syscall_c.cpp **** void putc(char c){
 759              		.loc 1 146 18 is_stmt 1
 760              		.cfi_startproc
 761              	.LVL42:
 762 02c4 130101FF 		addi	sp,sp,-16
 763              		.cfi_def_cfa_offset 16
 764 02c8 23348100 		sd	s0,8(sp)
 765              		.cfi_offset 8, -8
 766 02cc 13040101 		addi	s0,sp,16
 767              		.cfi_def_cfa 8, 0
 147:src/syscall_c.cpp **** 
 148:src/syscall_c.cpp ****     __asm__ volatile("mv a1, %0" : : "r" (c));
 768              		.loc 1 148 5
 769              		.loc 1 148 46 is_stmt 0
 770              	#APP
 771              	# 148 "src/syscall_c.cpp" 1
 149              	    __asm__ volatile("mv a0, %0" : : "r" (0x42));
 772              		mv a1, a0
 773              	# 0 "" 2
 774              		.loc 1 149 5 is_stmt 1
 775              		.loc 1 149 49 is_stmt 0
 776              	#NO_APP
 777 02d4 93072004 		li	a5,66
 778              	#APP
 779              	# 149 "src/syscall_c.cpp" 1
 150              	    __asm__ volatile("ecall");
 780              		mv a0, a5
 781              	# 0 "" 2
 782              		.loc 1 150 5 is_stmt 1
 783              		.loc 1 150 30 is_stmt 0
 784              	# 150 "src/syscall_c.cpp" 1
 151              	
 152:src/syscall_c.cpp **** }
 785              		ecall
GAS LISTING /tmp/ccqc56oG.s 			page 17


 786              	# 0 "" 2
 787              		.loc 1 152 1
 788              	#NO_APP
 789 02e0 03348100 		ld	s0,8(sp)
 790              		.cfi_restore 8
 791              		.cfi_def_cfa 2, 16
 792 02e4 13010101 		addi	sp,sp,16
 793              		.cfi_def_cfa_offset 0
 794 02e8 67800000 		jr	ra
 795              		.cfi_endproc
 796              	.LFE13:
 798              	.Letext0:
 799              		.file 2 "src/../h/../lib/hw.h"
 800              		.file 3 "src/../h/syscall_c.hpp"
GAS LISTING /tmp/ccqc56oG.s 			page 18


DEFINED SYMBOLS
                            *ABS*:0000000000000000 syscall_c.cpp
     /tmp/ccqc56oG.s:9      .text:0000000000000000 _Z4testiiii
     /tmp/ccqc56oG.s:13     .text:0000000000000000 .L0 
     /tmp/ccqc56oG.s:15     .text:0000000000000000 .L0 
     /tmp/ccqc56oG.s:16     .text:0000000000000004 .L0 
     /tmp/ccqc56oG.s:18     .text:0000000000000008 .L0 
     /tmp/ccqc56oG.s:20     .text:000000000000000c .L0 
     /tmp/ccqc56oG.s:23     .text:000000000000000c .L0 
     /tmp/ccqc56oG.s:24     .text:000000000000000c .L0 
   src/syscall_c.cpp:8      .text:000000000000000c .L0 
     /tmp/ccqc56oG.s:30     .text:0000000000000010 .L0 
   src/syscall_c.cpp:9      .text:0000000000000010 .L0 
     /tmp/ccqc56oG.s:35     .text:0000000000000014 .L0 
   src/syscall_c.cpp:10     .text:0000000000000014 .L0 
     /tmp/ccqc56oG.s:40     .text:0000000000000018 .L0 
   src/syscall_c.cpp:11     .text:0000000000000018 .L0 
     /tmp/ccqc56oG.s:45     .text:000000000000001c .L0 
     /tmp/ccqc56oG.s:47     .text:000000000000001c .L0 
     /tmp/ccqc56oG.s:53     .text:0000000000000024 .L0 
   src/syscall_c.cpp:13     .text:0000000000000024 .L0 
     /tmp/ccqc56oG.s:58     .text:0000000000000028 .L0 
   src/syscall_c.cpp:14     .text:0000000000000028 .L0 
     /tmp/ccqc56oG.s:64     .text:000000000000002c .L0 
     /tmp/ccqc56oG.s:66     .text:000000000000002c .L0 
     /tmp/ccqc56oG.s:68     .text:0000000000000034 .L0 
     /tmp/ccqc56oG.s:69     .text:0000000000000034 .L0 
     /tmp/ccqc56oG.s:71     .text:0000000000000038 .L0 
     /tmp/ccqc56oG.s:73     .text:000000000000003c .L0 
     /tmp/ccqc56oG.s:79     .text:000000000000003c _Z9mem_allocm
     /tmp/ccqc56oG.s:82     .text:000000000000003c .L0 
     /tmp/ccqc56oG.s:84     .text:000000000000003c .L0 
     /tmp/ccqc56oG.s:85     .text:0000000000000040 .L0 
     /tmp/ccqc56oG.s:87     .text:0000000000000044 .L0 
     /tmp/ccqc56oG.s:89     .text:0000000000000048 .L0 
     /tmp/ccqc56oG.s:92     .text:0000000000000048 .L0 
     /tmp/ccqc56oG.s:93     .text:0000000000000048 .L0 
     /tmp/ccqc56oG.s:94     .text:0000000000000048 .L0 
     /tmp/ccqc56oG.s:96     .text:000000000000004c .L0 
     /tmp/ccqc56oG.s:99     .text:0000000000000050 .L0 
     /tmp/ccqc56oG.s:100    .text:0000000000000050 .L0 
     /tmp/ccqc56oG.s:103    .text:0000000000000054 .L0 
     /tmp/ccqc56oG.s:105    .text:0000000000000058 .L0 
     /tmp/ccqc56oG.s:106    .text:0000000000000058 .L0 
     /tmp/ccqc56oG.s:110    .text:000000000000005c .L0 
     /tmp/ccqc56oG.s:111    .text:000000000000005c .L0 
     /tmp/ccqc56oG.s:117    .text:0000000000000064 .L0 
   src/syscall_c.cpp:24     .text:0000000000000064 .L0 
     /tmp/ccqc56oG.s:122    .text:0000000000000068 .L0 
   src/syscall_c.cpp:25     .text:0000000000000068 .L0 
     /tmp/ccqc56oG.s:127    .text:000000000000006c .L0 
   src/syscall_c.cpp:26     .text:000000000000006c .L0 
     /tmp/ccqc56oG.s:133    .text:0000000000000070 .L0 
     /tmp/ccqc56oG.s:135    .text:0000000000000070 .L0 
     /tmp/ccqc56oG.s:136    .text:0000000000000074 .L0 
     /tmp/ccqc56oG.s:137    .text:0000000000000074 .L0 
     /tmp/ccqc56oG.s:139    .text:0000000000000078 .L0 
GAS LISTING /tmp/ccqc56oG.s 			page 19


     /tmp/ccqc56oG.s:141    .text:000000000000007c .L0 
     /tmp/ccqc56oG.s:147    .text:000000000000007c _Z8mem_freePv
     /tmp/ccqc56oG.s:150    .text:000000000000007c .L0 
     /tmp/ccqc56oG.s:152    .text:000000000000007c .L0 
     /tmp/ccqc56oG.s:153    .text:0000000000000080 .L0 
     /tmp/ccqc56oG.s:155    .text:0000000000000084 .L0 
     /tmp/ccqc56oG.s:157    .text:0000000000000088 .L0 
     /tmp/ccqc56oG.s:160    .text:0000000000000088 .L0 
     /tmp/ccqc56oG.s:161    .text:0000000000000088 .L0 
   src/syscall_c.cpp:31     .text:0000000000000088 .L0 
     /tmp/ccqc56oG.s:167    .text:000000000000008c .L0 
     /tmp/ccqc56oG.s:169    .text:000000000000008c .L0 
     /tmp/ccqc56oG.s:175    .text:0000000000000094 .L0 
   src/syscall_c.cpp:33     .text:0000000000000094 .L0 
     /tmp/ccqc56oG.s:180    .text:0000000000000098 .L0 
   src/syscall_c.cpp:34     .text:0000000000000098 .L0 
     /tmp/ccqc56oG.s:186    .text:000000000000009c .L0 
     /tmp/ccqc56oG.s:188    .text:000000000000009c .L0 
     /tmp/ccqc56oG.s:190    .text:00000000000000a4 .L0 
     /tmp/ccqc56oG.s:191    .text:00000000000000a4 .L0 
     /tmp/ccqc56oG.s:193    .text:00000000000000a8 .L0 
     /tmp/ccqc56oG.s:195    .text:00000000000000ac .L0 
     /tmp/ccqc56oG.s:201    .text:00000000000000ac _Z13thread_createPP7kThreadPFvPvES2_
     /tmp/ccqc56oG.s:204    .text:00000000000000ac .L0 
     /tmp/ccqc56oG.s:206    .text:00000000000000ac .L0 
     /tmp/ccqc56oG.s:207    .text:00000000000000b0 .L0 
     /tmp/ccqc56oG.s:213    .text:00000000000000c4 .L0 
     /tmp/ccqc56oG.s:214    .text:00000000000000c4 .L0 
     /tmp/ccqc56oG.s:215    .text:00000000000000c4 .L0 
     /tmp/ccqc56oG.s:216    .text:00000000000000c4 .L0 
     /tmp/ccqc56oG.s:217    .text:00000000000000c4 .L0 
     /tmp/ccqc56oG.s:219    .text:00000000000000c8 .L0 
     /tmp/ccqc56oG.s:225    .text:00000000000000d4 .L0 
     /tmp/ccqc56oG.s:226    .text:00000000000000d4 .L0 
     /tmp/ccqc56oG.s:227    .text:00000000000000d4 .L0 
     /tmp/ccqc56oG.s:229    .text:00000000000000d8 .L0 
     /tmp/ccqc56oG.s:230    .text:00000000000000d8 .L0 
     /tmp/ccqc56oG.s:236    .text:00000000000000e4 .L0 
   src/syscall_c.cpp:45     .text:00000000000000e4 .L0 
     /tmp/ccqc56oG.s:242    .text:00000000000000e8 .L0 
   src/syscall_c.cpp:46     .text:00000000000000e8 .L0 
     /tmp/ccqc56oG.s:247    .text:00000000000000ec .L0 
   src/syscall_c.cpp:47     .text:00000000000000ec .L0 
     /tmp/ccqc56oG.s:252    .text:00000000000000f0 .L0 
   src/syscall_c.cpp:48     .text:00000000000000f0 .L0 
     /tmp/ccqc56oG.s:257    .text:00000000000000f4 .L0 
     /tmp/ccqc56oG.s:259    .text:00000000000000f4 .L0 
     /tmp/ccqc56oG.s:265    .text:00000000000000fc .L0 
   src/syscall_c.cpp:50     .text:00000000000000fc .L0 
     /tmp/ccqc56oG.s:270    .text:0000000000000100 .L0 
   src/syscall_c.cpp:51     .text:0000000000000100 .L0 
     /tmp/ccqc56oG.s:276    .text:0000000000000104 .L0 
     /tmp/ccqc56oG.s:278    .text:0000000000000104 .L0 
     /tmp/ccqc56oG.s:280    .text:000000000000010c .L0 
     /tmp/ccqc56oG.s:281    .text:000000000000010c .L0 
     /tmp/ccqc56oG.s:283    .text:0000000000000110 .L0 
     /tmp/ccqc56oG.s:284    .text:0000000000000110 .L0 
GAS LISTING /tmp/ccqc56oG.s 			page 20


     /tmp/ccqc56oG.s:286    .text:0000000000000114 .L0 
     /tmp/ccqc56oG.s:289    .text:0000000000000118 .L0 
     /tmp/ccqc56oG.s:292    .text:000000000000011c .L0 
     /tmp/ccqc56oG.s:295    .text:0000000000000120 .L0 
     /tmp/ccqc56oG.s:299    .text:0000000000000124 .L0 
     /tmp/ccqc56oG.s:301    .text:0000000000000124 .L0 
     /tmp/ccqc56oG.s:304    .text:000000000000012c .L0 
     /tmp/ccqc56oG.s:310    .text:000000000000012c _Z11thread_exitv
     /tmp/ccqc56oG.s:313    .text:000000000000012c .L0 
     /tmp/ccqc56oG.s:314    .text:000000000000012c .L0 
     /tmp/ccqc56oG.s:315    .text:0000000000000130 .L0 
     /tmp/ccqc56oG.s:317    .text:0000000000000134 .L0 
     /tmp/ccqc56oG.s:319    .text:0000000000000138 .L0 
     /tmp/ccqc56oG.s:322    .text:0000000000000138 .L0 
     /tmp/ccqc56oG.s:323    .text:0000000000000138 .L0 
     /tmp/ccqc56oG.s:324    .text:0000000000000138 .L0 
     /tmp/ccqc56oG.s:330    .text:0000000000000140 .L0 
   src/syscall_c.cpp:61     .text:0000000000000140 .L0 
     /tmp/ccqc56oG.s:335    .text:0000000000000144 .L0 
   src/syscall_c.cpp:62     .text:0000000000000144 .L0 
     /tmp/ccqc56oG.s:341    .text:0000000000000148 .L0 
     /tmp/ccqc56oG.s:343    .text:0000000000000148 .L0 
     /tmp/ccqc56oG.s:345    .text:0000000000000150 .L0 
     /tmp/ccqc56oG.s:346    .text:0000000000000150 .L0 
     /tmp/ccqc56oG.s:348    .text:0000000000000154 .L0 
     /tmp/ccqc56oG.s:350    .text:0000000000000158 .L0 
     /tmp/ccqc56oG.s:356    .text:0000000000000158 _Z15thread_dispatchv
     /tmp/ccqc56oG.s:359    .text:0000000000000158 .L0 
     /tmp/ccqc56oG.s:360    .text:0000000000000158 .L0 
     /tmp/ccqc56oG.s:361    .text:000000000000015c .L0 
     /tmp/ccqc56oG.s:363    .text:0000000000000160 .L0 
     /tmp/ccqc56oG.s:365    .text:0000000000000164 .L0 
     /tmp/ccqc56oG.s:367    .text:0000000000000164 .L0 
     /tmp/ccqc56oG.s:368    .text:0000000000000164 .L0 
     /tmp/ccqc56oG.s:374    .text:000000000000016c .L0 
   src/syscall_c.cpp:70     .text:000000000000016c .L0 
     /tmp/ccqc56oG.s:380    .text:0000000000000170 .L0 
     /tmp/ccqc56oG.s:381    .text:0000000000000174 .L0 
     /tmp/ccqc56oG.s:382    .text:0000000000000174 .L0 
     /tmp/ccqc56oG.s:384    .text:0000000000000178 .L0 
     /tmp/ccqc56oG.s:386    .text:000000000000017c .L0 
     /tmp/ccqc56oG.s:392    .text:000000000000017c _Z11thread_joinP7kThread
     /tmp/ccqc56oG.s:395    .text:000000000000017c .L0 
     /tmp/ccqc56oG.s:397    .text:000000000000017c .L0 
     /tmp/ccqc56oG.s:398    .text:0000000000000180 .L0 
     /tmp/ccqc56oG.s:400    .text:0000000000000184 .L0 
     /tmp/ccqc56oG.s:402    .text:0000000000000188 .L0 
     /tmp/ccqc56oG.s:404    .text:0000000000000188 .L0 
   src/syscall_c.cpp:75     .text:0000000000000188 .L0 
     /tmp/ccqc56oG.s:410    .text:000000000000018c .L0 
     /tmp/ccqc56oG.s:412    .text:000000000000018c .L0 
     /tmp/ccqc56oG.s:418    .text:0000000000000194 .L0 
   src/syscall_c.cpp:77     .text:0000000000000194 .L0 
     /tmp/ccqc56oG.s:424    .text:0000000000000198 .L0 
     /tmp/ccqc56oG.s:425    .text:000000000000019c .L0 
     /tmp/ccqc56oG.s:426    .text:000000000000019c .L0 
     /tmp/ccqc56oG.s:428    .text:00000000000001a0 .L0 
GAS LISTING /tmp/ccqc56oG.s 			page 21


     /tmp/ccqc56oG.s:430    .text:00000000000001a4 .L0 
     /tmp/ccqc56oG.s:436    .text:00000000000001a4 _Z8sem_openPP10kSemaphorej
     /tmp/ccqc56oG.s:439    .text:00000000000001a4 .L0 
     /tmp/ccqc56oG.s:441    .text:00000000000001a4 .L0 
     /tmp/ccqc56oG.s:442    .text:00000000000001a8 .L0 
     /tmp/ccqc56oG.s:444    .text:00000000000001ac .L0 
     /tmp/ccqc56oG.s:446    .text:00000000000001b0 .L0 
     /tmp/ccqc56oG.s:449    .text:00000000000001b0 .L0 
     /tmp/ccqc56oG.s:450    .text:00000000000001b0 .L0 
   src/syscall_c.cpp:84     .text:00000000000001b0 .L0 
     /tmp/ccqc56oG.s:456    .text:00000000000001b4 .L0 
   src/syscall_c.cpp:85     .text:00000000000001b4 .L0 
     /tmp/ccqc56oG.s:461    .text:00000000000001b8 .L0 
     /tmp/ccqc56oG.s:463    .text:00000000000001b8 .L0 
     /tmp/ccqc56oG.s:469    .text:00000000000001c0 .L0 
   src/syscall_c.cpp:87     .text:00000000000001c0 .L0 
     /tmp/ccqc56oG.s:474    .text:00000000000001c4 .L0 
   src/syscall_c.cpp:88     .text:00000000000001c4 .L0 
     /tmp/ccqc56oG.s:480    .text:00000000000001c8 .L0 
     /tmp/ccqc56oG.s:482    .text:00000000000001c8 .L0 
     /tmp/ccqc56oG.s:484    .text:00000000000001d0 .L0 
     /tmp/ccqc56oG.s:485    .text:00000000000001d0 .L0 
     /tmp/ccqc56oG.s:487    .text:00000000000001d4 .L0 
     /tmp/ccqc56oG.s:489    .text:00000000000001d8 .L0 
     /tmp/ccqc56oG.s:495    .text:00000000000001d8 _Z9sem_closeP10kSemaphore
     /tmp/ccqc56oG.s:498    .text:00000000000001d8 .L0 
     /tmp/ccqc56oG.s:500    .text:00000000000001d8 .L0 
     /tmp/ccqc56oG.s:501    .text:00000000000001dc .L0 
     /tmp/ccqc56oG.s:503    .text:00000000000001e0 .L0 
     /tmp/ccqc56oG.s:505    .text:00000000000001e4 .L0 
     /tmp/ccqc56oG.s:508    .text:00000000000001e4 .L0 
     /tmp/ccqc56oG.s:509    .text:00000000000001e4 .L0 
   src/syscall_c.cpp:96     .text:00000000000001e4 .L0 
     /tmp/ccqc56oG.s:515    .text:00000000000001e8 .L0 
     /tmp/ccqc56oG.s:517    .text:00000000000001e8 .L0 
     /tmp/ccqc56oG.s:523    .text:00000000000001f0 .L0 
   src/syscall_c.cpp:98     .text:00000000000001f0 .L0 
     /tmp/ccqc56oG.s:528    .text:00000000000001f4 .L0 
   src/syscall_c.cpp:99     .text:00000000000001f4 .L0 
     /tmp/ccqc56oG.s:534    .text:00000000000001f8 .L0 
     /tmp/ccqc56oG.s:536    .text:00000000000001f8 .L0 
     /tmp/ccqc56oG.s:538    .text:0000000000000200 .L0 
     /tmp/ccqc56oG.s:539    .text:0000000000000200 .L0 
     /tmp/ccqc56oG.s:541    .text:0000000000000204 .L0 
     /tmp/ccqc56oG.s:543    .text:0000000000000208 .L0 
     /tmp/ccqc56oG.s:549    .text:0000000000000208 _Z8sem_waitP10kSemaphore
     /tmp/ccqc56oG.s:552    .text:0000000000000208 .L0 
     /tmp/ccqc56oG.s:554    .text:0000000000000208 .L0 
     /tmp/ccqc56oG.s:555    .text:000000000000020c .L0 
     /tmp/ccqc56oG.s:557    .text:0000000000000210 .L0 
     /tmp/ccqc56oG.s:559    .text:0000000000000214 .L0 
     /tmp/ccqc56oG.s:562    .text:0000000000000214 .L0 
     /tmp/ccqc56oG.s:563    .text:0000000000000214 .L0 
   src/syscall_c.cpp:107    .text:0000000000000214 .L0 
     /tmp/ccqc56oG.s:569    .text:0000000000000218 .L0 
     /tmp/ccqc56oG.s:571    .text:0000000000000218 .L0 
     /tmp/ccqc56oG.s:577    .text:0000000000000220 .L0 
GAS LISTING /tmp/ccqc56oG.s 			page 22


   src/syscall_c.cpp:109    .text:0000000000000220 .L0 
     /tmp/ccqc56oG.s:582    .text:0000000000000224 .L0 
   src/syscall_c.cpp:110    .text:0000000000000224 .L0 
     /tmp/ccqc56oG.s:588    .text:0000000000000228 .L0 
     /tmp/ccqc56oG.s:590    .text:0000000000000228 .L0 
     /tmp/ccqc56oG.s:592    .text:0000000000000230 .L0 
     /tmp/ccqc56oG.s:593    .text:0000000000000230 .L0 
     /tmp/ccqc56oG.s:595    .text:0000000000000234 .L0 
     /tmp/ccqc56oG.s:597    .text:0000000000000238 .L0 
     /tmp/ccqc56oG.s:603    .text:0000000000000238 _Z10sem_signalP10kSemaphore
     /tmp/ccqc56oG.s:606    .text:0000000000000238 .L0 
     /tmp/ccqc56oG.s:608    .text:0000000000000238 .L0 
     /tmp/ccqc56oG.s:609    .text:000000000000023c .L0 
     /tmp/ccqc56oG.s:611    .text:0000000000000240 .L0 
     /tmp/ccqc56oG.s:613    .text:0000000000000244 .L0 
     /tmp/ccqc56oG.s:616    .text:0000000000000244 .L0 
     /tmp/ccqc56oG.s:617    .text:0000000000000244 .L0 
   src/syscall_c.cpp:118    .text:0000000000000244 .L0 
     /tmp/ccqc56oG.s:623    .text:0000000000000248 .L0 
     /tmp/ccqc56oG.s:625    .text:0000000000000248 .L0 
     /tmp/ccqc56oG.s:631    .text:0000000000000250 .L0 
   src/syscall_c.cpp:120    .text:0000000000000250 .L0 
     /tmp/ccqc56oG.s:636    .text:0000000000000254 .L0 
   src/syscall_c.cpp:121    .text:0000000000000254 .L0 
     /tmp/ccqc56oG.s:642    .text:0000000000000258 .L0 
     /tmp/ccqc56oG.s:644    .text:0000000000000258 .L0 
     /tmp/ccqc56oG.s:646    .text:0000000000000260 .L0 
     /tmp/ccqc56oG.s:647    .text:0000000000000260 .L0 
     /tmp/ccqc56oG.s:649    .text:0000000000000264 .L0 
     /tmp/ccqc56oG.s:651    .text:0000000000000268 .L0 
     /tmp/ccqc56oG.s:657    .text:0000000000000268 _Z10time_sleepm
     /tmp/ccqc56oG.s:660    .text:0000000000000268 .L0 
     /tmp/ccqc56oG.s:662    .text:0000000000000268 .L0 
     /tmp/ccqc56oG.s:663    .text:000000000000026c .L0 
     /tmp/ccqc56oG.s:665    .text:0000000000000270 .L0 
     /tmp/ccqc56oG.s:667    .text:0000000000000274 .L0 
     /tmp/ccqc56oG.s:670    .text:0000000000000274 .L0 
     /tmp/ccqc56oG.s:671    .text:0000000000000274 .L0 
   src/syscall_c.cpp:129    .text:0000000000000274 .L0 
     /tmp/ccqc56oG.s:677    .text:0000000000000278 .L0 
     /tmp/ccqc56oG.s:679    .text:0000000000000278 .L0 
     /tmp/ccqc56oG.s:685    .text:0000000000000280 .L0 
   src/syscall_c.cpp:131    .text:0000000000000280 .L0 
     /tmp/ccqc56oG.s:690    .text:0000000000000284 .L0 
   src/syscall_c.cpp:132    .text:0000000000000284 .L0 
     /tmp/ccqc56oG.s:696    .text:0000000000000288 .L0 
     /tmp/ccqc56oG.s:698    .text:0000000000000288 .L0 
     /tmp/ccqc56oG.s:700    .text:0000000000000290 .L0 
     /tmp/ccqc56oG.s:701    .text:0000000000000290 .L0 
     /tmp/ccqc56oG.s:703    .text:0000000000000294 .L0 
     /tmp/ccqc56oG.s:705    .text:0000000000000298 .L0 
     /tmp/ccqc56oG.s:711    .text:0000000000000298 _Z4getcv
     /tmp/ccqc56oG.s:714    .text:0000000000000298 .L0 
     /tmp/ccqc56oG.s:715    .text:0000000000000298 .L0 
     /tmp/ccqc56oG.s:716    .text:000000000000029c .L0 
     /tmp/ccqc56oG.s:718    .text:00000000000002a0 .L0 
     /tmp/ccqc56oG.s:720    .text:00000000000002a4 .L0 
GAS LISTING /tmp/ccqc56oG.s 			page 23


     /tmp/ccqc56oG.s:723    .text:00000000000002a4 .L0 
     /tmp/ccqc56oG.s:724    .text:00000000000002a4 .L0 
     /tmp/ccqc56oG.s:725    .text:00000000000002a4 .L0 
     /tmp/ccqc56oG.s:731    .text:00000000000002ac .L0 
   src/syscall_c.cpp:140    .text:00000000000002ac .L0 
     /tmp/ccqc56oG.s:736    .text:00000000000002b0 .L0 
   src/syscall_c.cpp:141    .text:00000000000002b0 .L0 
     /tmp/ccqc56oG.s:742    .text:00000000000002b4 .L0 
     /tmp/ccqc56oG.s:744    .text:00000000000002b4 .L0 
     /tmp/ccqc56oG.s:746    .text:00000000000002bc .L0 
     /tmp/ccqc56oG.s:747    .text:00000000000002bc .L0 
     /tmp/ccqc56oG.s:749    .text:00000000000002c0 .L0 
     /tmp/ccqc56oG.s:751    .text:00000000000002c4 .L0 
     /tmp/ccqc56oG.s:757    .text:00000000000002c4 _Z4putcc
     /tmp/ccqc56oG.s:760    .text:00000000000002c4 .L0 
     /tmp/ccqc56oG.s:762    .text:00000000000002c4 .L0 
     /tmp/ccqc56oG.s:763    .text:00000000000002c8 .L0 
     /tmp/ccqc56oG.s:765    .text:00000000000002cc .L0 
     /tmp/ccqc56oG.s:767    .text:00000000000002d0 .L0 
     /tmp/ccqc56oG.s:769    .text:00000000000002d0 .L0 
   src/syscall_c.cpp:148    .text:00000000000002d0 .L0 
     /tmp/ccqc56oG.s:775    .text:00000000000002d4 .L0 
     /tmp/ccqc56oG.s:777    .text:00000000000002d4 .L0 
     /tmp/ccqc56oG.s:783    .text:00000000000002dc .L0 
   src/syscall_c.cpp:150    .text:00000000000002dc .L0 
     /tmp/ccqc56oG.s:789    .text:00000000000002e0 .L0 
     /tmp/ccqc56oG.s:790    .text:00000000000002e4 .L0 
     /tmp/ccqc56oG.s:791    .text:00000000000002e4 .L0 
     /tmp/ccqc56oG.s:793    .text:00000000000002e8 .L0 
     /tmp/ccqc56oG.s:795    .text:00000000000002ec .L0 
     /tmp/ccqc56oG.s:801    .text:00000000000002ec .L0 
     /tmp/ccqc56oG.s:108    .text:000000000000005c .L4
     /tmp/ccqc56oG.s:298    .text:0000000000000124 .L10
     /tmp/ccqc56oG.s:234    .text:00000000000000e4 .L9
     /tmp/ccqc56oG.s:1380   .debug_abbrev:0000000000000000 .Ldebug_abbrev0
     /tmp/ccqc56oG.s:2189   .debug_str:000000000000018e .LASF60
     /tmp/ccqc56oG.s:2257   .debug_str:0000000000000402 .LASF61
     /tmp/ccqc56oG.s:2141   .debug_str:000000000000004d .LASF62
     /tmp/ccqc56oG.s:5      .text:0000000000000000 .Ltext0
     /tmp/ccqc56oG.s:798    .text:00000000000002ec .Letext0
     /tmp/ccqc56oG.s:2129   .debug_line:0000000000000000 .Ldebug_line0
     /tmp/ccqc56oG.s:2199   .debug_str:000000000000028a .LASF0
     /tmp/ccqc56oG.s:2177   .debug_str:0000000000000146 .LASF1
     /tmp/ccqc56oG.s:2167   .debug_str:000000000000010e .LASF2
     /tmp/ccqc56oG.s:2147   .debug_str:0000000000000085 .LASF4
     /tmp/ccqc56oG.s:2175   .debug_str:0000000000000134 .LASF3
     /tmp/ccqc56oG.s:2137   .debug_str:000000000000003a .LASF5
     /tmp/ccqc56oG.s:2207   .debug_str:00000000000002ac .LASF6
     /tmp/ccqc56oG.s:2133   .debug_str:000000000000000e .LASF7
     /tmp/ccqc56oG.s:2159   .debug_str:00000000000000e2 .LASF8
     /tmp/ccqc56oG.s:2209   .debug_str:00000000000002b3 .LASF9
     /tmp/ccqc56oG.s:2145   .debug_str:0000000000000077 .LASF10
     /tmp/ccqc56oG.s:2259   .debug_str:0000000000000414 .LASF11
     /tmp/ccqc56oG.s:2161   .debug_str:00000000000000f5 .LASF12
     /tmp/ccqc56oG.s:2243   .debug_str:00000000000003a6 .LASF13
     /tmp/ccqc56oG.s:2217   .debug_str:00000000000002e7 .LASF14
     /tmp/ccqc56oG.s:2181   .debug_str:0000000000000162 .LASF15
GAS LISTING /tmp/ccqc56oG.s 			page 24


     /tmp/ccqc56oG.s:2155   .debug_str:00000000000000b7 .LASF16
     /tmp/ccqc56oG.s:2213   .debug_str:00000000000002c8 .LASF17
     /tmp/ccqc56oG.s:2215   .debug_str:00000000000002de .LASF18
     /tmp/ccqc56oG.s:2223   .debug_str:0000000000000310 .LASF20
     /tmp/ccqc56oG.s:2143   .debug_str:0000000000000071 .LASF19
     /tmp/ccqc56oG.s:2231   .debug_str:000000000000034e .LASF21
     /tmp/ccqc56oG.s:2227   .debug_str:0000000000000324 .LASF38
     /tmp/ccqc56oG.s:2179   .debug_str:0000000000000159 .LASF40
     /tmp/ccqc56oG.s:758    .text:00000000000002c4 .LFB13
     /tmp/ccqc56oG.s:796    .text:00000000000002ec .LFE13
     /tmp/ccqc56oG.s:2205   .debug_str:00000000000002a7 .LASF22
     /tmp/ccqc56oG.s:2169   .debug_str:000000000000011c .LASF23
     /tmp/ccqc56oG.s:2249   .debug_str:00000000000003cc .LASF25
     /tmp/ccqc56oG.s:712    .text:0000000000000298 .LFB12
     /tmp/ccqc56oG.s:752    .text:00000000000002c4 .LFE12
     /tmp/ccqc56oG.s:1789   .debug_loc:0000000000000000 .LLST22
     /tmp/ccqc56oG.s:2203   .debug_str:000000000000029c .LASF24
     /tmp/ccqc56oG.s:2233   .debug_str:0000000000000359 .LASF26
     /tmp/ccqc56oG.s:658    .text:0000000000000268 .LFB11
     /tmp/ccqc56oG.s:706    .text:0000000000000298 .LFE11
     /tmp/ccqc56oG.s:2211   .debug_str:00000000000002c3 .LASF27
     /tmp/ccqc56oG.s:1802   .debug_loc:0000000000000038 .LLST20
     /tmp/ccqc56oG.s:1816   .debug_loc:0000000000000071 .LLST21
     /tmp/ccqc56oG.s:2185   .debug_str:0000000000000175 .LASF28
     /tmp/ccqc56oG.s:2193   .debug_str:000000000000025b .LASF29
     /tmp/ccqc56oG.s:604    .text:0000000000000238 .LFB10
     /tmp/ccqc56oG.s:652    .text:0000000000000268 .LFE10
     /tmp/ccqc56oG.s:1828   .debug_loc:00000000000000a8 .LLST18
     /tmp/ccqc56oG.s:1842   .debug_loc:00000000000000e1 .LLST19
     /tmp/ccqc56oG.s:2191   .debug_str:0000000000000252 .LASF30
     /tmp/ccqc56oG.s:2135   .debug_str:0000000000000021 .LASF31
     /tmp/ccqc56oG.s:550    .text:0000000000000208 .LFB9
     /tmp/ccqc56oG.s:598    .text:0000000000000238 .LFE9
     /tmp/ccqc56oG.s:1854   .debug_loc:0000000000000118 .LLST16
     /tmp/ccqc56oG.s:1868   .debug_loc:0000000000000151 .LLST17
     /tmp/ccqc56oG.s:2173   .debug_str:000000000000012a .LASF32
     /tmp/ccqc56oG.s:2151   .debug_str:0000000000000098 .LASF33
     /tmp/ccqc56oG.s:496    .text:00000000000001d8 .LFB8
     /tmp/ccqc56oG.s:544    .text:0000000000000208 .LFE8
     /tmp/ccqc56oG.s:2183   .debug_str:000000000000016e .LASF34
     /tmp/ccqc56oG.s:1880   .debug_loc:0000000000000188 .LLST14
     /tmp/ccqc56oG.s:1894   .debug_loc:00000000000001c1 .LLST15
     /tmp/ccqc56oG.s:2171   .debug_str:0000000000000121 .LASF35
     /tmp/ccqc56oG.s:2255   .debug_str:00000000000003e7 .LASF36
     /tmp/ccqc56oG.s:437    .text:00000000000001a4 .LFB7
     /tmp/ccqc56oG.s:490    .text:00000000000001d8 .LFE7
     /tmp/ccqc56oG.s:1906   .debug_loc:00000000000001f8 .LLST12
     /tmp/ccqc56oG.s:2153   .debug_str:00000000000000b2 .LASF37
     /tmp/ccqc56oG.s:1920   .debug_loc:0000000000000231 .LLST13
     /tmp/ccqc56oG.s:2139   .debug_str:0000000000000041 .LASF39
     /tmp/ccqc56oG.s:2241   .debug_str:000000000000038d .LASF41
     /tmp/ccqc56oG.s:393    .text:000000000000017c .LFB6
     /tmp/ccqc56oG.s:431    .text:00000000000001a4 .LFE6
     /tmp/ccqc56oG.s:2221   .debug_str:0000000000000300 .LASF63
     /tmp/ccqc56oG.s:2157   .debug_str:00000000000000cd .LASF64
     /tmp/ccqc56oG.s:357    .text:0000000000000158 .LFB5
     /tmp/ccqc56oG.s:387    .text:000000000000017c .LFE5
GAS LISTING /tmp/ccqc56oG.s 			page 25


     /tmp/ccqc56oG.s:2245   .debug_str:00000000000003b6 .LASF42
     /tmp/ccqc56oG.s:2239   .debug_str:000000000000037c .LASF43
     /tmp/ccqc56oG.s:311    .text:000000000000012c .LFB4
     /tmp/ccqc56oG.s:351    .text:0000000000000158 .LFE4
     /tmp/ccqc56oG.s:1932   .debug_loc:0000000000000268 .LLST11
     /tmp/ccqc56oG.s:2237   .debug_str:000000000000036e .LASF44
     /tmp/ccqc56oG.s:2229   .debug_str:0000000000000329 .LASF45
     /tmp/ccqc56oG.s:202    .text:00000000000000ac .LFB3
     /tmp/ccqc56oG.s:305    .text:000000000000012c .LFE3
     /tmp/ccqc56oG.s:1944   .debug_loc:000000000000029f .LLST6
     /tmp/ccqc56oG.s:2187   .debug_str:0000000000000180 .LASF46
     /tmp/ccqc56oG.s:1970   .debug_loc:0000000000000311 .LLST7
     /tmp/ccqc56oG.s:1992   .debug_loc:0000000000000370 .LLST8
     /tmp/ccqc56oG.s:2014   .debug_loc:00000000000003cf .LLST9
     /tmp/ccqc56oG.s:2225   .debug_str:0000000000000318 .LASF47
     /tmp/ccqc56oG.s:2031   .debug_loc:000000000000041a .LLST10
     /tmp/ccqc56oG.s:233    .text:00000000000000e4 .LVL15
     /tmp/ccqc56oG.s:2219   .debug_str:00000000000002f7 .LASF48
     /tmp/ccqc56oG.s:2131   .debug_str:0000000000000000 .LASF49
     /tmp/ccqc56oG.s:148    .text:000000000000007c .LFB2
     /tmp/ccqc56oG.s:196    .text:00000000000000ac .LFE2
     /tmp/ccqc56oG.s:2038   .debug_loc:000000000000043d .LLST4
     /tmp/ccqc56oG.s:2052   .debug_loc:0000000000000476 .LLST5
     /tmp/ccqc56oG.s:2247   .debug_str:00000000000003c2 .LASF50
     /tmp/ccqc56oG.s:2195   .debug_str:0000000000000277 .LASF51
     /tmp/ccqc56oG.s:80     .text:000000000000003c .LFB1
     /tmp/ccqc56oG.s:142    .text:000000000000007c .LFE1
     /tmp/ccqc56oG.s:2251   .debug_str:00000000000003d5 .LASF52
     /tmp/ccqc56oG.s:2064   .debug_loc:00000000000004ad .LLST2
     /tmp/ccqc56oG.s:2078   .debug_loc:00000000000004e6 .LLST3
     /tmp/ccqc56oG.s:2253   .debug_str:00000000000003da .LASF53
     /tmp/ccqc56oG.s:2197   .debug_str:0000000000000285 .LASF54
     /tmp/ccqc56oG.s:2149   .debug_str:000000000000008c .LASF55
     /tmp/ccqc56oG.s:10     .text:0000000000000000 .LFB0
     /tmp/ccqc56oG.s:74     .text:000000000000003c .LFE0
     /tmp/ccqc56oG.s:2163   .debug_str:0000000000000104 .LASF56
     /tmp/ccqc56oG.s:2090   .debug_loc:000000000000051d .LLST0
     /tmp/ccqc56oG.s:2165   .debug_str:0000000000000109 .LASF57
     /tmp/ccqc56oG.s:2201   .debug_str:0000000000000297 .LASF58
     /tmp/ccqc56oG.s:2235   .debug_str:0000000000000369 .LASF59
     /tmp/ccqc56oG.s:2104   .debug_loc:0000000000000556 .LLST1
     /tmp/ccqc56oG.s:722    .text:00000000000002a4 .LVL40
     /tmp/ccqc56oG.s:740    .text:00000000000002b4 .LVL41
     /tmp/ccqc56oG.s:661    .text:0000000000000268 .LVL37
     /tmp/ccqc56oG.s:694    .text:0000000000000288 .LVL39
     /tmp/ccqc56oG.s:669    .text:0000000000000274 .LVL38
     /tmp/ccqc56oG.s:607    .text:0000000000000238 .LVL34
     /tmp/ccqc56oG.s:640    .text:0000000000000258 .LVL36
     /tmp/ccqc56oG.s:615    .text:0000000000000244 .LVL35
     /tmp/ccqc56oG.s:553    .text:0000000000000208 .LVL31
     /tmp/ccqc56oG.s:586    .text:0000000000000228 .LVL33
     /tmp/ccqc56oG.s:561    .text:0000000000000214 .LVL32
     /tmp/ccqc56oG.s:499    .text:00000000000001d8 .LVL28
     /tmp/ccqc56oG.s:532    .text:00000000000001f8 .LVL30
     /tmp/ccqc56oG.s:507    .text:00000000000001e4 .LVL29
     /tmp/ccqc56oG.s:440    .text:00000000000001a4 .LVL25
     /tmp/ccqc56oG.s:478    .text:00000000000001c8 .LVL27
GAS LISTING /tmp/ccqc56oG.s 			page 26


     /tmp/ccqc56oG.s:448    .text:00000000000001b0 .LVL26
     /tmp/ccqc56oG.s:321    .text:0000000000000138 .LVL22
     /tmp/ccqc56oG.s:339    .text:0000000000000148 .LVL23
     /tmp/ccqc56oG.s:205    .text:00000000000000ac .LVL12
     /tmp/ccqc56oG.s:231    .text:00000000000000dc .LVL14
     /tmp/ccqc56oG.s:290    .text:0000000000000118 .LVL18
     /tmp/ccqc56oG.s:297    .text:0000000000000124 .LVL20
     /tmp/ccqc56oG.s:302    .text:0000000000000128 .LVL21
     /tmp/ccqc56oG.s:287    .text:0000000000000114 .LVL17
     /tmp/ccqc56oG.s:293    .text:000000000000011c .LVL19
     /tmp/ccqc56oG.s:224    .text:00000000000000d4 .LVL13
     /tmp/ccqc56oG.s:274    .text:0000000000000104 .LVL16
     /tmp/ccqc56oG.s:151    .text:000000000000007c .LVL9
     /tmp/ccqc56oG.s:184    .text:000000000000009c .LVL11
     /tmp/ccqc56oG.s:159    .text:0000000000000088 .LVL10
     /tmp/ccqc56oG.s:83     .text:000000000000003c .LVL3
     /tmp/ccqc56oG.s:101    .text:0000000000000054 .LVL6
     /tmp/ccqc56oG.s:91     .text:0000000000000048 .LVL4
     /tmp/ccqc56oG.s:131    .text:0000000000000070 .LVL8
     /tmp/ccqc56oG.s:14     .text:0000000000000000 .LVL0
     /tmp/ccqc56oG.s:62     .text:000000000000002c .LVL2
     /tmp/ccqc56oG.s:22     .text:000000000000000c .LVL1
     /tmp/ccqc56oG.s:802    .debug_info:0000000000000000 .Ldebug_info0

NO UNDEFINED SYMBOLS
