GAS LISTING /tmp/ccqqxKun.s 			page 1


   1              		.file	"syscall_c.cpp"
   2              		.option pic
   3              		.option norelax
   4              		.text
   5              	.Ltext0:
   6              		.align	2
   7              		.globl	_Z4testi
   9              	_Z4testi:
  10              	.LFB0:
  11              		.file 1 "src/syscall_c.cpp"
   1:src/syscall_c.cpp **** #include "../h/syscall_c.hpp"
   2:src/syscall_c.cpp **** #include "../lib/console.h"
   3:src/syscall_c.cpp **** 
   4:src/syscall_c.cpp **** int test(int arg)
   5:src/syscall_c.cpp **** {
  12              		.loc 1 5 1
  13              		.cfi_startproc
  14              	.LVL0:
  15 0000 130101FF 		addi	sp,sp,-16
  16              		.cfi_def_cfa_offset 16
  17 0004 23348100 		sd	s0,8(sp)
  18              		.cfi_offset 8, -8
  19 0008 13040101 		addi	s0,sp,16
  20              		.cfi_def_cfa 8, 0
   6:src/syscall_c.cpp ****     int ret = 0;
  21              		.loc 1 6 5
  22              	.LVL1:
   7:src/syscall_c.cpp ****     __asm__ volatile("mv a1, %0" : : "r" (arg));
  23              		.loc 1 7 5
  24              		.loc 1 7 48 is_stmt 0
  25              	#APP
  26              	# 7 "src/syscall_c.cpp" 1
   8              	    __asm__ volatile("mv a0, %0" : : "r" (0x55));
  27              		mv a1, a0
  28              	# 0 "" 2
  29              		.loc 1 8 5 is_stmt 1
  30              		.loc 1 8 49 is_stmt 0
  31              	#NO_APP
  32 0010 93075005 		li	a5,85
  33              	#APP
  34              	# 8 "src/syscall_c.cpp" 1
   9              	    __asm__ volatile("ecall");
  35              		mv a0, a5
  36              	# 0 "" 2
  37              		.loc 1 9 5 is_stmt 1
  38              		.loc 1 9 30 is_stmt 0
  39              	# 9 "src/syscall_c.cpp" 1
  10              	    __asm__ volatile("mv %0, a0": "=r"(ret));
  40              		ecall
  41              	# 0 "" 2
  42              		.loc 1 10 5 is_stmt 1
  43              		.loc 1 10 45 is_stmt 0
  44              	# 10 "src/syscall_c.cpp" 1
  11              	    return ret;
  45              		mv a0, a0
  46              	# 0 "" 2
  47              	.LVL2:
GAS LISTING /tmp/ccqqxKun.s 			page 2


  48              		.loc 1 11 5 is_stmt 1
  12:src/syscall_c.cpp **** }
  49              		.loc 1 12 1 is_stmt 0
  50              	#NO_APP
  51 0020 1B050500 		sext.w	a0,a0
  52 0024 03348100 		ld	s0,8(sp)
  53              		.cfi_restore 8
  54              		.cfi_def_cfa 2, 16
  55 0028 13010101 		addi	sp,sp,16
  56              		.cfi_def_cfa_offset 0
  57 002c 67800000 		jr	ra
  58              		.cfi_endproc
  59              	.LFE0:
  61              		.align	2
  62              		.globl	_Z9mem_allocm
  64              	_Z9mem_allocm:
  65              	.LFB1:
  13:src/syscall_c.cpp **** void* mem_alloc(size_t size){
  66              		.loc 1 13 29 is_stmt 1
  67              		.cfi_startproc
  68              	.LVL3:
  69 0030 130101FF 		addi	sp,sp,-16
  70              		.cfi_def_cfa_offset 16
  71 0034 23348100 		sd	s0,8(sp)
  72              		.cfi_offset 8, -8
  73 0038 13040101 		addi	s0,sp,16
  74              		.cfi_def_cfa 8, 0
  14:src/syscall_c.cpp **** 
  15:src/syscall_c.cpp ****     void* ptr = nullptr; //moram u startu da ga imam inicijalizovanog
  75              		.loc 1 15 5
  76              	.LVL4:
  16:src/syscall_c.cpp ****     int numMemBlocks = size/MEM_BLOCK_SIZE;
  77              		.loc 1 16 5
  78              		.loc 1 16 28 is_stmt 0
  79 003c 93576500 		srli	a5,a0,6
  80              		.loc 1 16 9
  81 0040 9B870700 		sext.w	a5,a5
  82              	.LVL5:
  17:src/syscall_c.cpp ****     if(size%MEM_BLOCK_SIZE) numMemBlocks += 1;
  83              		.loc 1 17 5 is_stmt 1
  84              		.loc 1 17 12 is_stmt 0
  85 0044 1375F503 		andi	a0,a0,63
  86              	.LVL6:
  87              		.loc 1 17 5
  88 0048 63040500 		beqz	a0,.L4
  89              		.loc 1 17 29 is_stmt 1 discriminator 1
  90              		.loc 1 17 42 is_stmt 0 discriminator 1
  91 004c 9B871700 		addiw	a5,a5,1
  92              	.LVL7:
  93              	.L4:
  18:src/syscall_c.cpp ****     __asm__ volatile("mv a0, %0" : : "r" (0x01));
  94              		.loc 1 18 5 is_stmt 1
  95              		.loc 1 18 49 is_stmt 0
  96 0050 13071000 		li	a4,1
  97              	#APP
  98              	# 18 "src/syscall_c.cpp" 1
  19              	    __asm__ volatile("mv a1, %0" : : "r" (numMemBlocks));
GAS LISTING /tmp/ccqqxKun.s 			page 3


  99              		mv a0, a4
 100              	# 0 "" 2
 101              		.loc 1 19 5 is_stmt 1
 102              		.loc 1 19 57 is_stmt 0
 103              	# 19 "src/syscall_c.cpp" 1
  20              	    __asm__ volatile("ecall");
 104              		mv a1, a5
 105              	# 0 "" 2
 106              		.loc 1 20 5 is_stmt 1
 107              		.loc 1 20 30 is_stmt 0
 108              	# 20 "src/syscall_c.cpp" 1
  21              	    __asm__ volatile("mv %0, a0": "=r"(ptr));
 109              		ecall
 110              	# 0 "" 2
 111              		.loc 1 21 5 is_stmt 1
 112              		.loc 1 21 45 is_stmt 0
 113              	# 21 "src/syscall_c.cpp" 1
  22              	    return ptr;
 114              		mv a0, a0
 115              	# 0 "" 2
 116              	.LVL8:
 117              		.loc 1 22 5 is_stmt 1
  23:src/syscall_c.cpp **** }
 118              		.loc 1 23 1 is_stmt 0
 119              	#NO_APP
 120 0064 03348100 		ld	s0,8(sp)
 121              		.cfi_restore 8
 122              		.cfi_def_cfa 2, 16
 123 0068 13010101 		addi	sp,sp,16
 124              		.cfi_def_cfa_offset 0
 125 006c 67800000 		jr	ra
 126              		.cfi_endproc
 127              	.LFE1:
 129              		.align	2
 130              		.globl	_Z8mem_freePv
 132              	_Z8mem_freePv:
 133              	.LFB2:
  24:src/syscall_c.cpp **** int mem_free(void* ptr){
 134              		.loc 1 24 24 is_stmt 1
 135              		.cfi_startproc
 136              	.LVL9:
 137 0070 130101FF 		addi	sp,sp,-16
 138              		.cfi_def_cfa_offset 16
 139 0074 23348100 		sd	s0,8(sp)
 140              		.cfi_offset 8, -8
 141 0078 13040101 		addi	s0,sp,16
 142              		.cfi_def_cfa 8, 0
  25:src/syscall_c.cpp ****     int ret = 0;
 143              		.loc 1 25 5
 144              	.LVL10:
  26:src/syscall_c.cpp ****     __asm__ volatile("mv a1, %0" : : "r" (ptr));
 145              		.loc 1 26 5
 146              		.loc 1 26 48 is_stmt 0
 147              	#APP
 148              	# 26 "src/syscall_c.cpp" 1
  27              	    __asm__ volatile("mv a0, %0" : : "r" (0x02));
 149              		mv a1, a0
GAS LISTING /tmp/ccqqxKun.s 			page 4


 150              	# 0 "" 2
 151              		.loc 1 27 5 is_stmt 1
 152              		.loc 1 27 49 is_stmt 0
 153              	#NO_APP
 154 0080 93072000 		li	a5,2
 155              	#APP
 156              	# 27 "src/syscall_c.cpp" 1
  28              	    __asm__ volatile("ecall");
 157              		mv a0, a5
 158              	# 0 "" 2
 159              		.loc 1 28 5 is_stmt 1
 160              		.loc 1 28 30 is_stmt 0
 161              	# 28 "src/syscall_c.cpp" 1
  29              	    __asm__ volatile("mv %0, a0": "=r"(ret));
 162              		ecall
 163              	# 0 "" 2
 164              		.loc 1 29 5 is_stmt 1
 165              		.loc 1 29 45 is_stmt 0
 166              	# 29 "src/syscall_c.cpp" 1
  30              	    return ret;
 167              		mv a0, a0
 168              	# 0 "" 2
 169              	.LVL11:
 170              		.loc 1 30 5 is_stmt 1
  31:src/syscall_c.cpp **** }
 171              		.loc 1 31 1 is_stmt 0
 172              	#NO_APP
 173 0090 1B050500 		sext.w	a0,a0
 174 0094 03348100 		ld	s0,8(sp)
 175              		.cfi_restore 8
 176              		.cfi_def_cfa 2, 16
 177 0098 13010101 		addi	sp,sp,16
 178              		.cfi_def_cfa_offset 0
 179 009c 67800000 		jr	ra
 180              		.cfi_endproc
 181              	.LFE2:
 183              		.align	2
 184              		.globl	_Z13thread_createPP7kThreadPFvPvES2_
 186              	_Z13thread_createPP7kThreadPFvPvES2_:
 187              	.LFB3:
  32:src/syscall_c.cpp **** 
  33:src/syscall_c.cpp **** int thread_create(thread_t * handle, void(*start_routine)(void*), void* arg){
 188              		.loc 1 33 77 is_stmt 1
 189              		.cfi_startproc
 190              	.LVL12:
 191 00a0 130101FD 		addi	sp,sp,-48
 192              		.cfi_def_cfa_offset 48
 193 00a4 23341102 		sd	ra,40(sp)
 194 00a8 23308102 		sd	s0,32(sp)
 195 00ac 233C9100 		sd	s1,24(sp)
 196 00b0 23382101 		sd	s2,16(sp)
 197 00b4 23343101 		sd	s3,8(sp)
 198              		.cfi_offset 1, -8
 199              		.cfi_offset 8, -16
 200              		.cfi_offset 9, -24
 201              		.cfi_offset 18, -32
 202              		.cfi_offset 19, -40
GAS LISTING /tmp/ccqqxKun.s 			page 5


 203 00b8 13040103 		addi	s0,sp,48
 204              		.cfi_def_cfa 8, 0
 205 00bc 93090500 		mv	s3,a0
 206 00c0 93840500 		mv	s1,a1
 207 00c4 13090600 		mv	s2,a2
  34:src/syscall_c.cpp **** 
  35:src/syscall_c.cpp ****     int ret = 0;
 208              		.loc 1 35 5
 209              	.LVL13:
  36:src/syscall_c.cpp ****     void* stack_space;
 210              		.loc 1 36 5
  37:src/syscall_c.cpp ****     if(start_routine)  stack_space = mem_alloc(DEFAULT_STACK_SIZE); //dira a0 (u kom nam povratna a
 211              		.loc 1 37 5
 212 00c8 63880504 		beqz	a1,.L10
 213              		.loc 1 37 24 discriminator 1
 214              		.loc 1 37 47 is_stmt 0 discriminator 1
 215 00cc 37150000 		li	a0,4096
 216              	.LVL14:
 217 00d0 97000000 		call	_Z9mem_allocm
 217      E7800000 
 218              	.LVL15:
 219              	.L9:
  38:src/syscall_c.cpp ****     else stack_space = nullptr;
  39:src/syscall_c.cpp ****     __asm__ volatile("mv a1, %0": :"r"(handle));
 220              		.loc 1 39 5 is_stmt 1
 221              		.loc 1 39 48 is_stmt 0
 222              	#APP
 223              	# 39 "src/syscall_c.cpp" 1
  40              	    __asm__ volatile("mv a2, %0": :"r"(start_routine)); //proveri
 224              		mv a1, s3
 225              	# 0 "" 2
 226              		.loc 1 40 5 is_stmt 1
 227              		.loc 1 40 55 is_stmt 0
 228              	# 40 "src/syscall_c.cpp" 1
  41              	    __asm__ volatile("mv a3, %0": :"r"(arg));
 229              		mv a2, s1
 230              	# 0 "" 2
 231              		.loc 1 41 5 is_stmt 1
 232              		.loc 1 41 45 is_stmt 0
 233              	# 41 "src/syscall_c.cpp" 1
  42              	    __asm__ volatile("mv a4, %0": : "r"(stack_space)); //stavi stack_space na ox11
 234              		mv a3, s2
 235              	# 0 "" 2
 236              		.loc 1 42 5 is_stmt 1
 237              		.loc 1 42 54 is_stmt 0
 238              	# 42 "src/syscall_c.cpp" 1
  43              	    __asm__ volatile("mv a0, %0" : : "r" (0x11));
 239              		mv a4, a0
 240              	# 0 "" 2
 241              		.loc 1 43 5 is_stmt 1
 242              		.loc 1 43 49 is_stmt 0
 243              	#NO_APP
 244 00e8 93071001 		li	a5,17
 245              	#APP
 246              	# 43 "src/syscall_c.cpp" 1
  44              	    __asm__ volatile("ecall"); //ovo je trenutak u kom menjam rezim
 247              		mv a0, a5
GAS LISTING /tmp/ccqqxKun.s 			page 6


 248              	# 0 "" 2
 249              		.loc 1 44 5 is_stmt 1
 250              		.loc 1 44 30 is_stmt 0
 251              	# 44 "src/syscall_c.cpp" 1
  45              	    __asm__ volatile("mv %0, a0": "=r"(ret));
 252              		ecall
 253              	# 0 "" 2
 254              		.loc 1 45 5 is_stmt 1
 255              		.loc 1 45 45 is_stmt 0
 256              	# 45 "src/syscall_c.cpp" 1
  46              	    return ret;
 257              		mv a0, a0
 258              	# 0 "" 2
 259              	.LVL16:
 260              		.loc 1 46 5 is_stmt 1
  47:src/syscall_c.cpp **** 
  48:src/syscall_c.cpp **** }
 261              		.loc 1 48 1 is_stmt 0
 262              	#NO_APP
 263 00f8 1B050500 		sext.w	a0,a0
 264 00fc 83308102 		ld	ra,40(sp)
 265              		.cfi_remember_state
 266              		.cfi_restore 1
 267 0100 03340102 		ld	s0,32(sp)
 268              		.cfi_restore 8
 269              		.cfi_def_cfa 2, 48
 270 0104 83348101 		ld	s1,24(sp)
 271              		.cfi_restore 9
 272              	.LVL17:
 273 0108 03390101 		ld	s2,16(sp)
 274              		.cfi_restore 18
 275              	.LVL18:
 276 010c 83398100 		ld	s3,8(sp)
 277              		.cfi_restore 19
 278              	.LVL19:
 279 0110 13010103 		addi	sp,sp,48
 280              		.cfi_def_cfa_offset 0
 281 0114 67800000 		jr	ra
 282              	.LVL20:
 283              	.L10:
 284              		.cfi_restore_state
  38:src/syscall_c.cpp ****     else stack_space = nullptr;
 285              		.loc 1 38 22
 286 0118 13050000 		li	a0,0
 287              	.LVL21:
 288 011c 6FF0DFFB 		j	.L9
 289              		.cfi_endproc
 290              	.LFE3:
 292              		.align	2
 293              		.globl	_Z11thread_exitv
 295              	_Z11thread_exitv:
 296              	.LFB4:
  49:src/syscall_c.cpp **** 
  50:src/syscall_c.cpp **** int thread_exit(){
 297              		.loc 1 50 18 is_stmt 1
 298              		.cfi_startproc
 299 0120 130101FF 		addi	sp,sp,-16
GAS LISTING /tmp/ccqqxKun.s 			page 7


 300              		.cfi_def_cfa_offset 16
 301 0124 23348100 		sd	s0,8(sp)
 302              		.cfi_offset 8, -8
 303 0128 13040101 		addi	s0,sp,16
 304              		.cfi_def_cfa 8, 0
  51:src/syscall_c.cpp **** 
  52:src/syscall_c.cpp ****     int ret = 0;
 305              		.loc 1 52 5
 306              	.LVL22:
  53:src/syscall_c.cpp ****     __asm__ volatile("mv a0, %0" : : "r" (0x12));
 307              		.loc 1 53 5
 308              		.loc 1 53 49 is_stmt 0
 309 012c 93072001 		li	a5,18
 310              	#APP
 311              	# 53 "src/syscall_c.cpp" 1
  54              	    __asm__ volatile("ecall");
 312              		mv a0, a5
 313              	# 0 "" 2
 314              		.loc 1 54 5 is_stmt 1
 315              		.loc 1 54 30 is_stmt 0
 316              	# 54 "src/syscall_c.cpp" 1
  55              	    __asm__ volatile("mv %0, a0": "=r"(ret));
 317              		ecall
 318              	# 0 "" 2
 319              		.loc 1 55 5 is_stmt 1
 320              		.loc 1 55 45 is_stmt 0
 321              	# 55 "src/syscall_c.cpp" 1
  56              	    return ret;
 322              		mv a0, a0
 323              	# 0 "" 2
 324              	.LVL23:
 325              		.loc 1 56 5 is_stmt 1
  57:src/syscall_c.cpp **** 
  58:src/syscall_c.cpp **** }
 326              		.loc 1 58 1 is_stmt 0
 327              	#NO_APP
 328 013c 1B050500 		sext.w	a0,a0
 329 0140 03348100 		ld	s0,8(sp)
 330              		.cfi_restore 8
 331              		.cfi_def_cfa 2, 16
 332 0144 13010101 		addi	sp,sp,16
 333              		.cfi_def_cfa_offset 0
 334 0148 67800000 		jr	ra
 335              		.cfi_endproc
 336              	.LFE4:
 338              		.align	2
 339              		.globl	_Z15thread_dispatchv
 341              	_Z15thread_dispatchv:
 342              	.LFB5:
  59:src/syscall_c.cpp **** 
  60:src/syscall_c.cpp **** void thread_dispatch(){
 343              		.loc 1 60 23 is_stmt 1
 344              		.cfi_startproc
 345 014c 130101FF 		addi	sp,sp,-16
 346              		.cfi_def_cfa_offset 16
 347 0150 23348100 		sd	s0,8(sp)
 348              		.cfi_offset 8, -8
GAS LISTING /tmp/ccqqxKun.s 			page 8


 349 0154 13040101 		addi	s0,sp,16
 350              		.cfi_def_cfa 8, 0
  61:src/syscall_c.cpp **** 
  62:src/syscall_c.cpp ****     __asm__ volatile("mv a0, %0" : : "r" (0x13));
 351              		.loc 1 62 5
 352              		.loc 1 62 49 is_stmt 0
 353 0158 93073001 		li	a5,19
 354              	#APP
 355              	# 62 "src/syscall_c.cpp" 1
  63              	    __asm__ volatile("ecall");
 356              		mv a0, a5
 357              	# 0 "" 2
 358              		.loc 1 63 5 is_stmt 1
 359              		.loc 1 63 30 is_stmt 0
 360              	# 63 "src/syscall_c.cpp" 1
  64              	}
 361              		ecall
 362              	# 0 "" 2
 363              		.loc 1 64 1
 364              	#NO_APP
 365 0164 03348100 		ld	s0,8(sp)
 366              		.cfi_restore 8
 367              		.cfi_def_cfa 2, 16
 368 0168 13010101 		addi	sp,sp,16
 369              		.cfi_def_cfa_offset 0
 370 016c 67800000 		jr	ra
 371              		.cfi_endproc
 372              	.LFE5:
 374              		.align	2
 375              		.globl	_Z11thread_joinP7kThread
 377              	_Z11thread_joinP7kThread:
 378              	.LFB6:
  65:src/syscall_c.cpp **** 
  66:src/syscall_c.cpp **** void thread_join(thread_t handle){
 379              		.loc 1 66 34 is_stmt 1
 380              		.cfi_startproc
 381              	.LVL24:
 382 0170 130101FF 		addi	sp,sp,-16
 383              		.cfi_def_cfa_offset 16
 384 0174 23348100 		sd	s0,8(sp)
 385              		.cfi_offset 8, -8
 386 0178 13040101 		addi	s0,sp,16
 387              		.cfi_def_cfa 8, 0
  67:src/syscall_c.cpp **** 
  68:src/syscall_c.cpp ****     __asm__ volatile("mv a1, %0" : : "r" (handle));
 388              		.loc 1 68 5
 389              		.loc 1 68 51 is_stmt 0
 390              	#APP
 391              	# 68 "src/syscall_c.cpp" 1
  69              	    __asm__ volatile("mv a0, %0" : : "r" (0x14));
 392              		mv a1, a0
 393              	# 0 "" 2
 394              		.loc 1 69 5 is_stmt 1
 395              		.loc 1 69 49 is_stmt 0
 396              	#NO_APP
 397 0180 93074001 		li	a5,20
 398              	#APP
GAS LISTING /tmp/ccqqxKun.s 			page 9


 399              	# 69 "src/syscall_c.cpp" 1
  70              	    __asm__ volatile("ecall");
 400              		mv a0, a5
 401              	# 0 "" 2
 402              		.loc 1 70 5 is_stmt 1
 403              		.loc 1 70 30 is_stmt 0
 404              	# 70 "src/syscall_c.cpp" 1
  71              	}
 405              		ecall
 406              	# 0 "" 2
 407              		.loc 1 71 1
 408              	#NO_APP
 409 018c 03348100 		ld	s0,8(sp)
 410              		.cfi_restore 8
 411              		.cfi_def_cfa 2, 16
 412 0190 13010101 		addi	sp,sp,16
 413              		.cfi_def_cfa_offset 0
 414 0194 67800000 		jr	ra
 415              		.cfi_endproc
 416              	.LFE6:
 418              		.align	2
 419              		.globl	_Z8sem_openPP10kSemaphorej
 421              	_Z8sem_openPP10kSemaphorej:
 422              	.LFB7:
  72:src/syscall_c.cpp **** 
  73:src/syscall_c.cpp **** int sem_open(sem_t* handle, unsigned init){
 423              		.loc 1 73 43 is_stmt 1
 424              		.cfi_startproc
 425              	.LVL25:
 426 0198 130101FF 		addi	sp,sp,-16
 427              		.cfi_def_cfa_offset 16
 428 019c 23348100 		sd	s0,8(sp)
 429              		.cfi_offset 8, -8
 430 01a0 13040101 		addi	s0,sp,16
 431              		.cfi_def_cfa 8, 0
  74:src/syscall_c.cpp **** 
  75:src/syscall_c.cpp ****     int ret = 0;
 432              		.loc 1 75 5
 433              	.LVL26:
  76:src/syscall_c.cpp **** 
  77:src/syscall_c.cpp ****     __asm__ volatile("mv a1, %0" : : "r" (handle));
 434              		.loc 1 77 5
 435              		.loc 1 77 51 is_stmt 0
 436              	#APP
 437              	# 77 "src/syscall_c.cpp" 1
  78              	    __asm__ volatile("mv a2, %0" : : "r" (init));
 438              		mv a1, a0
 439              	# 0 "" 2
 440              		.loc 1 78 5 is_stmt 1
 441              		.loc 1 78 49 is_stmt 0
 442              	# 78 "src/syscall_c.cpp" 1
  79              	    __asm__ volatile("mv a0, %0" : : "r" (0x21));
 443              		mv a2, a1
 444              	# 0 "" 2
 445              		.loc 1 79 5 is_stmt 1
 446              		.loc 1 79 49 is_stmt 0
 447              	#NO_APP
GAS LISTING /tmp/ccqqxKun.s 			page 10


 448 01ac 93071002 		li	a5,33
 449              	#APP
 450              	# 79 "src/syscall_c.cpp" 1
  80              	    __asm__ volatile("ecall");
 451              		mv a0, a5
 452              	# 0 "" 2
 453              		.loc 1 80 5 is_stmt 1
 454              		.loc 1 80 30 is_stmt 0
 455              	# 80 "src/syscall_c.cpp" 1
  81              	    __asm__ volatile("mv %0, a0": "=r"(ret));
 456              		ecall
 457              	# 0 "" 2
 458              		.loc 1 81 5 is_stmt 1
 459              		.loc 1 81 45 is_stmt 0
 460              	# 81 "src/syscall_c.cpp" 1
  82              	    return ret;
 461              		mv a0, a0
 462              	# 0 "" 2
 463              	.LVL27:
 464              		.loc 1 82 5 is_stmt 1
  83:src/syscall_c.cpp **** 
  84:src/syscall_c.cpp **** }
 465              		.loc 1 84 1 is_stmt 0
 466              	#NO_APP
 467 01bc 1B050500 		sext.w	a0,a0
 468 01c0 03348100 		ld	s0,8(sp)
 469              		.cfi_restore 8
 470              		.cfi_def_cfa 2, 16
 471 01c4 13010101 		addi	sp,sp,16
 472              		.cfi_def_cfa_offset 0
 473 01c8 67800000 		jr	ra
 474              		.cfi_endproc
 475              	.LFE7:
 477              		.align	2
 478              		.globl	_Z9sem_closeP10kSemaphore
 480              	_Z9sem_closeP10kSemaphore:
 481              	.LFB8:
  85:src/syscall_c.cpp **** 
  86:src/syscall_c.cpp **** int sem_close(sem_t handle){
 482              		.loc 1 86 28 is_stmt 1
 483              		.cfi_startproc
 484              	.LVL28:
 485 01cc 130101FF 		addi	sp,sp,-16
 486              		.cfi_def_cfa_offset 16
 487 01d0 23348100 		sd	s0,8(sp)
 488              		.cfi_offset 8, -8
 489 01d4 13040101 		addi	s0,sp,16
 490              		.cfi_def_cfa 8, 0
  87:src/syscall_c.cpp **** 
  88:src/syscall_c.cpp ****     int ret = 0;
 491              		.loc 1 88 5
 492              	.LVL29:
  89:src/syscall_c.cpp ****     __asm__ volatile("mv a1, %0" : : "r" (handle));
 493              		.loc 1 89 5
 494              		.loc 1 89 51 is_stmt 0
 495              	#APP
 496              	# 89 "src/syscall_c.cpp" 1
GAS LISTING /tmp/ccqqxKun.s 			page 11


  90              	    __asm__ volatile("mv a0, %0" : : "r" (0x22));
 497              		mv a1, a0
 498              	# 0 "" 2
 499              		.loc 1 90 5 is_stmt 1
 500              		.loc 1 90 49 is_stmt 0
 501              	#NO_APP
 502 01dc 93072002 		li	a5,34
 503              	#APP
 504              	# 90 "src/syscall_c.cpp" 1
  91              	    __asm__ volatile("ecall");
 505              		mv a0, a5
 506              	# 0 "" 2
 507              		.loc 1 91 5 is_stmt 1
 508              		.loc 1 91 30 is_stmt 0
 509              	# 91 "src/syscall_c.cpp" 1
  92              	    __asm__ volatile("mv %0, a0": "=r"(ret));
 510              		ecall
 511              	# 0 "" 2
 512              		.loc 1 92 5 is_stmt 1
 513              		.loc 1 92 45 is_stmt 0
 514              	# 92 "src/syscall_c.cpp" 1
  93              	    return ret;
 515              		mv a0, a0
 516              	# 0 "" 2
 517              	.LVL30:
 518              		.loc 1 93 5 is_stmt 1
  94:src/syscall_c.cpp **** 
  95:src/syscall_c.cpp **** }
 519              		.loc 1 95 1 is_stmt 0
 520              	#NO_APP
 521 01ec 1B050500 		sext.w	a0,a0
 522 01f0 03348100 		ld	s0,8(sp)
 523              		.cfi_restore 8
 524              		.cfi_def_cfa 2, 16
 525 01f4 13010101 		addi	sp,sp,16
 526              		.cfi_def_cfa_offset 0
 527 01f8 67800000 		jr	ra
 528              		.cfi_endproc
 529              	.LFE8:
 531              		.align	2
 532              		.globl	_Z8sem_waitP10kSemaphore
 534              	_Z8sem_waitP10kSemaphore:
 535              	.LFB9:
  96:src/syscall_c.cpp **** 
  97:src/syscall_c.cpp **** int sem_wait(sem_t id){
 536              		.loc 1 97 23 is_stmt 1
 537              		.cfi_startproc
 538              	.LVL31:
 539 01fc 130101FF 		addi	sp,sp,-16
 540              		.cfi_def_cfa_offset 16
 541 0200 23348100 		sd	s0,8(sp)
 542              		.cfi_offset 8, -8
 543 0204 13040101 		addi	s0,sp,16
 544              		.cfi_def_cfa 8, 0
  98:src/syscall_c.cpp **** 
  99:src/syscall_c.cpp ****     int ret = 0;
 545              		.loc 1 99 5
GAS LISTING /tmp/ccqqxKun.s 			page 12


 546              	.LVL32:
 100:src/syscall_c.cpp ****     __asm__ volatile("mv a1, %0" : : "r" (id));
 547              		.loc 1 100 5
 548              		.loc 1 100 47 is_stmt 0
 549              	#APP
 550              	# 100 "src/syscall_c.cpp" 1
 101              	    __asm__ volatile("mv a0, %0" : : "r" (0x23));
 551              		mv a1, a0
 552              	# 0 "" 2
 553              		.loc 1 101 5 is_stmt 1
 554              		.loc 1 101 49 is_stmt 0
 555              	#NO_APP
 556 020c 93073002 		li	a5,35
 557              	#APP
 558              	# 101 "src/syscall_c.cpp" 1
 102              	    __asm__ volatile("ecall");
 559              		mv a0, a5
 560              	# 0 "" 2
 561              		.loc 1 102 5 is_stmt 1
 562              		.loc 1 102 30 is_stmt 0
 563              	# 102 "src/syscall_c.cpp" 1
 103              	    __asm__ volatile("mv %0, a0": "=r"(ret));
 564              		ecall
 565              	# 0 "" 2
 566              		.loc 1 103 5 is_stmt 1
 567              		.loc 1 103 45 is_stmt 0
 568              	# 103 "src/syscall_c.cpp" 1
 104              	    return ret;
 569              		mv a0, a0
 570              	# 0 "" 2
 571              	.LVL33:
 572              		.loc 1 104 5 is_stmt 1
 105:src/syscall_c.cpp **** 
 106:src/syscall_c.cpp **** }
 573              		.loc 1 106 1 is_stmt 0
 574              	#NO_APP
 575 021c 1B050500 		sext.w	a0,a0
 576 0220 03348100 		ld	s0,8(sp)
 577              		.cfi_restore 8
 578              		.cfi_def_cfa 2, 16
 579 0224 13010101 		addi	sp,sp,16
 580              		.cfi_def_cfa_offset 0
 581 0228 67800000 		jr	ra
 582              		.cfi_endproc
 583              	.LFE9:
 585              		.align	2
 586              		.globl	_Z10sem_signalP10kSemaphore
 588              	_Z10sem_signalP10kSemaphore:
 589              	.LFB10:
 107:src/syscall_c.cpp **** 
 108:src/syscall_c.cpp **** int sem_signal(sem_t id){
 590              		.loc 1 108 25 is_stmt 1
 591              		.cfi_startproc
 592              	.LVL34:
 593 022c 130101FF 		addi	sp,sp,-16
 594              		.cfi_def_cfa_offset 16
 595 0230 23348100 		sd	s0,8(sp)
GAS LISTING /tmp/ccqqxKun.s 			page 13


 596              		.cfi_offset 8, -8
 597 0234 13040101 		addi	s0,sp,16
 598              		.cfi_def_cfa 8, 0
 109:src/syscall_c.cpp **** 
 110:src/syscall_c.cpp ****     int ret = 0;
 599              		.loc 1 110 5
 600              	.LVL35:
 111:src/syscall_c.cpp ****     __asm__ volatile("mv a1, %0" : : "r" (id));
 601              		.loc 1 111 5
 602              		.loc 1 111 47 is_stmt 0
 603              	#APP
 604              	# 111 "src/syscall_c.cpp" 1
 112              	    __asm__ volatile("mv a0, %0" : : "r" (0x24));
 605              		mv a1, a0
 606              	# 0 "" 2
 607              		.loc 1 112 5 is_stmt 1
 608              		.loc 1 112 49 is_stmt 0
 609              	#NO_APP
 610 023c 93074002 		li	a5,36
 611              	#APP
 612              	# 112 "src/syscall_c.cpp" 1
 113              	    __asm__ volatile("ecall");
 613              		mv a0, a5
 614              	# 0 "" 2
 615              		.loc 1 113 5 is_stmt 1
 616              		.loc 1 113 30 is_stmt 0
 617              	# 113 "src/syscall_c.cpp" 1
 114              	    __asm__ volatile("mv %0, a0": "=r"(ret));
 618              		ecall
 619              	# 0 "" 2
 620              		.loc 1 114 5 is_stmt 1
 621              		.loc 1 114 45 is_stmt 0
 622              	# 114 "src/syscall_c.cpp" 1
 115              	    return ret;
 623              		mv a0, a0
 624              	# 0 "" 2
 625              	.LVL36:
 626              		.loc 1 115 5 is_stmt 1
 116:src/syscall_c.cpp **** 
 117:src/syscall_c.cpp **** }
 627              		.loc 1 117 1 is_stmt 0
 628              	#NO_APP
 629 024c 1B050500 		sext.w	a0,a0
 630 0250 03348100 		ld	s0,8(sp)
 631              		.cfi_restore 8
 632              		.cfi_def_cfa 2, 16
 633 0254 13010101 		addi	sp,sp,16
 634              		.cfi_def_cfa_offset 0
 635 0258 67800000 		jr	ra
 636              		.cfi_endproc
 637              	.LFE10:
 639              		.align	2
 640              		.globl	_Z10time_sleepm
 642              	_Z10time_sleepm:
 643              	.LFB11:
 118:src/syscall_c.cpp **** 
 119:src/syscall_c.cpp **** int time_sleep(time_t time){
GAS LISTING /tmp/ccqqxKun.s 			page 14


 644              		.loc 1 119 28 is_stmt 1
 645              		.cfi_startproc
 646              	.LVL37:
 647 025c 130101FF 		addi	sp,sp,-16
 648              		.cfi_def_cfa_offset 16
 649 0260 23348100 		sd	s0,8(sp)
 650              		.cfi_offset 8, -8
 651 0264 13040101 		addi	s0,sp,16
 652              		.cfi_def_cfa 8, 0
 120:src/syscall_c.cpp **** 
 121:src/syscall_c.cpp ****     int ret = 0;
 653              		.loc 1 121 5
 654              	.LVL38:
 122:src/syscall_c.cpp ****     __asm__ volatile("mv a1, %0" : : "r" (time));
 655              		.loc 1 122 5
 656              		.loc 1 122 49 is_stmt 0
 657              	#APP
 658              	# 122 "src/syscall_c.cpp" 1
 123              	    __asm__ volatile("mv a0, %0" : : "r" (0x31));
 659              		mv a1, a0
 660              	# 0 "" 2
 661              		.loc 1 123 5 is_stmt 1
 662              		.loc 1 123 49 is_stmt 0
 663              	#NO_APP
 664 026c 93071003 		li	a5,49
 665              	#APP
 666              	# 123 "src/syscall_c.cpp" 1
 124              	    __asm__ volatile("ecall");
 667              		mv a0, a5
 668              	# 0 "" 2
 669              		.loc 1 124 5 is_stmt 1
 670              		.loc 1 124 30 is_stmt 0
 671              	# 124 "src/syscall_c.cpp" 1
 125              	    __asm__ volatile("mv %0, a0": "=r"(ret));
 672              		ecall
 673              	# 0 "" 2
 674              		.loc 1 125 5 is_stmt 1
 675              		.loc 1 125 45 is_stmt 0
 676              	# 125 "src/syscall_c.cpp" 1
 126              	    return ret;
 677              		mv a0, a0
 678              	# 0 "" 2
 679              	.LVL39:
 680              		.loc 1 126 5 is_stmt 1
 127:src/syscall_c.cpp **** }
 681              		.loc 1 127 1 is_stmt 0
 682              	#NO_APP
 683 027c 1B050500 		sext.w	a0,a0
 684 0280 03348100 		ld	s0,8(sp)
 685              		.cfi_restore 8
 686              		.cfi_def_cfa 2, 16
 687 0284 13010101 		addi	sp,sp,16
 688              		.cfi_def_cfa_offset 0
 689 0288 67800000 		jr	ra
 690              		.cfi_endproc
 691              	.LFE11:
 693              		.align	2
GAS LISTING /tmp/ccqqxKun.s 			page 15


 694              		.globl	_Z4getcv
 696              	_Z4getcv:
 697              	.LFB12:
 128:src/syscall_c.cpp **** 
 129:src/syscall_c.cpp **** char getc(){
 698              		.loc 1 129 12 is_stmt 1
 699              		.cfi_startproc
 700 028c 130101FF 		addi	sp,sp,-16
 701              		.cfi_def_cfa_offset 16
 702 0290 23348100 		sd	s0,8(sp)
 703              		.cfi_offset 8, -8
 704 0294 13040101 		addi	s0,sp,16
 705              		.cfi_def_cfa 8, 0
 130:src/syscall_c.cpp **** 
 131:src/syscall_c.cpp ****     char ret = '0';
 706              		.loc 1 131 5
 707              	.LVL40:
 132:src/syscall_c.cpp ****     __asm__ volatile("mv a0, %0" : : "r" (0x41));
 708              		.loc 1 132 5
 709              		.loc 1 132 49 is_stmt 0
 710 0298 93071004 		li	a5,65
 711              	#APP
 712              	# 132 "src/syscall_c.cpp" 1
 133              	    __asm__ volatile("ecall");
 713              		mv a0, a5
 714              	# 0 "" 2
 715              		.loc 1 133 5 is_stmt 1
 716              		.loc 1 133 30 is_stmt 0
 717              	# 133 "src/syscall_c.cpp" 1
 134              	    __asm__ volatile("mv %0, a0": "=r"(ret));
 718              		ecall
 719              	# 0 "" 2
 720              		.loc 1 134 5 is_stmt 1
 721              		.loc 1 134 45 is_stmt 0
 722              	# 134 "src/syscall_c.cpp" 1
 135              	    return ret;
 723              		mv a0, a0
 724              	# 0 "" 2
 725              	.LVL41:
 726              		.loc 1 135 5 is_stmt 1
 136:src/syscall_c.cpp **** 
 137:src/syscall_c.cpp **** }
 727              		.loc 1 137 1 is_stmt 0
 728              	#NO_APP
 729 02a8 1375F50F 		andi	a0,a0,0xff
 730 02ac 03348100 		ld	s0,8(sp)
 731              		.cfi_restore 8
 732              		.cfi_def_cfa 2, 16
 733 02b0 13010101 		addi	sp,sp,16
 734              		.cfi_def_cfa_offset 0
 735 02b4 67800000 		jr	ra
 736              		.cfi_endproc
 737              	.LFE12:
 739              		.align	2
 740              		.globl	_Z4putcc
 742              	_Z4putcc:
 743              	.LFB13:
GAS LISTING /tmp/ccqqxKun.s 			page 16


 138:src/syscall_c.cpp **** 
 139:src/syscall_c.cpp **** void putc(char c){
 744              		.loc 1 139 18 is_stmt 1
 745              		.cfi_startproc
 746              	.LVL42:
 747 02b8 130101FF 		addi	sp,sp,-16
 748              		.cfi_def_cfa_offset 16
 749 02bc 23348100 		sd	s0,8(sp)
 750              		.cfi_offset 8, -8
 751 02c0 13040101 		addi	s0,sp,16
 752              		.cfi_def_cfa 8, 0
 140:src/syscall_c.cpp **** 
 141:src/syscall_c.cpp ****     __asm__ volatile("mv a1, %0" : : "r" (c));
 753              		.loc 1 141 5
 754              		.loc 1 141 46 is_stmt 0
 755              	#APP
 756              	# 141 "src/syscall_c.cpp" 1
 142              	    __asm__ volatile("mv a0, %0" : : "r" (0x42));
 757              		mv a1, a0
 758              	# 0 "" 2
 759              		.loc 1 142 5 is_stmt 1
 760              		.loc 1 142 49 is_stmt 0
 761              	#NO_APP
 762 02c8 93072004 		li	a5,66
 763              	#APP
 764              	# 142 "src/syscall_c.cpp" 1
 143              	    __asm__ volatile("ecall");
 765              		mv a0, a5
 766              	# 0 "" 2
 767              		.loc 1 143 5 is_stmt 1
 768              		.loc 1 143 30 is_stmt 0
 769              	# 143 "src/syscall_c.cpp" 1
 144              	
 145:src/syscall_c.cpp **** }
 770              		ecall
 771              	# 0 "" 2
 772              		.loc 1 145 1
 773              	#NO_APP
 774 02d4 03348100 		ld	s0,8(sp)
 775              		.cfi_restore 8
 776              		.cfi_def_cfa 2, 16
 777 02d8 13010101 		addi	sp,sp,16
 778              		.cfi_def_cfa_offset 0
 779 02dc 67800000 		jr	ra
 780              		.cfi_endproc
 781              	.LFE13:
 783              	.Letext0:
 784              		.file 2 "src/../h/../lib/hw.h"
 785              		.file 3 "src/../h/syscall_c.hpp"
GAS LISTING /tmp/ccqqxKun.s 			page 17


DEFINED SYMBOLS
                            *ABS*:0000000000000000 syscall_c.cpp
     /tmp/ccqqxKun.s:9      .text:0000000000000000 _Z4testi
     /tmp/ccqqxKun.s:13     .text:0000000000000000 .L0 
     /tmp/ccqqxKun.s:15     .text:0000000000000000 .L0 
     /tmp/ccqqxKun.s:16     .text:0000000000000004 .L0 
     /tmp/ccqqxKun.s:18     .text:0000000000000008 .L0 
     /tmp/ccqqxKun.s:20     .text:000000000000000c .L0 
     /tmp/ccqqxKun.s:23     .text:000000000000000c .L0 
     /tmp/ccqqxKun.s:24     .text:000000000000000c .L0 
   src/syscall_c.cpp:7      .text:000000000000000c .L0 
     /tmp/ccqqxKun.s:30     .text:0000000000000010 .L0 
     /tmp/ccqqxKun.s:32     .text:0000000000000010 .L0 
     /tmp/ccqqxKun.s:38     .text:0000000000000018 .L0 
   src/syscall_c.cpp:9      .text:0000000000000018 .L0 
     /tmp/ccqqxKun.s:43     .text:000000000000001c .L0 
   src/syscall_c.cpp:10     .text:000000000000001c .L0 
     /tmp/ccqqxKun.s:49     .text:0000000000000020 .L0 
     /tmp/ccqqxKun.s:51     .text:0000000000000020 .L0 
     /tmp/ccqqxKun.s:53     .text:0000000000000028 .L0 
     /tmp/ccqqxKun.s:54     .text:0000000000000028 .L0 
     /tmp/ccqqxKun.s:56     .text:000000000000002c .L0 
     /tmp/ccqqxKun.s:58     .text:0000000000000030 .L0 
     /tmp/ccqqxKun.s:64     .text:0000000000000030 _Z9mem_allocm
     /tmp/ccqqxKun.s:67     .text:0000000000000030 .L0 
     /tmp/ccqqxKun.s:69     .text:0000000000000030 .L0 
     /tmp/ccqqxKun.s:70     .text:0000000000000034 .L0 
     /tmp/ccqqxKun.s:72     .text:0000000000000038 .L0 
     /tmp/ccqqxKun.s:74     .text:000000000000003c .L0 
     /tmp/ccqqxKun.s:77     .text:000000000000003c .L0 
     /tmp/ccqqxKun.s:78     .text:000000000000003c .L0 
     /tmp/ccqqxKun.s:79     .text:000000000000003c .L0 
     /tmp/ccqqxKun.s:81     .text:0000000000000040 .L0 
     /tmp/ccqqxKun.s:84     .text:0000000000000044 .L0 
     /tmp/ccqqxKun.s:85     .text:0000000000000044 .L0 
     /tmp/ccqqxKun.s:88     .text:0000000000000048 .L0 
     /tmp/ccqqxKun.s:90     .text:000000000000004c .L0 
     /tmp/ccqqxKun.s:91     .text:000000000000004c .L0 
     /tmp/ccqqxKun.s:95     .text:0000000000000050 .L0 
     /tmp/ccqqxKun.s:96     .text:0000000000000050 .L0 
     /tmp/ccqqxKun.s:102    .text:0000000000000058 .L0 
   src/syscall_c.cpp:19     .text:0000000000000058 .L0 
     /tmp/ccqqxKun.s:107    .text:000000000000005c .L0 
   src/syscall_c.cpp:20     .text:000000000000005c .L0 
     /tmp/ccqqxKun.s:112    .text:0000000000000060 .L0 
   src/syscall_c.cpp:21     .text:0000000000000060 .L0 
     /tmp/ccqqxKun.s:118    .text:0000000000000064 .L0 
     /tmp/ccqqxKun.s:120    .text:0000000000000064 .L0 
     /tmp/ccqqxKun.s:121    .text:0000000000000068 .L0 
     /tmp/ccqqxKun.s:122    .text:0000000000000068 .L0 
     /tmp/ccqqxKun.s:124    .text:000000000000006c .L0 
     /tmp/ccqqxKun.s:126    .text:0000000000000070 .L0 
     /tmp/ccqqxKun.s:132    .text:0000000000000070 _Z8mem_freePv
     /tmp/ccqqxKun.s:135    .text:0000000000000070 .L0 
     /tmp/ccqqxKun.s:137    .text:0000000000000070 .L0 
     /tmp/ccqqxKun.s:138    .text:0000000000000074 .L0 
     /tmp/ccqqxKun.s:140    .text:0000000000000078 .L0 
GAS LISTING /tmp/ccqqxKun.s 			page 18


     /tmp/ccqqxKun.s:142    .text:000000000000007c .L0 
     /tmp/ccqqxKun.s:145    .text:000000000000007c .L0 
     /tmp/ccqqxKun.s:146    .text:000000000000007c .L0 
   src/syscall_c.cpp:26     .text:000000000000007c .L0 
     /tmp/ccqqxKun.s:152    .text:0000000000000080 .L0 
     /tmp/ccqqxKun.s:154    .text:0000000000000080 .L0 
     /tmp/ccqqxKun.s:160    .text:0000000000000088 .L0 
   src/syscall_c.cpp:28     .text:0000000000000088 .L0 
     /tmp/ccqqxKun.s:165    .text:000000000000008c .L0 
   src/syscall_c.cpp:29     .text:000000000000008c .L0 
     /tmp/ccqqxKun.s:171    .text:0000000000000090 .L0 
     /tmp/ccqqxKun.s:173    .text:0000000000000090 .L0 
     /tmp/ccqqxKun.s:175    .text:0000000000000098 .L0 
     /tmp/ccqqxKun.s:176    .text:0000000000000098 .L0 
     /tmp/ccqqxKun.s:178    .text:000000000000009c .L0 
     /tmp/ccqqxKun.s:180    .text:00000000000000a0 .L0 
     /tmp/ccqqxKun.s:186    .text:00000000000000a0 _Z13thread_createPP7kThreadPFvPvES2_
     /tmp/ccqqxKun.s:189    .text:00000000000000a0 .L0 
     /tmp/ccqqxKun.s:191    .text:00000000000000a0 .L0 
     /tmp/ccqqxKun.s:192    .text:00000000000000a4 .L0 
     /tmp/ccqqxKun.s:198    .text:00000000000000b8 .L0 
     /tmp/ccqqxKun.s:199    .text:00000000000000b8 .L0 
     /tmp/ccqqxKun.s:200    .text:00000000000000b8 .L0 
     /tmp/ccqqxKun.s:201    .text:00000000000000b8 .L0 
     /tmp/ccqqxKun.s:202    .text:00000000000000b8 .L0 
     /tmp/ccqqxKun.s:204    .text:00000000000000bc .L0 
     /tmp/ccqqxKun.s:210    .text:00000000000000c8 .L0 
     /tmp/ccqqxKun.s:211    .text:00000000000000c8 .L0 
     /tmp/ccqqxKun.s:212    .text:00000000000000c8 .L0 
     /tmp/ccqqxKun.s:214    .text:00000000000000cc .L0 
     /tmp/ccqqxKun.s:215    .text:00000000000000cc .L0 
     /tmp/ccqqxKun.s:221    .text:00000000000000d8 .L0 
   src/syscall_c.cpp:39     .text:00000000000000d8 .L0 
     /tmp/ccqqxKun.s:227    .text:00000000000000dc .L0 
   src/syscall_c.cpp:40     .text:00000000000000dc .L0 
     /tmp/ccqqxKun.s:232    .text:00000000000000e0 .L0 
   src/syscall_c.cpp:41     .text:00000000000000e0 .L0 
     /tmp/ccqqxKun.s:237    .text:00000000000000e4 .L0 
   src/syscall_c.cpp:42     .text:00000000000000e4 .L0 
     /tmp/ccqqxKun.s:242    .text:00000000000000e8 .L0 
     /tmp/ccqqxKun.s:244    .text:00000000000000e8 .L0 
     /tmp/ccqqxKun.s:250    .text:00000000000000f0 .L0 
   src/syscall_c.cpp:44     .text:00000000000000f0 .L0 
     /tmp/ccqqxKun.s:255    .text:00000000000000f4 .L0 
   src/syscall_c.cpp:45     .text:00000000000000f4 .L0 
     /tmp/ccqqxKun.s:261    .text:00000000000000f8 .L0 
     /tmp/ccqqxKun.s:263    .text:00000000000000f8 .L0 
     /tmp/ccqqxKun.s:265    .text:0000000000000100 .L0 
     /tmp/ccqqxKun.s:266    .text:0000000000000100 .L0 
     /tmp/ccqqxKun.s:268    .text:0000000000000104 .L0 
     /tmp/ccqqxKun.s:269    .text:0000000000000104 .L0 
     /tmp/ccqqxKun.s:271    .text:0000000000000108 .L0 
     /tmp/ccqqxKun.s:274    .text:000000000000010c .L0 
     /tmp/ccqqxKun.s:277    .text:0000000000000110 .L0 
     /tmp/ccqqxKun.s:280    .text:0000000000000114 .L0 
     /tmp/ccqqxKun.s:284    .text:0000000000000118 .L0 
     /tmp/ccqqxKun.s:286    .text:0000000000000118 .L0 
GAS LISTING /tmp/ccqqxKun.s 			page 19


     /tmp/ccqqxKun.s:289    .text:0000000000000120 .L0 
     /tmp/ccqqxKun.s:295    .text:0000000000000120 _Z11thread_exitv
     /tmp/ccqqxKun.s:298    .text:0000000000000120 .L0 
     /tmp/ccqqxKun.s:299    .text:0000000000000120 .L0 
     /tmp/ccqqxKun.s:300    .text:0000000000000124 .L0 
     /tmp/ccqqxKun.s:302    .text:0000000000000128 .L0 
     /tmp/ccqqxKun.s:304    .text:000000000000012c .L0 
     /tmp/ccqqxKun.s:307    .text:000000000000012c .L0 
     /tmp/ccqqxKun.s:308    .text:000000000000012c .L0 
     /tmp/ccqqxKun.s:309    .text:000000000000012c .L0 
     /tmp/ccqqxKun.s:315    .text:0000000000000134 .L0 
   src/syscall_c.cpp:54     .text:0000000000000134 .L0 
     /tmp/ccqqxKun.s:320    .text:0000000000000138 .L0 
   src/syscall_c.cpp:55     .text:0000000000000138 .L0 
     /tmp/ccqqxKun.s:326    .text:000000000000013c .L0 
     /tmp/ccqqxKun.s:328    .text:000000000000013c .L0 
     /tmp/ccqqxKun.s:330    .text:0000000000000144 .L0 
     /tmp/ccqqxKun.s:331    .text:0000000000000144 .L0 
     /tmp/ccqqxKun.s:333    .text:0000000000000148 .L0 
     /tmp/ccqqxKun.s:335    .text:000000000000014c .L0 
     /tmp/ccqqxKun.s:341    .text:000000000000014c _Z15thread_dispatchv
     /tmp/ccqqxKun.s:344    .text:000000000000014c .L0 
     /tmp/ccqqxKun.s:345    .text:000000000000014c .L0 
     /tmp/ccqqxKun.s:346    .text:0000000000000150 .L0 
     /tmp/ccqqxKun.s:348    .text:0000000000000154 .L0 
     /tmp/ccqqxKun.s:350    .text:0000000000000158 .L0 
     /tmp/ccqqxKun.s:352    .text:0000000000000158 .L0 
     /tmp/ccqqxKun.s:353    .text:0000000000000158 .L0 
     /tmp/ccqqxKun.s:359    .text:0000000000000160 .L0 
   src/syscall_c.cpp:63     .text:0000000000000160 .L0 
     /tmp/ccqqxKun.s:365    .text:0000000000000164 .L0 
     /tmp/ccqqxKun.s:366    .text:0000000000000168 .L0 
     /tmp/ccqqxKun.s:367    .text:0000000000000168 .L0 
     /tmp/ccqqxKun.s:369    .text:000000000000016c .L0 
     /tmp/ccqqxKun.s:371    .text:0000000000000170 .L0 
     /tmp/ccqqxKun.s:377    .text:0000000000000170 _Z11thread_joinP7kThread
     /tmp/ccqqxKun.s:380    .text:0000000000000170 .L0 
     /tmp/ccqqxKun.s:382    .text:0000000000000170 .L0 
     /tmp/ccqqxKun.s:383    .text:0000000000000174 .L0 
     /tmp/ccqqxKun.s:385    .text:0000000000000178 .L0 
     /tmp/ccqqxKun.s:387    .text:000000000000017c .L0 
     /tmp/ccqqxKun.s:389    .text:000000000000017c .L0 
   src/syscall_c.cpp:68     .text:000000000000017c .L0 
     /tmp/ccqqxKun.s:395    .text:0000000000000180 .L0 
     /tmp/ccqqxKun.s:397    .text:0000000000000180 .L0 
     /tmp/ccqqxKun.s:403    .text:0000000000000188 .L0 
   src/syscall_c.cpp:70     .text:0000000000000188 .L0 
     /tmp/ccqqxKun.s:409    .text:000000000000018c .L0 
     /tmp/ccqqxKun.s:410    .text:0000000000000190 .L0 
     /tmp/ccqqxKun.s:411    .text:0000000000000190 .L0 
     /tmp/ccqqxKun.s:413    .text:0000000000000194 .L0 
     /tmp/ccqqxKun.s:415    .text:0000000000000198 .L0 
     /tmp/ccqqxKun.s:421    .text:0000000000000198 _Z8sem_openPP10kSemaphorej
     /tmp/ccqqxKun.s:424    .text:0000000000000198 .L0 
     /tmp/ccqqxKun.s:426    .text:0000000000000198 .L0 
     /tmp/ccqqxKun.s:427    .text:000000000000019c .L0 
     /tmp/ccqqxKun.s:429    .text:00000000000001a0 .L0 
GAS LISTING /tmp/ccqqxKun.s 			page 20


     /tmp/ccqqxKun.s:431    .text:00000000000001a4 .L0 
     /tmp/ccqqxKun.s:434    .text:00000000000001a4 .L0 
     /tmp/ccqqxKun.s:435    .text:00000000000001a4 .L0 
   src/syscall_c.cpp:77     .text:00000000000001a4 .L0 
     /tmp/ccqqxKun.s:441    .text:00000000000001a8 .L0 
   src/syscall_c.cpp:78     .text:00000000000001a8 .L0 
     /tmp/ccqqxKun.s:446    .text:00000000000001ac .L0 
     /tmp/ccqqxKun.s:448    .text:00000000000001ac .L0 
     /tmp/ccqqxKun.s:454    .text:00000000000001b4 .L0 
   src/syscall_c.cpp:80     .text:00000000000001b4 .L0 
     /tmp/ccqqxKun.s:459    .text:00000000000001b8 .L0 
   src/syscall_c.cpp:81     .text:00000000000001b8 .L0 
     /tmp/ccqqxKun.s:465    .text:00000000000001bc .L0 
     /tmp/ccqqxKun.s:467    .text:00000000000001bc .L0 
     /tmp/ccqqxKun.s:469    .text:00000000000001c4 .L0 
     /tmp/ccqqxKun.s:470    .text:00000000000001c4 .L0 
     /tmp/ccqqxKun.s:472    .text:00000000000001c8 .L0 
     /tmp/ccqqxKun.s:474    .text:00000000000001cc .L0 
     /tmp/ccqqxKun.s:480    .text:00000000000001cc _Z9sem_closeP10kSemaphore
     /tmp/ccqqxKun.s:483    .text:00000000000001cc .L0 
     /tmp/ccqqxKun.s:485    .text:00000000000001cc .L0 
     /tmp/ccqqxKun.s:486    .text:00000000000001d0 .L0 
     /tmp/ccqqxKun.s:488    .text:00000000000001d4 .L0 
     /tmp/ccqqxKun.s:490    .text:00000000000001d8 .L0 
     /tmp/ccqqxKun.s:493    .text:00000000000001d8 .L0 
     /tmp/ccqqxKun.s:494    .text:00000000000001d8 .L0 
   src/syscall_c.cpp:89     .text:00000000000001d8 .L0 
     /tmp/ccqqxKun.s:500    .text:00000000000001dc .L0 
     /tmp/ccqqxKun.s:502    .text:00000000000001dc .L0 
     /tmp/ccqqxKun.s:508    .text:00000000000001e4 .L0 
   src/syscall_c.cpp:91     .text:00000000000001e4 .L0 
     /tmp/ccqqxKun.s:513    .text:00000000000001e8 .L0 
   src/syscall_c.cpp:92     .text:00000000000001e8 .L0 
     /tmp/ccqqxKun.s:519    .text:00000000000001ec .L0 
     /tmp/ccqqxKun.s:521    .text:00000000000001ec .L0 
     /tmp/ccqqxKun.s:523    .text:00000000000001f4 .L0 
     /tmp/ccqqxKun.s:524    .text:00000000000001f4 .L0 
     /tmp/ccqqxKun.s:526    .text:00000000000001f8 .L0 
     /tmp/ccqqxKun.s:528    .text:00000000000001fc .L0 
     /tmp/ccqqxKun.s:534    .text:00000000000001fc _Z8sem_waitP10kSemaphore
     /tmp/ccqqxKun.s:537    .text:00000000000001fc .L0 
     /tmp/ccqqxKun.s:539    .text:00000000000001fc .L0 
     /tmp/ccqqxKun.s:540    .text:0000000000000200 .L0 
     /tmp/ccqqxKun.s:542    .text:0000000000000204 .L0 
     /tmp/ccqqxKun.s:544    .text:0000000000000208 .L0 
     /tmp/ccqqxKun.s:547    .text:0000000000000208 .L0 
     /tmp/ccqqxKun.s:548    .text:0000000000000208 .L0 
   src/syscall_c.cpp:100    .text:0000000000000208 .L0 
     /tmp/ccqqxKun.s:554    .text:000000000000020c .L0 
     /tmp/ccqqxKun.s:556    .text:000000000000020c .L0 
     /tmp/ccqqxKun.s:562    .text:0000000000000214 .L0 
   src/syscall_c.cpp:102    .text:0000000000000214 .L0 
     /tmp/ccqqxKun.s:567    .text:0000000000000218 .L0 
   src/syscall_c.cpp:103    .text:0000000000000218 .L0 
     /tmp/ccqqxKun.s:573    .text:000000000000021c .L0 
     /tmp/ccqqxKun.s:575    .text:000000000000021c .L0 
     /tmp/ccqqxKun.s:577    .text:0000000000000224 .L0 
GAS LISTING /tmp/ccqqxKun.s 			page 21


     /tmp/ccqqxKun.s:578    .text:0000000000000224 .L0 
     /tmp/ccqqxKun.s:580    .text:0000000000000228 .L0 
     /tmp/ccqqxKun.s:582    .text:000000000000022c .L0 
     /tmp/ccqqxKun.s:588    .text:000000000000022c _Z10sem_signalP10kSemaphore
     /tmp/ccqqxKun.s:591    .text:000000000000022c .L0 
     /tmp/ccqqxKun.s:593    .text:000000000000022c .L0 
     /tmp/ccqqxKun.s:594    .text:0000000000000230 .L0 
     /tmp/ccqqxKun.s:596    .text:0000000000000234 .L0 
     /tmp/ccqqxKun.s:598    .text:0000000000000238 .L0 
     /tmp/ccqqxKun.s:601    .text:0000000000000238 .L0 
     /tmp/ccqqxKun.s:602    .text:0000000000000238 .L0 
   src/syscall_c.cpp:111    .text:0000000000000238 .L0 
     /tmp/ccqqxKun.s:608    .text:000000000000023c .L0 
     /tmp/ccqqxKun.s:610    .text:000000000000023c .L0 
     /tmp/ccqqxKun.s:616    .text:0000000000000244 .L0 
   src/syscall_c.cpp:113    .text:0000000000000244 .L0 
     /tmp/ccqqxKun.s:621    .text:0000000000000248 .L0 
   src/syscall_c.cpp:114    .text:0000000000000248 .L0 
     /tmp/ccqqxKun.s:627    .text:000000000000024c .L0 
     /tmp/ccqqxKun.s:629    .text:000000000000024c .L0 
     /tmp/ccqqxKun.s:631    .text:0000000000000254 .L0 
     /tmp/ccqqxKun.s:632    .text:0000000000000254 .L0 
     /tmp/ccqqxKun.s:634    .text:0000000000000258 .L0 
     /tmp/ccqqxKun.s:636    .text:000000000000025c .L0 
     /tmp/ccqqxKun.s:642    .text:000000000000025c _Z10time_sleepm
     /tmp/ccqqxKun.s:645    .text:000000000000025c .L0 
     /tmp/ccqqxKun.s:647    .text:000000000000025c .L0 
     /tmp/ccqqxKun.s:648    .text:0000000000000260 .L0 
     /tmp/ccqqxKun.s:650    .text:0000000000000264 .L0 
     /tmp/ccqqxKun.s:652    .text:0000000000000268 .L0 
     /tmp/ccqqxKun.s:655    .text:0000000000000268 .L0 
     /tmp/ccqqxKun.s:656    .text:0000000000000268 .L0 
   src/syscall_c.cpp:122    .text:0000000000000268 .L0 
     /tmp/ccqqxKun.s:662    .text:000000000000026c .L0 
     /tmp/ccqqxKun.s:664    .text:000000000000026c .L0 
     /tmp/ccqqxKun.s:670    .text:0000000000000274 .L0 
   src/syscall_c.cpp:124    .text:0000000000000274 .L0 
     /tmp/ccqqxKun.s:675    .text:0000000000000278 .L0 
   src/syscall_c.cpp:125    .text:0000000000000278 .L0 
     /tmp/ccqqxKun.s:681    .text:000000000000027c .L0 
     /tmp/ccqqxKun.s:683    .text:000000000000027c .L0 
     /tmp/ccqqxKun.s:685    .text:0000000000000284 .L0 
     /tmp/ccqqxKun.s:686    .text:0000000000000284 .L0 
     /tmp/ccqqxKun.s:688    .text:0000000000000288 .L0 
     /tmp/ccqqxKun.s:690    .text:000000000000028c .L0 
     /tmp/ccqqxKun.s:696    .text:000000000000028c _Z4getcv
     /tmp/ccqqxKun.s:699    .text:000000000000028c .L0 
     /tmp/ccqqxKun.s:700    .text:000000000000028c .L0 
     /tmp/ccqqxKun.s:701    .text:0000000000000290 .L0 
     /tmp/ccqqxKun.s:703    .text:0000000000000294 .L0 
     /tmp/ccqqxKun.s:705    .text:0000000000000298 .L0 
     /tmp/ccqqxKun.s:708    .text:0000000000000298 .L0 
     /tmp/ccqqxKun.s:709    .text:0000000000000298 .L0 
     /tmp/ccqqxKun.s:710    .text:0000000000000298 .L0 
     /tmp/ccqqxKun.s:716    .text:00000000000002a0 .L0 
   src/syscall_c.cpp:133    .text:00000000000002a0 .L0 
     /tmp/ccqqxKun.s:721    .text:00000000000002a4 .L0 
GAS LISTING /tmp/ccqqxKun.s 			page 22


   src/syscall_c.cpp:134    .text:00000000000002a4 .L0 
     /tmp/ccqqxKun.s:727    .text:00000000000002a8 .L0 
     /tmp/ccqqxKun.s:729    .text:00000000000002a8 .L0 
     /tmp/ccqqxKun.s:731    .text:00000000000002b0 .L0 
     /tmp/ccqqxKun.s:732    .text:00000000000002b0 .L0 
     /tmp/ccqqxKun.s:734    .text:00000000000002b4 .L0 
     /tmp/ccqqxKun.s:736    .text:00000000000002b8 .L0 
     /tmp/ccqqxKun.s:742    .text:00000000000002b8 _Z4putcc
     /tmp/ccqqxKun.s:745    .text:00000000000002b8 .L0 
     /tmp/ccqqxKun.s:747    .text:00000000000002b8 .L0 
     /tmp/ccqqxKun.s:748    .text:00000000000002bc .L0 
     /tmp/ccqqxKun.s:750    .text:00000000000002c0 .L0 
     /tmp/ccqqxKun.s:752    .text:00000000000002c4 .L0 
     /tmp/ccqqxKun.s:754    .text:00000000000002c4 .L0 
   src/syscall_c.cpp:141    .text:00000000000002c4 .L0 
     /tmp/ccqqxKun.s:760    .text:00000000000002c8 .L0 
     /tmp/ccqqxKun.s:762    .text:00000000000002c8 .L0 
     /tmp/ccqqxKun.s:768    .text:00000000000002d0 .L0 
   src/syscall_c.cpp:143    .text:00000000000002d0 .L0 
     /tmp/ccqqxKun.s:774    .text:00000000000002d4 .L0 
     /tmp/ccqqxKun.s:775    .text:00000000000002d8 .L0 
     /tmp/ccqqxKun.s:776    .text:00000000000002d8 .L0 
     /tmp/ccqqxKun.s:778    .text:00000000000002dc .L0 
     /tmp/ccqqxKun.s:780    .text:00000000000002e0 .L0 
     /tmp/ccqqxKun.s:786    .text:00000000000002e0 .L0 
     /tmp/ccqqxKun.s:93     .text:0000000000000050 .L4
     /tmp/ccqqxKun.s:283    .text:0000000000000118 .L10
     /tmp/ccqqxKun.s:219    .text:00000000000000d8 .L9
     /tmp/ccqqxKun.s:1341   .debug_abbrev:0000000000000000 .Ldebug_abbrev0
     /tmp/ccqqxKun.s:2144   .debug_str:0000000000000178 .LASF56
     /tmp/ccqqxKun.s:2210   .debug_str:00000000000003eb .LASF57
     /tmp/ccqqxKun.s:2102   .debug_str:000000000000004d .LASF58
     /tmp/ccqqxKun.s:5      .text:0000000000000000 .Ltext0
     /tmp/ccqqxKun.s:783    .text:00000000000002e0 .Letext0
     /tmp/ccqqxKun.s:2090   .debug_line:0000000000000000 .Ldebug_line0
     /tmp/ccqqxKun.s:2154   .debug_str:0000000000000274 .LASF0
     /tmp/ccqqxKun.s:2132   .debug_str:0000000000000130 .LASF1
     /tmp/ccqqxKun.s:2122   .debug_str:00000000000000f8 .LASF2
     /tmp/ccqqxKun.s:2108   .debug_str:0000000000000085 .LASF4
     /tmp/ccqqxKun.s:2130   .debug_str:000000000000011e .LASF3
     /tmp/ccqqxKun.s:2098   .debug_str:000000000000003a .LASF5
     /tmp/ccqqxKun.s:2162   .debug_str:000000000000029a .LASF6
     /tmp/ccqqxKun.s:2094   .debug_str:000000000000000e .LASF7
     /tmp/ccqqxKun.s:2118   .debug_str:00000000000000d6 .LASF8
     /tmp/ccqqxKun.s:2164   .debug_str:00000000000002a1 .LASF9
     /tmp/ccqqxKun.s:2106   .debug_str:0000000000000077 .LASF10
     /tmp/ccqqxKun.s:2212   .debug_str:00000000000003fd .LASF11
     /tmp/ccqqxKun.s:2120   .debug_str:00000000000000e9 .LASF12
     /tmp/ccqqxKun.s:2196   .debug_str:000000000000038f .LASF13
     /tmp/ccqqxKun.s:2172   .debug_str:00000000000002d5 .LASF14
     /tmp/ccqqxKun.s:2136   .debug_str:000000000000014c .LASF15
     /tmp/ccqqxKun.s:2114   .debug_str:00000000000000ab .LASF16
     /tmp/ccqqxKun.s:2168   .debug_str:00000000000002b6 .LASF17
     /tmp/ccqqxKun.s:2170   .debug_str:00000000000002cc .LASF18
     /tmp/ccqqxKun.s:2178   .debug_str:00000000000002fe .LASF20
     /tmp/ccqqxKun.s:2104   .debug_str:0000000000000071 .LASF19
     /tmp/ccqqxKun.s:2186   .debug_str:000000000000033c .LASF21
GAS LISTING /tmp/ccqqxKun.s 			page 23


     /tmp/ccqqxKun.s:2182   .debug_str:0000000000000312 .LASF38
     /tmp/ccqqxKun.s:2134   .debug_str:0000000000000143 .LASF40
     /tmp/ccqqxKun.s:743    .text:00000000000002b8 .LFB13
     /tmp/ccqqxKun.s:781    .text:00000000000002e0 .LFE13
     /tmp/ccqqxKun.s:2158   .debug_str:000000000000028c .LASF22
     /tmp/ccqqxKun.s:2124   .debug_str:0000000000000106 .LASF23
     /tmp/ccqqxKun.s:2202   .debug_str:00000000000003b5 .LASF25
     /tmp/ccqqxKun.s:697    .text:000000000000028c .LFB12
     /tmp/ccqqxKun.s:737    .text:00000000000002b8 .LFE12
     /tmp/ccqqxKun.s:1750   .debug_loc:0000000000000000 .LLST22
     /tmp/ccqqxKun.s:2156   .debug_str:0000000000000281 .LASF24
     /tmp/ccqqxKun.s:2188   .debug_str:0000000000000347 .LASF26
     /tmp/ccqqxKun.s:643    .text:000000000000025c .LFB11
     /tmp/ccqqxKun.s:691    .text:000000000000028c .LFE11
     /tmp/ccqqxKun.s:2166   .debug_str:00000000000002b1 .LASF27
     /tmp/ccqqxKun.s:1763   .debug_loc:0000000000000038 .LLST20
     /tmp/ccqqxKun.s:1777   .debug_loc:0000000000000071 .LLST21
     /tmp/ccqqxKun.s:2140   .debug_str:000000000000015f .LASF28
     /tmp/ccqqxKun.s:2148   .debug_str:0000000000000245 .LASF29
     /tmp/ccqqxKun.s:589    .text:000000000000022c .LFB10
     /tmp/ccqqxKun.s:637    .text:000000000000025c .LFE10
     /tmp/ccqqxKun.s:1789   .debug_loc:00000000000000a8 .LLST18
     /tmp/ccqqxKun.s:1803   .debug_loc:00000000000000e1 .LLST19
     /tmp/ccqqxKun.s:2146   .debug_str:000000000000023c .LASF30
     /tmp/ccqqxKun.s:2096   .debug_str:0000000000000021 .LASF31
     /tmp/ccqqxKun.s:535    .text:00000000000001fc .LFB9
     /tmp/ccqqxKun.s:583    .text:000000000000022c .LFE9
     /tmp/ccqqxKun.s:1815   .debug_loc:0000000000000118 .LLST16
     /tmp/ccqqxKun.s:1829   .debug_loc:0000000000000151 .LLST17
     /tmp/ccqqxKun.s:2128   .debug_str:0000000000000114 .LASF32
     /tmp/ccqqxKun.s:2110   .debug_str:000000000000008c .LASF33
     /tmp/ccqqxKun.s:481    .text:00000000000001cc .LFB8
     /tmp/ccqqxKun.s:529    .text:00000000000001fc .LFE8
     /tmp/ccqqxKun.s:2138   .debug_str:0000000000000158 .LASF34
     /tmp/ccqqxKun.s:1841   .debug_loc:0000000000000188 .LLST14
     /tmp/ccqqxKun.s:1855   .debug_loc:00000000000001c1 .LLST15
     /tmp/ccqqxKun.s:2126   .debug_str:000000000000010b .LASF35
     /tmp/ccqqxKun.s:2208   .debug_str:00000000000003d0 .LASF36
     /tmp/ccqqxKun.s:422    .text:0000000000000198 .LFB7
     /tmp/ccqqxKun.s:475    .text:00000000000001cc .LFE7
     /tmp/ccqqxKun.s:1867   .debug_loc:00000000000001f8 .LLST12
     /tmp/ccqqxKun.s:2112   .debug_str:00000000000000a6 .LASF37
     /tmp/ccqqxKun.s:1881   .debug_loc:0000000000000231 .LLST13
     /tmp/ccqqxKun.s:2100   .debug_str:0000000000000041 .LASF39
     /tmp/ccqqxKun.s:2194   .debug_str:0000000000000376 .LASF41
     /tmp/ccqqxKun.s:378    .text:0000000000000170 .LFB6
     /tmp/ccqqxKun.s:416    .text:0000000000000198 .LFE6
     /tmp/ccqqxKun.s:2176   .debug_str:00000000000002ee .LASF59
     /tmp/ccqqxKun.s:2116   .debug_str:00000000000000c1 .LASF60
     /tmp/ccqqxKun.s:342    .text:000000000000014c .LFB5
     /tmp/ccqqxKun.s:372    .text:0000000000000170 .LFE5
     /tmp/ccqqxKun.s:2198   .debug_str:000000000000039f .LASF42
     /tmp/ccqqxKun.s:2192   .debug_str:0000000000000365 .LASF43
     /tmp/ccqqxKun.s:296    .text:0000000000000120 .LFB4
     /tmp/ccqqxKun.s:336    .text:000000000000014c .LFE4
     /tmp/ccqqxKun.s:1893   .debug_loc:0000000000000268 .LLST11
     /tmp/ccqqxKun.s:2190   .debug_str:0000000000000357 .LASF44
GAS LISTING /tmp/ccqqxKun.s 			page 24


     /tmp/ccqqxKun.s:2184   .debug_str:0000000000000317 .LASF45
     /tmp/ccqqxKun.s:187    .text:00000000000000a0 .LFB3
     /tmp/ccqqxKun.s:290    .text:0000000000000120 .LFE3
     /tmp/ccqqxKun.s:1905   .debug_loc:000000000000029f .LLST6
     /tmp/ccqqxKun.s:2142   .debug_str:000000000000016a .LASF46
     /tmp/ccqqxKun.s:1931   .debug_loc:0000000000000311 .LLST7
     /tmp/ccqqxKun.s:1953   .debug_loc:0000000000000370 .LLST8
     /tmp/ccqqxKun.s:1975   .debug_loc:00000000000003cf .LLST9
     /tmp/ccqqxKun.s:2180   .debug_str:0000000000000306 .LASF47
     /tmp/ccqqxKun.s:1992   .debug_loc:000000000000041a .LLST10
     /tmp/ccqqxKun.s:218    .text:00000000000000d8 .LVL15
     /tmp/ccqqxKun.s:2174   .debug_str:00000000000002e5 .LASF48
     /tmp/ccqqxKun.s:2092   .debug_str:0000000000000000 .LASF49
     /tmp/ccqqxKun.s:133    .text:0000000000000070 .LFB2
     /tmp/ccqqxKun.s:181    .text:00000000000000a0 .LFE2
     /tmp/ccqqxKun.s:1999   .debug_loc:000000000000043d .LLST4
     /tmp/ccqqxKun.s:2013   .debug_loc:0000000000000476 .LLST5
     /tmp/ccqqxKun.s:2200   .debug_str:00000000000003ab .LASF50
     /tmp/ccqqxKun.s:2150   .debug_str:0000000000000261 .LASF51
     /tmp/ccqqxKun.s:65     .text:0000000000000030 .LFB1
     /tmp/ccqqxKun.s:127    .text:0000000000000070 .LFE1
     /tmp/ccqqxKun.s:2204   .debug_str:00000000000003be .LASF52
     /tmp/ccqqxKun.s:2025   .debug_loc:00000000000004ad .LLST2
     /tmp/ccqqxKun.s:2039   .debug_loc:00000000000004e6 .LLST3
     /tmp/ccqqxKun.s:2206   .debug_str:00000000000003c3 .LASF53
     /tmp/ccqqxKun.s:2152   .debug_str:000000000000026f .LASF54
     /tmp/ccqqxKun.s:2160   .debug_str:0000000000000291 .LASF55
     /tmp/ccqqxKun.s:10     .text:0000000000000000 .LFB0
     /tmp/ccqqxKun.s:59     .text:0000000000000030 .LFE0
     /tmp/ccqqxKun.s:2051   .debug_loc:000000000000051d .LLST0
     /tmp/ccqqxKun.s:2065   .debug_loc:0000000000000556 .LLST1
     /tmp/ccqqxKun.s:707    .text:0000000000000298 .LVL40
     /tmp/ccqqxKun.s:725    .text:00000000000002a8 .LVL41
     /tmp/ccqqxKun.s:646    .text:000000000000025c .LVL37
     /tmp/ccqqxKun.s:679    .text:000000000000027c .LVL39
     /tmp/ccqqxKun.s:654    .text:0000000000000268 .LVL38
     /tmp/ccqqxKun.s:592    .text:000000000000022c .LVL34
     /tmp/ccqqxKun.s:625    .text:000000000000024c .LVL36
     /tmp/ccqqxKun.s:600    .text:0000000000000238 .LVL35
     /tmp/ccqqxKun.s:538    .text:00000000000001fc .LVL31
     /tmp/ccqqxKun.s:571    .text:000000000000021c .LVL33
     /tmp/ccqqxKun.s:546    .text:0000000000000208 .LVL32
     /tmp/ccqqxKun.s:484    .text:00000000000001cc .LVL28
     /tmp/ccqqxKun.s:517    .text:00000000000001ec .LVL30
     /tmp/ccqqxKun.s:492    .text:00000000000001d8 .LVL29
     /tmp/ccqqxKun.s:425    .text:0000000000000198 .LVL25
     /tmp/ccqqxKun.s:463    .text:00000000000001bc .LVL27
     /tmp/ccqqxKun.s:433    .text:00000000000001a4 .LVL26
     /tmp/ccqqxKun.s:306    .text:000000000000012c .LVL22
     /tmp/ccqqxKun.s:324    .text:000000000000013c .LVL23
     /tmp/ccqqxKun.s:190    .text:00000000000000a0 .LVL12
     /tmp/ccqqxKun.s:216    .text:00000000000000d0 .LVL14
     /tmp/ccqqxKun.s:278    .text:0000000000000110 .LVL19
     /tmp/ccqqxKun.s:282    .text:0000000000000118 .LVL20
     /tmp/ccqqxKun.s:287    .text:000000000000011c .LVL21
     /tmp/ccqqxKun.s:272    .text:0000000000000108 .LVL17
     /tmp/ccqqxKun.s:275    .text:000000000000010c .LVL18
GAS LISTING /tmp/ccqqxKun.s 			page 25


     /tmp/ccqqxKun.s:209    .text:00000000000000c8 .LVL13
     /tmp/ccqqxKun.s:259    .text:00000000000000f8 .LVL16
     /tmp/ccqqxKun.s:136    .text:0000000000000070 .LVL9
     /tmp/ccqqxKun.s:169    .text:0000000000000090 .LVL11
     /tmp/ccqqxKun.s:144    .text:000000000000007c .LVL10
     /tmp/ccqqxKun.s:68     .text:0000000000000030 .LVL3
     /tmp/ccqqxKun.s:86     .text:0000000000000048 .LVL6
     /tmp/ccqqxKun.s:76     .text:000000000000003c .LVL4
     /tmp/ccqqxKun.s:116    .text:0000000000000064 .LVL8
     /tmp/ccqqxKun.s:14     .text:0000000000000000 .LVL0
     /tmp/ccqqxKun.s:47     .text:0000000000000020 .LVL2
     /tmp/ccqqxKun.s:22     .text:000000000000000c .LVL1
     /tmp/ccqqxKun.s:787    .debug_info:0000000000000000 .Ldebug_info0

NO UNDEFINED SYMBOLS
