GAS LISTING /tmp/ccK4CYyE.s 			page 1


   1              		.file	"workers.cpp"
   2              		.option pic
   3              		.option norelax
   4              		.text
   5              	.Ltext0:
   6              		.align	2
   8              	_ZL9fibonaccim:
   9              	.LFB5:
  10              		.file 1 "src/workers.cpp"
   1:src/workers.cpp **** //
   2:src/workers.cpp **** // Created by marko on 20.4.22..
   3:src/workers.cpp **** //
   4:src/workers.cpp **** 
   5:src/workers.cpp **** #include"../lib/hw.h"
   6:src/workers.cpp **** #include "../h/print.hpp"
   7:src/workers.cpp **** #include "../h/kThread.hpp"
   8:src/workers.cpp **** #include "../h/syscall_c.hpp"
   9:src/workers.cpp **** 
  10:src/workers.cpp **** static uint64 fibonacci(uint64 n)
  11:src/workers.cpp **** {
  11              		.loc 1 11 1
  12              		.cfi_startproc
  13              	.LVL0:
  14 0000 130101FE 		addi	sp,sp,-32
  15              		.cfi_def_cfa_offset 32
  16 0004 233C1100 		sd	ra,24(sp)
  17 0008 23388100 		sd	s0,16(sp)
  18 000c 23349100 		sd	s1,8(sp)
  19 0010 23302101 		sd	s2,0(sp)
  20              		.cfi_offset 1, -8
  21              		.cfi_offset 8, -16
  22              		.cfi_offset 9, -24
  23              		.cfi_offset 18, -32
  24 0014 13040102 		addi	s0,sp,32
  25              		.cfi_def_cfa 8, 0
  26 0018 93040500 		mv	s1,a0
  12:src/workers.cpp ****     if (n == 0 || n == 1) { return n; }
  27              		.loc 1 12 5
  28 001c 93071000 		li	a5,1
  29 0020 63F6A702 		bleu	a0,a5,.L1
  13:src/workers.cpp ****     if (n % 4 == 0) thread_dispatch();
  30              		.loc 1 13 5
  31              		.loc 1 13 11 is_stmt 0
  32 0024 93773500 		andi	a5,a0,3
  33              		.loc 1 13 5
  34 0028 638E0702 		beqz	a5,.L6
  35              	.LVL1:
  36              	.L3:
  14:src/workers.cpp ****     return fibonacci(n - 1) + fibonacci(n - 2);
  37              		.loc 1 14 5 is_stmt 1
  38              		.loc 1 14 21 is_stmt 0
  39 002c 1385F4FF 		addi	a0,s1,-1
  40 0030 97000000 		call	_ZL9fibonaccim
  40      E7800000 
  41              	.LVL2:
  42 0038 13090500 		mv	s2,a0
  43              		.loc 1 14 40
GAS LISTING /tmp/ccK4CYyE.s 			page 2


  44 003c 1385E4FF 		addi	a0,s1,-2
  45 0040 97000000 		call	_ZL9fibonaccim
  45      E7800000 
  46              	.LVL3:
  47              		.loc 1 14 46
  48 0048 3305A900 		add	a0,s2,a0
  49              	.L1:
  15:src/workers.cpp **** }
  50              		.loc 1 15 1
  51 004c 83308101 		ld	ra,24(sp)
  52              		.cfi_remember_state
  53              		.cfi_restore 1
  54 0050 03340101 		ld	s0,16(sp)
  55              		.cfi_restore 8
  56              		.cfi_def_cfa 2, 32
  57 0054 83348100 		ld	s1,8(sp)
  58              		.cfi_restore 9
  59              	.LVL4:
  60 0058 03390100 		ld	s2,0(sp)
  61              		.cfi_restore 18
  62 005c 13010102 		addi	sp,sp,32
  63              		.cfi_def_cfa_offset 0
  64 0060 67800000 		jr	ra
  65              	.LVL5:
  66              	.L6:
  67              		.cfi_restore_state
  13:src/workers.cpp ****     if (n % 4 == 0) thread_dispatch();
  68              		.loc 1 13 21 is_stmt 1 discriminator 1
  13:src/workers.cpp ****     if (n % 4 == 0) thread_dispatch();
  69              		.loc 1 13 36 is_stmt 0 discriminator 1
  70 0064 97000000 		call	_Z15thread_dispatchv@plt
  70      E7800000 
  71              	.LVL6:
  72 006c 6FF01FFC 		j	.L3
  73              		.cfi_endproc
  74              	.LFE5:
  76              		.section	.rodata.str1.8,"aMS",@progbits,1
  77              		.align	3
  78              	.LC0:
  79 0000 413A2069 		.string	"A: i="
  79      3D00
  80 0006 0000     		.align	3
  81              	.LC1:
  82 0008 0A00     		.string	"\n"
  83 000a 00000000 		.align	3
  83      0000
  84              	.LC2:
  85 0010 413A2079 		.string	"A: yield\n"
  85      69656C64 
  85      0A00
  86 001a 00000000 		.align	3
  86      0000
  87              	.LC3:
  88 0020 413A2074 		.string	"A: t1="
  88      313D00
  89 0027 00       		.align	3
  90              	.LC4:
GAS LISTING /tmp/ccK4CYyE.s 			page 3


  91 0028 413A2066 		.string	"A: fibonaci="
  91      69626F6E 
  91      6163693D 
  91      00
  92              		.text
  93              		.align	2
  94              		.globl	_Z11workerBodyAPv
  96              	_Z11workerBodyAPv:
  97              	.LFB6:
  16:src/workers.cpp **** 
  17:src/workers.cpp **** void workerBodyA(void *)
  18:src/workers.cpp **** {
  98              		.loc 1 18 1 is_stmt 1
  99              		.cfi_startproc
 100 0070 130101FE 		addi	sp,sp,-32
 101              		.cfi_def_cfa_offset 32
 102 0074 233C1100 		sd	ra,24(sp)
 103 0078 23388100 		sd	s0,16(sp)
 104 007c 23349100 		sd	s1,8(sp)
 105 0080 23302101 		sd	s2,0(sp)
 106              		.cfi_offset 1, -8
 107              		.cfi_offset 8, -16
 108              		.cfi_offset 9, -24
 109              		.cfi_offset 18, -32
 110 0084 13040102 		addi	s0,sp,32
 111              		.cfi_def_cfa 8, 0
  19:src/workers.cpp ****     uint8 i = 0;
 112              		.loc 1 19 5
 113              	.LVL7:
 114              		.loc 1 19 11 is_stmt 0
 115 0088 93040000 		li	s1,0
 116 008c 6F008003 		j	.L9
 117              	.LVL8:
 118              	.L13:
  20:src/workers.cpp ****     for (; i < 3; i++)
  21:src/workers.cpp ****     {
  22:src/workers.cpp ****         printString("A: i=");
 119              		.loc 1 22 9 is_stmt 1 discriminator 1
 120              		.loc 1 22 20 is_stmt 0 discriminator 1
 121 0090 17050000 		lla	a0,.LC0
 121      13050500 
 122 0098 97000000 		call	_Z11printStringPKc@plt
 122      E7800000 
 123              	.LVL9:
  23:src/workers.cpp ****         printInteger(i);
 124              		.loc 1 23 9 is_stmt 1 discriminator 1
 125              		.loc 1 23 21 is_stmt 0 discriminator 1
 126 00a0 13850400 		mv	a0,s1
 127 00a4 97000000 		call	_Z12printIntegerm@plt
 127      E7800000 
 128              	.LVL10:
  24:src/workers.cpp ****         printString("\n");
 129              		.loc 1 24 9 is_stmt 1 discriminator 1
 130              		.loc 1 24 20 is_stmt 0 discriminator 1
 131 00ac 17050000 		lla	a0,.LC1
 131      13050500 
 132 00b4 97000000 		call	_Z11printStringPKc@plt
GAS LISTING /tmp/ccK4CYyE.s 			page 4


 132      E7800000 
 133              	.LVL11:
  20:src/workers.cpp ****     for (; i < 3; i++)
 134              		.loc 1 20 5 is_stmt 1 discriminator 1
 135 00bc 9B841400 		addiw	s1,s1,1
 136              	.LVL12:
 137 00c0 93F4F40F 		andi	s1,s1,0xff
 138              	.LVL13:
 139              	.L9:
  20:src/workers.cpp ****     for (; i < 3; i++)
 140              		.loc 1 20 5 discriminator 2
  20:src/workers.cpp ****     for (; i < 3; i++)
 141              		.loc 1 20 14 discriminator 2
 142 00c4 93072000 		li	a5,2
 143 00c8 E3F497FC 		bleu	s1,a5,.L13
  25:src/workers.cpp ****     }
  26:src/workers.cpp **** 
  27:src/workers.cpp ****     printString("A: yield\n");
 144              		.loc 1 27 5
 145              		.loc 1 27 16 is_stmt 0
 146 00cc 17050000 		lla	a0,.LC2
 146      13050500 
 147 00d4 97000000 		call	_Z11printStringPKc@plt
 147      E7800000 
 148              	.LVL14:
  28:src/workers.cpp ****     __asm__ ("li t1, 7");
 149              		.loc 1 28 5 is_stmt 1
 150              		.loc 1 28 25 is_stmt 0
 151              	#APP
 152              	# 28 "src/workers.cpp" 1
  29              	    thread_dispatch();
 153              		li t1, 7
 154              	# 0 "" 2
 155              		.loc 1 29 5 is_stmt 1
 156              		.loc 1 29 20 is_stmt 0
 157              	#NO_APP
 158 00e0 97000000 		call	_Z15thread_dispatchv@plt
 158      E7800000 
 159              	.LVL15:
  30:src/workers.cpp **** 
  31:src/workers.cpp ****     uint64 t1 = 0;
 160              		.loc 1 31 5 is_stmt 1
  32:src/workers.cpp ****     __asm__ ("mv %[t1], t1" : [t1] "=r"(t1));
 161              		.loc 1 32 5
 162              		.loc 1 32 45 is_stmt 0
 163              	#APP
 164              	# 32 "src/workers.cpp" 1
  33              	
 165              		mv s2, t1
 166              	# 0 "" 2
 167              	.LVL16:
  34:src/workers.cpp ****     printString("A: t1=");
 168              		.loc 1 34 5 is_stmt 1
 169              		.loc 1 34 16 is_stmt 0
 170              	#NO_APP
 171 00ec 17050000 		lla	a0,.LC3
 171      13050500 
GAS LISTING /tmp/ccK4CYyE.s 			page 5


 172 00f4 97000000 		call	_Z11printStringPKc@plt
 172      E7800000 
 173              	.LVL17:
  35:src/workers.cpp ****     printInteger(t1);
 174              		.loc 1 35 5 is_stmt 1
 175              		.loc 1 35 17 is_stmt 0
 176 00fc 13050900 		mv	a0,s2
 177 0100 97000000 		call	_Z12printIntegerm@plt
 177      E7800000 
 178              	.LVL18:
  36:src/workers.cpp ****     printString("\n");
 179              		.loc 1 36 5 is_stmt 1
 180              		.loc 1 36 16 is_stmt 0
 181 0108 17050000 		lla	a0,.LC1
 181      13050500 
 182 0110 97000000 		call	_Z11printStringPKc@plt
 182      E7800000 
 183              	.LVL19:
  37:src/workers.cpp **** 
  38:src/workers.cpp ****     uint64 result = fibonacci(20);
 184              		.loc 1 38 5 is_stmt 1
 185              		.loc 1 38 30 is_stmt 0
 186 0118 13054001 		li	a0,20
 187 011c 97000000 		call	_ZL9fibonaccim
 187      E7800000 
 188              	.LVL20:
 189 0124 13090500 		mv	s2,a0
 190              	.LVL21:
  39:src/workers.cpp ****     printString("A: fibonaci=");
 191              		.loc 1 39 5 is_stmt 1
 192              		.loc 1 39 16 is_stmt 0
 193 0128 17050000 		lla	a0,.LC4
 193      13050500 
 194              	.LVL22:
 195 0130 97000000 		call	_Z11printStringPKc@plt
 195      E7800000 
 196              	.LVL23:
  40:src/workers.cpp ****     printInteger(result);
 197              		.loc 1 40 5 is_stmt 1
 198              		.loc 1 40 17 is_stmt 0
 199 0138 13050900 		mv	a0,s2
 200 013c 97000000 		call	_Z12printIntegerm@plt
 200      E7800000 
 201              	.LVL24:
  41:src/workers.cpp ****     printString("\n");
 202              		.loc 1 41 5 is_stmt 1
 203              		.loc 1 41 16 is_stmt 0
 204 0144 17050000 		lla	a0,.LC1
 204      13050500 
 205 014c 97000000 		call	_Z11printStringPKc@plt
 205      E7800000 
 206              	.LVL25:
 207 0154 6F008003 		j	.L11
 208              	.L14:
  42:src/workers.cpp **** 
  43:src/workers.cpp ****     for (; i < 6; i++)
  44:src/workers.cpp ****     {
GAS LISTING /tmp/ccK4CYyE.s 			page 6


  45:src/workers.cpp ****         printString("A: i=");
 209              		.loc 1 45 9 is_stmt 1 discriminator 1
 210              		.loc 1 45 20 is_stmt 0 discriminator 1
 211 0158 17050000 		lla	a0,.LC0
 211      13050500 
 212 0160 97000000 		call	_Z11printStringPKc@plt
 212      E7800000 
 213              	.LVL26:
  46:src/workers.cpp ****         printInteger(i);
 214              		.loc 1 46 9 is_stmt 1 discriminator 1
 215              		.loc 1 46 21 is_stmt 0 discriminator 1
 216 0168 13850400 		mv	a0,s1
 217 016c 97000000 		call	_Z12printIntegerm@plt
 217      E7800000 
 218              	.LVL27:
  47:src/workers.cpp ****         printString("\n");
 219              		.loc 1 47 9 is_stmt 1 discriminator 1
 220              		.loc 1 47 20 is_stmt 0 discriminator 1
 221 0174 17050000 		lla	a0,.LC1
 221      13050500 
 222 017c 97000000 		call	_Z11printStringPKc@plt
 222      E7800000 
 223              	.LVL28:
  43:src/workers.cpp ****     {
 224              		.loc 1 43 5 is_stmt 1 discriminator 1
 225 0184 9B841400 		addiw	s1,s1,1
 226              	.LVL29:
 227 0188 93F4F40F 		andi	s1,s1,0xff
 228              	.LVL30:
 229              	.L11:
  43:src/workers.cpp ****     {
 230              		.loc 1 43 5 discriminator 2
  43:src/workers.cpp ****     {
 231              		.loc 1 43 14 discriminator 2
 232 018c 93075000 		li	a5,5
 233 0190 E3F497FC 		bleu	s1,a5,.L14
  48:src/workers.cpp ****     }
  49:src/workers.cpp **** 
  50:src/workers.cpp **** //    kThread::running->setFinished(true);
  51:src/workers.cpp **** //    thread_dispatch();
  52:src/workers.cpp **** 
  53:src/workers.cpp **** }
 234              		.loc 1 53 1 is_stmt 0
 235 0194 83308101 		ld	ra,24(sp)
 236              		.cfi_restore 1
 237 0198 03340101 		ld	s0,16(sp)
 238              		.cfi_restore 8
 239              		.cfi_def_cfa 2, 32
 240 019c 83348100 		ld	s1,8(sp)
 241              		.cfi_restore 9
 242              	.LVL31:
 243 01a0 03390100 		ld	s2,0(sp)
 244              		.cfi_restore 18
 245              	.LVL32:
 246 01a4 13010102 		addi	sp,sp,32
 247              		.cfi_def_cfa_offset 0
 248 01a8 67800000 		jr	ra
GAS LISTING /tmp/ccK4CYyE.s 			page 7


 249              		.cfi_endproc
 250              	.LFE6:
 252              		.section	.rodata.str1.8
 253 0035 000000   		.align	3
 254              	.LC5:
 255 0038 423A2069 		.string	"B: i="
 255      3D00
 256 003e 0000     		.align	3
 257              	.LC6:
 258 0040 423A2079 		.string	"B: yield\n"
 258      69656C64 
 258      0A00
 259              		.text
 260              		.align	2
 261              		.globl	_Z11workerBodyBPv
 263              	_Z11workerBodyBPv:
 264              	.LFB7:
  54:src/workers.cpp **** 
  55:src/workers.cpp **** void workerBodyB(void*)
  56:src/workers.cpp **** {
 265              		.loc 1 56 1 is_stmt 1
 266              		.cfi_startproc
 267 01ac 130101FE 		addi	sp,sp,-32
 268              		.cfi_def_cfa_offset 32
 269 01b0 233C1100 		sd	ra,24(sp)
 270 01b4 23388100 		sd	s0,16(sp)
 271 01b8 23349100 		sd	s1,8(sp)
 272 01bc 23302101 		sd	s2,0(sp)
 273              		.cfi_offset 1, -8
 274              		.cfi_offset 8, -16
 275              		.cfi_offset 9, -24
 276              		.cfi_offset 18, -32
 277 01c0 13040102 		addi	s0,sp,32
 278              		.cfi_def_cfa 8, 0
  57:src/workers.cpp ****     uint8 i = 10;
 279              		.loc 1 57 5
 280              	.LVL33:
 281              		.loc 1 57 11 is_stmt 0
 282 01c4 9304A000 		li	s1,10
 283 01c8 6F008003 		j	.L17
 284              	.LVL34:
 285              	.L21:
  58:src/workers.cpp ****     for (; i < 13; i++)
  59:src/workers.cpp ****     {
  60:src/workers.cpp ****         printString("B: i=");
 286              		.loc 1 60 9 is_stmt 1 discriminator 1
 287              		.loc 1 60 20 is_stmt 0 discriminator 1
 288 01cc 17050000 		lla	a0,.LC5
 288      13050500 
 289 01d4 97000000 		call	_Z11printStringPKc@plt
 289      E7800000 
 290              	.LVL35:
  61:src/workers.cpp ****         printInteger(i);
 291              		.loc 1 61 9 is_stmt 1 discriminator 1
 292              		.loc 1 61 21 is_stmt 0 discriminator 1
 293 01dc 13850400 		mv	a0,s1
 294 01e0 97000000 		call	_Z12printIntegerm@plt
GAS LISTING /tmp/ccK4CYyE.s 			page 8


 294      E7800000 
 295              	.LVL36:
  62:src/workers.cpp ****         printString("\n");
 296              		.loc 1 62 9 is_stmt 1 discriminator 1
 297              		.loc 1 62 20 is_stmt 0 discriminator 1
 298 01e8 17050000 		lla	a0,.LC1
 298      13050500 
 299 01f0 97000000 		call	_Z11printStringPKc@plt
 299      E7800000 
 300              	.LVL37:
  58:src/workers.cpp ****     for (; i < 13; i++)
 301              		.loc 1 58 5 is_stmt 1 discriminator 1
 302 01f8 9B841400 		addiw	s1,s1,1
 303              	.LVL38:
 304 01fc 93F4F40F 		andi	s1,s1,0xff
 305              	.LVL39:
 306              	.L17:
  58:src/workers.cpp ****     for (; i < 13; i++)
 307              		.loc 1 58 5 discriminator 2
  58:src/workers.cpp ****     for (; i < 13; i++)
 308              		.loc 1 58 14 discriminator 2
 309 0200 9307C000 		li	a5,12
 310 0204 E3F497FC 		bleu	s1,a5,.L21
  63:src/workers.cpp ****     }
  64:src/workers.cpp **** 
  65:src/workers.cpp ****     printString("B: yield\n");
 311              		.loc 1 65 5
 312              		.loc 1 65 16 is_stmt 0
 313 0208 17050000 		lla	a0,.LC6
 313      13050500 
 314 0210 97000000 		call	_Z11printStringPKc@plt
 314      E7800000 
 315              	.LVL40:
  66:src/workers.cpp ****     __asm__ ("li t1, 5");
 316              		.loc 1 66 5 is_stmt 1
 317              		.loc 1 66 25 is_stmt 0
 318              	#APP
 319              	# 66 "src/workers.cpp" 1
  67              	    thread_dispatch();
 320              		li t1, 5
 321              	# 0 "" 2
 322              		.loc 1 67 5 is_stmt 1
 323              		.loc 1 67 20 is_stmt 0
 324              	#NO_APP
 325 021c 97000000 		call	_Z15thread_dispatchv@plt
 325      E7800000 
 326              	.LVL41:
  68:src/workers.cpp **** 
  69:src/workers.cpp ****     uint64 result = fibonacci(23);
 327              		.loc 1 69 5 is_stmt 1
 328              		.loc 1 69 30 is_stmt 0
 329 0224 13057001 		li	a0,23
 330 0228 97000000 		call	_ZL9fibonaccim
 330      E7800000 
 331              	.LVL42:
 332 0230 13090500 		mv	s2,a0
 333              	.LVL43:
GAS LISTING /tmp/ccK4CYyE.s 			page 9


  70:src/workers.cpp ****     printString("A: fibonaci=");
 334              		.loc 1 70 5 is_stmt 1
 335              		.loc 1 70 16 is_stmt 0
 336 0234 17050000 		lla	a0,.LC4
 336      13050500 
 337              	.LVL44:
 338 023c 97000000 		call	_Z11printStringPKc@plt
 338      E7800000 
 339              	.LVL45:
  71:src/workers.cpp ****     printInteger(result);
 340              		.loc 1 71 5 is_stmt 1
 341              		.loc 1 71 17 is_stmt 0
 342 0244 13050900 		mv	a0,s2
 343 0248 97000000 		call	_Z12printIntegerm@plt
 343      E7800000 
 344              	.LVL46:
  72:src/workers.cpp ****     printString("\n");
 345              		.loc 1 72 5 is_stmt 1
 346              		.loc 1 72 16 is_stmt 0
 347 0250 17050000 		lla	a0,.LC1
 347      13050500 
 348 0258 97000000 		call	_Z11printStringPKc@plt
 348      E7800000 
 349              	.LVL47:
 350 0260 6F008003 		j	.L19
 351              	.L22:
  73:src/workers.cpp **** 
  74:src/workers.cpp ****     for (; i < 16; i++)
  75:src/workers.cpp ****     {
  76:src/workers.cpp ****         printString("B: i=");
 352              		.loc 1 76 9 is_stmt 1 discriminator 1
 353              		.loc 1 76 20 is_stmt 0 discriminator 1
 354 0264 17050000 		lla	a0,.LC5
 354      13050500 
 355 026c 97000000 		call	_Z11printStringPKc@plt
 355      E7800000 
 356              	.LVL48:
  77:src/workers.cpp ****         printInteger(i);
 357              		.loc 1 77 9 is_stmt 1 discriminator 1
 358              		.loc 1 77 21 is_stmt 0 discriminator 1
 359 0274 13850400 		mv	a0,s1
 360 0278 97000000 		call	_Z12printIntegerm@plt
 360      E7800000 
 361              	.LVL49:
  78:src/workers.cpp ****         printString("\n");
 362              		.loc 1 78 9 is_stmt 1 discriminator 1
 363              		.loc 1 78 20 is_stmt 0 discriminator 1
 364 0280 17050000 		lla	a0,.LC1
 364      13050500 
 365 0288 97000000 		call	_Z11printStringPKc@plt
 365      E7800000 
 366              	.LVL50:
  74:src/workers.cpp ****     {
 367              		.loc 1 74 5 is_stmt 1 discriminator 1
 368 0290 9B841400 		addiw	s1,s1,1
 369              	.LVL51:
 370 0294 93F4F40F 		andi	s1,s1,0xff
GAS LISTING /tmp/ccK4CYyE.s 			page 10


 371              	.LVL52:
 372              	.L19:
  74:src/workers.cpp ****     {
 373              		.loc 1 74 5 discriminator 2
  74:src/workers.cpp ****     {
 374              		.loc 1 74 14 discriminator 2
 375 0298 9307F000 		li	a5,15
 376 029c E3F497FC 		bleu	s1,a5,.L22
  79:src/workers.cpp ****     }
  80:src/workers.cpp **** //    kThread::running->setFinished(true);
  81:src/workers.cpp **** //    thread_dispatch();
  82:src/workers.cpp **** 
  83:src/workers.cpp **** }
 377              		.loc 1 83 1 is_stmt 0
 378 02a0 83308101 		ld	ra,24(sp)
 379              		.cfi_restore 1
 380 02a4 03340101 		ld	s0,16(sp)
 381              		.cfi_restore 8
 382              		.cfi_def_cfa 2, 32
 383 02a8 83348100 		ld	s1,8(sp)
 384              		.cfi_restore 9
 385              	.LVL53:
 386 02ac 03390100 		ld	s2,0(sp)
 387              		.cfi_restore 18
 388              	.LVL54:
 389 02b0 13010102 		addi	sp,sp,32
 390              		.cfi_def_cfa_offset 0
 391 02b4 67800000 		jr	ra
 392              		.cfi_endproc
 393              	.LFE7:
 395              		.section	.rodata.str1.8
 396 004a 00000000 		.align	3
 396      0000
 397              	.LC7:
 398 0050 430A00   		.string	"C\n"
 399              		.text
 400              		.align	2
 401              		.globl	_Z11workerBodyCPv
 403              	_Z11workerBodyCPv:
 404              	.LFB8:
  84:src/workers.cpp **** 
  85:src/workers.cpp **** void workerBodyC(void*)
  86:src/workers.cpp **** {
 405              		.loc 1 86 1 is_stmt 1
 406              		.cfi_startproc
 407 02b8 130101FE 		addi	sp,sp,-32
 408              		.cfi_def_cfa_offset 32
 409 02bc 233C1100 		sd	ra,24(sp)
 410 02c0 23388100 		sd	s0,16(sp)
 411 02c4 23349100 		sd	s1,8(sp)
 412              		.cfi_offset 1, -8
 413              		.cfi_offset 8, -16
 414              		.cfi_offset 9, -24
 415 02c8 13040102 		addi	s0,sp,32
 416              		.cfi_def_cfa 8, 0
  87:src/workers.cpp ****     uint8 i = 0;
 417              		.loc 1 87 5
GAS LISTING /tmp/ccK4CYyE.s 			page 11


 418              	.LVL55:
 419              		.loc 1 87 11 is_stmt 0
 420 02cc 93040000 		li	s1,0
 421              	.LVL56:
 422              	.L25:
  88:src/workers.cpp **** 
  89:src/workers.cpp ****     while(i<5)
 423              		.loc 1 89 5 is_stmt 1
 424              		.loc 1 89 12
 425 02d0 93074000 		li	a5,4
 426 02d4 63E09702 		bgtu	s1,a5,.L23
  90:src/workers.cpp ****     {
  91:src/workers.cpp ****         printString("C\n");
 427              		.loc 1 91 9
 428              		.loc 1 91 20 is_stmt 0
 429 02d8 17050000 		lla	a0,.LC7
 429      13050500 
 430 02e0 97000000 		call	_Z11printStringPKc@plt
 430      E7800000 
 431              	.LVL57:
  92:src/workers.cpp ****         //thread_dispatch();
  93:src/workers.cpp ****         i++;
 432              		.loc 1 93 9 is_stmt 1
 433              		.loc 1 93 10 is_stmt 0
 434 02e8 9B841400 		addiw	s1,s1,1
 435              	.LVL58:
 436 02ec 93F4F40F 		andi	s1,s1,0xff
 437              	.LVL59:
  89:src/workers.cpp ****     {
 438              		.loc 1 89 5
 439 02f0 6FF01FFE 		j	.L25
 440              	.L23:
  94:src/workers.cpp ****     }
  95:src/workers.cpp **** 
  96:src/workers.cpp **** }
 441              		.loc 1 96 1
 442 02f4 83308101 		ld	ra,24(sp)
 443              		.cfi_restore 1
 444 02f8 03340101 		ld	s0,16(sp)
 445              		.cfi_restore 8
 446              		.cfi_def_cfa 2, 32
 447 02fc 83348100 		ld	s1,8(sp)
 448              		.cfi_restore 9
 449              	.LVL60:
 450 0300 13010102 		addi	sp,sp,32
 451              		.cfi_def_cfa_offset 0
 452 0304 67800000 		jr	ra
 453              		.cfi_endproc
 454              	.LFE8:
 456              		.section	.rodata.str1.8
 457 0053 00000000 		.align	3
 457      00
 458              	.LC8:
 459 0058 440A00   		.string	"D\n"
 460              		.text
 461              		.align	2
 462              		.globl	_Z11workerBodyDPv
GAS LISTING /tmp/ccK4CYyE.s 			page 12


 464              	_Z11workerBodyDPv:
 465              	.LFB9:
  97:src/workers.cpp **** 
  98:src/workers.cpp **** void workerBodyD(void*)
  99:src/workers.cpp **** {
 466              		.loc 1 99 1 is_stmt 1
 467              		.cfi_startproc
 468 0308 130101FE 		addi	sp,sp,-32
 469              		.cfi_def_cfa_offset 32
 470 030c 233C1100 		sd	ra,24(sp)
 471 0310 23388100 		sd	s0,16(sp)
 472 0314 23349100 		sd	s1,8(sp)
 473              		.cfi_offset 1, -8
 474              		.cfi_offset 8, -16
 475              		.cfi_offset 9, -24
 476 0318 13040102 		addi	s0,sp,32
 477              		.cfi_def_cfa 8, 0
 100:src/workers.cpp ****     uint8 i = 0;
 478              		.loc 1 100 5
 479              	.LVL61:
 480              		.loc 1 100 11 is_stmt 0
 481 031c 93040000 		li	s1,0
 482 0320 6F004002 		j	.L29
 483              	.LVL62:
 484              	.L31:
 101:src/workers.cpp ****     while(i<3)
 102:src/workers.cpp ****     {
 103:src/workers.cpp ****         printString("D\n");
 485              		.loc 1 103 9 is_stmt 1
 486              		.loc 1 103 20 is_stmt 0
 487 0324 17050000 		lla	a0,.LC8
 487      13050500 
 488 032c 97000000 		call	_Z11printStringPKc@plt
 488      E7800000 
 489              	.LVL63:
 104:src/workers.cpp ****         thread_dispatch();
 490              		.loc 1 104 9 is_stmt 1
 491              		.loc 1 104 24 is_stmt 0
 492 0334 97000000 		call	_Z15thread_dispatchv@plt
 492      E7800000 
 493              	.LVL64:
 105:src/workers.cpp ****         i++;
 494              		.loc 1 105 9 is_stmt 1
 495              		.loc 1 105 10 is_stmt 0
 496 033c 9B841400 		addiw	s1,s1,1
 497              	.LVL65:
 498 0340 93F4F40F 		andi	s1,s1,0xff
 499              	.LVL66:
 500              	.L29:
 101:src/workers.cpp ****     while(i<3)
 501              		.loc 1 101 5 is_stmt 1
 101:src/workers.cpp ****     while(i<3)
 502              		.loc 1 101 12
 503 0344 93072000 		li	a5,2
 504 0348 E3FE97FC 		bleu	s1,a5,.L31
 106:src/workers.cpp ****    }
 107:src/workers.cpp **** 
GAS LISTING /tmp/ccK4CYyE.s 			page 13


 108:src/workers.cpp **** }
 505              		.loc 1 108 1 is_stmt 0
 506 034c 83308101 		ld	ra,24(sp)
 507              		.cfi_restore 1
 508 0350 03340101 		ld	s0,16(sp)
 509              		.cfi_restore 8
 510              		.cfi_def_cfa 2, 32
 511 0354 83348100 		ld	s1,8(sp)
 512              		.cfi_restore 9
 513              	.LVL67:
 514 0358 13010102 		addi	sp,sp,32
 515              		.cfi_def_cfa_offset 0
 516 035c 67800000 		jr	ra
 517              		.cfi_endproc
 518              	.LFE9:
 520              		.section	.rodata.str1.8
 521 005b 00000000 		.align	3
 521      00
 522              	.LC9:
 523 0060 0A69646C 		.string	"\nidle\n"
 523      650A00
 524              		.text
 525              		.align	2
 526              		.globl	_Z4idlePv
 528              	_Z4idlePv:
 529              	.LFB10:
 109:src/workers.cpp **** 
 110:src/workers.cpp **** void idle(void*)
 111:src/workers.cpp **** {
 530              		.loc 1 111 1 is_stmt 1
 531              		.cfi_startproc
 532 0360 130101FF 		addi	sp,sp,-16
 533              		.cfi_def_cfa_offset 16
 534 0364 23341100 		sd	ra,8(sp)
 535 0368 23308100 		sd	s0,0(sp)
 536              		.cfi_offset 1, -8
 537              		.cfi_offset 8, -16
 538 036c 13040101 		addi	s0,sp,16
 539              		.cfi_def_cfa 8, 0
 540              	.L33:
 112:src/workers.cpp **** 
 113:src/workers.cpp ****     while(1)
 541              		.loc 1 113 5 discriminator 1
 114:src/workers.cpp ****     {
 115:src/workers.cpp ****         printString("\nidle\n");
 542              		.loc 1 115 9 discriminator 1
 543              		.loc 1 115 20 is_stmt 0 discriminator 1
 544 0370 17050000 		lla	a0,.LC9
 544      13050500 
 545 0378 97000000 		call	_Z11printStringPKc@plt
 545      E7800000 
 546              	.LVL68:
 116:src/workers.cpp ****         kThread::yield();
 547              		.loc 1 116 9 is_stmt 1 discriminator 1
 548              		.loc 1 116 23 is_stmt 0 discriminator 1
 549 0380 97000000 		call	_ZN7kThread5yieldEv@plt
 549      E7800000 
GAS LISTING /tmp/ccK4CYyE.s 			page 14


 550              	.LVL69:
 113:src/workers.cpp ****     {
 551              		.loc 1 113 5 is_stmt 1 discriminator 1
 552 0388 6FF09FFE 		j	.L33
 553              		.cfi_endproc
 554              	.LFE10:
 556              	.Letext0:
 557              		.file 2 "src/../lib/hw.h"
 558              		.file 3 "src/../h/kThread.hpp"
 559              		.file 4 "src/../h/print.hpp"
 560              		.file 5 "src/../h/syscall_c.hpp"
GAS LISTING /tmp/ccK4CYyE.s 			page 15

