GAS LISTING /tmp/ccK4CYyE.s 			page 1


   1              		.file	"workers.cpp"
   2              		.option pic
   3              		.option norelax
   4              		.text
   5              	.Ltext0:
   6              		.align	2
   8              	_ZL9fibonaccim:
   9              	.LFB5:
  10              		.file 1 "src/workers.cpp"
   1:src/workers.cpp **** //
   2:src/workers.cpp **** // Created by marko on 20.4.22..
   3:src/workers.cpp **** //
   4:src/workers.cpp **** 
   5:src/workers.cpp **** #include"../lib/hw.h"
   6:src/workers.cpp **** #include "../h/print.hpp"
   7:src/workers.cpp **** #include "../h/kThread.hpp"
   8:src/workers.cpp **** #include "../h/syscall_c.hpp"
   9:src/workers.cpp **** 
  10:src/workers.cpp **** static uint64 fibonacci(uint64 n)
  11:src/workers.cpp **** {
  11              		.loc 1 11 1
  12              		.cfi_startproc
  13              	.LVL0:
  14 0000 130101FE 		addi	sp,sp,-32
  15              		.cfi_def_cfa_offset 32
  16 0004 233C1100 		sd	ra,24(sp)
  17 0008 23388100 		sd	s0,16(sp)
  18 000c 23349100 		sd	s1,8(sp)
  19 0010 23302101 		sd	s2,0(sp)
  20              		.cfi_offset 1, -8
  21              		.cfi_offset 8, -16
  22              		.cfi_offset 9, -24
  23              		.cfi_offset 18, -32
  24 0014 13040102 		addi	s0,sp,32
  25              		.cfi_def_cfa 8, 0
  26 0018 93040500 		mv	s1,a0
  12:src/workers.cpp ****     if (n == 0 || n == 1) { return n; }
  27              		.loc 1 12 5
  28 001c 93071000 		li	a5,1
  29 0020 63F6A702 		bleu	a0,a5,.L1
  13:src/workers.cpp ****     if (n % 4 == 0) thread_dispatch();
  30              		.loc 1 13 5
  31              		.loc 1 13 11 is_stmt 0
  32 0024 93773500 		andi	a5,a0,3
  33              		.loc 1 13 5
  34 0028 638E0702 		beqz	a5,.L6
  35              	.LVL1:
  36              	.L3:
  14:src/workers.cpp ****     return fibonacci(n - 1) + fibonacci(n - 2);
  37              		.loc 1 14 5 is_stmt 1
  38              		.loc 1 14 21 is_stmt 0
  39 002c 1385F4FF 		addi	a0,s1,-1
  40 0030 97000000 		call	_ZL9fibonaccim
  40      E7800000 
  41              	.LVL2:
  42 0038 13090500 		mv	s2,a0
  43              		.loc 1 14 40
GAS LISTING /tmp/ccK4CYyE.s 			page 2


  44 003c 1385E4FF 		addi	a0,s1,-2
  45 0040 97000000 		call	_ZL9fibonaccim
  45      E7800000 
  46              	.LVL3:
  47              		.loc 1 14 46
  48 0048 3305A900 		add	a0,s2,a0
  49              	.L1:
  15:src/workers.cpp **** }
  50              		.loc 1 15 1
  51 004c 83308101 		ld	ra,24(sp)
  52              		.cfi_remember_state
  53              		.cfi_restore 1
  54 0050 03340101 		ld	s0,16(sp)
  55              		.cfi_restore 8
  56              		.cfi_def_cfa 2, 32
  57 0054 83348100 		ld	s1,8(sp)
  58              		.cfi_restore 9
  59              	.LVL4:
  60 0058 03390100 		ld	s2,0(sp)
  61              		.cfi_restore 18
  62 005c 13010102 		addi	sp,sp,32
  63              		.cfi_def_cfa_offset 0
  64 0060 67800000 		jr	ra
  65              	.LVL5:
  66              	.L6:
  67              		.cfi_restore_state
  13:src/workers.cpp ****     if (n % 4 == 0) thread_dispatch();
  68              		.loc 1 13 21 is_stmt 1 discriminator 1
  13:src/workers.cpp ****     if (n % 4 == 0) thread_dispatch();
  69              		.loc 1 13 36 is_stmt 0 discriminator 1
  70 0064 97000000 		call	_Z15thread_dispatchv@plt
  70      E7800000 
  71              	.LVL6:
  72 006c 6FF01FFC 		j	.L3
  73              		.cfi_endproc
  74              	.LFE5:
  76              		.section	.rodata.str1.8,"aMS",@progbits,1
  77              		.align	3
  78              	.LC0:
  79 0000 413A2069 		.string	"A: i="
  79      3D00
  80 0006 0000     		.align	3
  81              	.LC1:
  82 0008 0A00     		.string	"\n"
  83 000a 00000000 		.align	3
  83      0000
  84              	.LC2:
  85 0010 413A2079 		.string	"A: yield\n"
  85      69656C64 
  85      0A00
  86 001a 00000000 		.align	3
  86      0000
  87              	.LC3:
  88 0020 413A2074 		.string	"A: t1="
  88      313D00
  89 0027 00       		.align	3
  90              	.LC4:
GAS LISTING /tmp/ccK4CYyE.s 			page 3


  91 0028 413A2066 		.string	"A: fibonaci="
  91      69626F6E 
  91      6163693D 
  91      00
  92              		.text
  93              		.align	2
  94              		.globl	_Z11workerBodyAPv
  96              	_Z11workerBodyAPv:
  97              	.LFB6:
  16:src/workers.cpp **** 
  17:src/workers.cpp **** void workerBodyA(void *)
  18:src/workers.cpp **** {
  98              		.loc 1 18 1 is_stmt 1
  99              		.cfi_startproc
 100 0070 130101FE 		addi	sp,sp,-32
 101              		.cfi_def_cfa_offset 32
 102 0074 233C1100 		sd	ra,24(sp)
 103 0078 23388100 		sd	s0,16(sp)
 104 007c 23349100 		sd	s1,8(sp)
 105 0080 23302101 		sd	s2,0(sp)
 106              		.cfi_offset 1, -8
 107              		.cfi_offset 8, -16
 108              		.cfi_offset 9, -24
 109              		.cfi_offset 18, -32
 110 0084 13040102 		addi	s0,sp,32
 111              		.cfi_def_cfa 8, 0
  19:src/workers.cpp ****     uint8 i = 0;
 112              		.loc 1 19 5
 113              	.LVL7:
 114              		.loc 1 19 11 is_stmt 0
 115 0088 93040000 		li	s1,0
 116 008c 6F008003 		j	.L9
 117              	.LVL8:
 118              	.L13:
  20:src/workers.cpp ****     for (; i < 3; i++)
  21:src/workers.cpp ****     {
  22:src/workers.cpp ****         printString("A: i=");
 119              		.loc 1 22 9 is_stmt 1 discriminator 1
 120              		.loc 1 22 20 is_stmt 0 discriminator 1
 121 0090 17050000 		lla	a0,.LC0
 121      13050500 
 122 0098 97000000 		call	_Z11printStringPKc@plt
 122      E7800000 
 123              	.LVL9:
  23:src/workers.cpp ****         printInteger(i);
 124              		.loc 1 23 9 is_stmt 1 discriminator 1
 125              		.loc 1 23 21 is_stmt 0 discriminator 1
 126 00a0 13850400 		mv	a0,s1
 127 00a4 97000000 		call	_Z12printIntegerm@plt
 127      E7800000 
 128              	.LVL10:
  24:src/workers.cpp ****         printString("\n");
 129              		.loc 1 24 9 is_stmt 1 discriminator 1
 130              		.loc 1 24 20 is_stmt 0 discriminator 1
 131 00ac 17050000 		lla	a0,.LC1
 131      13050500 
 132 00b4 97000000 		call	_Z11printStringPKc@plt
GAS LISTING /tmp/ccK4CYyE.s 			page 4


 132      E7800000 
 133              	.LVL11:
  20:src/workers.cpp ****     for (; i < 3; i++)
 134              		.loc 1 20 5 is_stmt 1 discriminator 1
 135 00bc 9B841400 		addiw	s1,s1,1
 136              	.LVL12:
 137 00c0 93F4F40F 		andi	s1,s1,0xff
 138              	.LVL13:
 139              	.L9:
  20:src/workers.cpp ****     for (; i < 3; i++)
 140              		.loc 1 20 5 discriminator 2
  20:src/workers.cpp ****     for (; i < 3; i++)
 141              		.loc 1 20 14 discriminator 2
 142 00c4 93072000 		li	a5,2
 143 00c8 E3F497FC 		bleu	s1,a5,.L13
  25:src/workers.cpp ****     }
  26:src/workers.cpp **** 
  27:src/workers.cpp ****     printString("A: yield\n");
 144              		.loc 1 27 5
 145              		.loc 1 27 16 is_stmt 0
 146 00cc 17050000 		lla	a0,.LC2
 146      13050500 
 147 00d4 97000000 		call	_Z11printStringPKc@plt
 147      E7800000 
 148              	.LVL14:
  28:src/workers.cpp ****     __asm__ ("li t1, 7");
 149              		.loc 1 28 5 is_stmt 1
 150              		.loc 1 28 25 is_stmt 0
 151              	#APP
 152              	# 28 "src/workers.cpp" 1
  29              	    thread_dispatch();
 153              		li t1, 7
 154              	# 0 "" 2
 155              		.loc 1 29 5 is_stmt 1
 156              		.loc 1 29 20 is_stmt 0
 157              	#NO_APP
 158 00e0 97000000 		call	_Z15thread_dispatchv@plt
 158      E7800000 
 159              	.LVL15:
  30:src/workers.cpp **** 
  31:src/workers.cpp ****     uint64 t1 = 0;
 160              		.loc 1 31 5 is_stmt 1
  32:src/workers.cpp ****     __asm__ ("mv %[t1], t1" : [t1] "=r"(t1));
 161              		.loc 1 32 5
 162              		.loc 1 32 45 is_stmt 0
 163              	#APP
 164              	# 32 "src/workers.cpp" 1
  33              	
 165              		mv s2, t1
 166              	# 0 "" 2
 167              	.LVL16:
  34:src/workers.cpp ****     printString("A: t1=");
 168              		.loc 1 34 5 is_stmt 1
 169              		.loc 1 34 16 is_stmt 0
 170              	#NO_APP
 171 00ec 17050000 		lla	a0,.LC3
 171      13050500 
GAS LISTING /tmp/ccK4CYyE.s 			page 5


 172 00f4 97000000 		call	_Z11printStringPKc@plt
 172      E7800000 
 173              	.LVL17:
  35:src/workers.cpp ****     printInteger(t1);
 174              		.loc 1 35 5 is_stmt 1
 175              		.loc 1 35 17 is_stmt 0
 176 00fc 13050900 		mv	a0,s2
 177 0100 97000000 		call	_Z12printIntegerm@plt
 177      E7800000 
 178              	.LVL18:
  36:src/workers.cpp ****     printString("\n");
 179              		.loc 1 36 5 is_stmt 1
 180              		.loc 1 36 16 is_stmt 0
 181 0108 17050000 		lla	a0,.LC1
 181      13050500 
 182 0110 97000000 		call	_Z11printStringPKc@plt
 182      E7800000 
 183              	.LVL19:
  37:src/workers.cpp **** 
  38:src/workers.cpp ****     uint64 result = fibonacci(20);
 184              		.loc 1 38 5 is_stmt 1
 185              		.loc 1 38 30 is_stmt 0
 186 0118 13054001 		li	a0,20
 187 011c 97000000 		call	_ZL9fibonaccim
 187      E7800000 
 188              	.LVL20:
 189 0124 13090500 		mv	s2,a0
 190              	.LVL21:
  39:src/workers.cpp ****     printString("A: fibonaci=");
 191              		.loc 1 39 5 is_stmt 1
 192              		.loc 1 39 16 is_stmt 0
 193 0128 17050000 		lla	a0,.LC4
 193      13050500 
 194              	.LVL22:
 195 0130 97000000 		call	_Z11printStringPKc@plt
 195      E7800000 
 196              	.LVL23:
  40:src/workers.cpp ****     printInteger(result);
 197              		.loc 1 40 5 is_stmt 1
 198              		.loc 1 40 17 is_stmt 0
 199 0138 13050900 		mv	a0,s2
 200 013c 97000000 		call	_Z12printIntegerm@plt
 200      E7800000 
 201              	.LVL24:
  41:src/workers.cpp ****     printString("\n");
 202              		.loc 1 41 5 is_stmt 1
 203              		.loc 1 41 16 is_stmt 0
 204 0144 17050000 		lla	a0,.LC1
 204      13050500 
 205 014c 97000000 		call	_Z11printStringPKc@plt
 205      E7800000 
 206              	.LVL25:
 207 0154 6F008003 		j	.L11
 208              	.L14:
  42:src/workers.cpp **** 
  43:src/workers.cpp ****     for (; i < 6; i++)
  44:src/workers.cpp ****     {
GAS LISTING /tmp/ccK4CYyE.s 			page 6


  45:src/workers.cpp ****         printString("A: i=");
 209              		.loc 1 45 9 is_stmt 1 discriminator 1
 210              		.loc 1 45 20 is_stmt 0 discriminator 1
 211 0158 17050000 		lla	a0,.LC0
 211      13050500 
 212 0160 97000000 		call	_Z11printStringPKc@plt
 212      E7800000 
 213              	.LVL26:
  46:src/workers.cpp ****         printInteger(i);
 214              		.loc 1 46 9 is_stmt 1 discriminator 1
 215              		.loc 1 46 21 is_stmt 0 discriminator 1
 216 0168 13850400 		mv	a0,s1
 217 016c 97000000 		call	_Z12printIntegerm@plt
 217      E7800000 
 218              	.LVL27:
  47:src/workers.cpp ****         printString("\n");
 219              		.loc 1 47 9 is_stmt 1 discriminator 1
 220              		.loc 1 47 20 is_stmt 0 discriminator 1
 221 0174 17050000 		lla	a0,.LC1
 221      13050500 
 222 017c 97000000 		call	_Z11printStringPKc@plt
 222      E7800000 
 223              	.LVL28:
  43:src/workers.cpp ****     {
 224              		.loc 1 43 5 is_stmt 1 discriminator 1
 225 0184 9B841400 		addiw	s1,s1,1
 226              	.LVL29:
 227 0188 93F4F40F 		andi	s1,s1,0xff
 228              	.LVL30:
 229              	.L11:
  43:src/workers.cpp ****     {
 230              		.loc 1 43 5 discriminator 2
  43:src/workers.cpp ****     {
 231              		.loc 1 43 14 discriminator 2
 232 018c 93075000 		li	a5,5
 233 0190 E3F497FC 		bleu	s1,a5,.L14
  48:src/workers.cpp ****     }
  49:src/workers.cpp **** 
  50:src/workers.cpp **** //    kThread::running->setFinished(true);
  51:src/workers.cpp **** //    thread_dispatch();
  52:src/workers.cpp **** 
  53:src/workers.cpp **** }
 234              		.loc 1 53 1 is_stmt 0
 235 0194 83308101 		ld	ra,24(sp)
 236              		.cfi_restore 1
 237 0198 03340101 		ld	s0,16(sp)
 238              		.cfi_restore 8
 239              		.cfi_def_cfa 2, 32
 240 019c 83348100 		ld	s1,8(sp)
 241              		.cfi_restore 9
 242              	.LVL31:
 243 01a0 03390100 		ld	s2,0(sp)
 244              		.cfi_restore 18
 245              	.LVL32:
 246 01a4 13010102 		addi	sp,sp,32
 247              		.cfi_def_cfa_offset 0
 248 01a8 67800000 		jr	ra
GAS LISTING /tmp/ccK4CYyE.s 			page 7


 249              		.cfi_endproc
 250              	.LFE6:
 252              		.section	.rodata.str1.8
 253 0035 000000   		.align	3
 254              	.LC5:
 255 0038 423A2069 		.string	"B: i="
 255      3D00
 256 003e 0000     		.align	3
 257              	.LC6:
 258 0040 423A2079 		.string	"B: yield\n"
 258      69656C64 
 258      0A00
 259              		.text
 260              		.align	2
 261              		.globl	_Z11workerBodyBPv
 263              	_Z11workerBodyBPv:
 264              	.LFB7:
  54:src/workers.cpp **** 
  55:src/workers.cpp **** void workerBodyB(void*)
  56:src/workers.cpp **** {
 265              		.loc 1 56 1 is_stmt 1
 266              		.cfi_startproc
 267 01ac 130101FE 		addi	sp,sp,-32
 268              		.cfi_def_cfa_offset 32
 269 01b0 233C1100 		sd	ra,24(sp)
 270 01b4 23388100 		sd	s0,16(sp)
 271 01b8 23349100 		sd	s1,8(sp)
 272 01bc 23302101 		sd	s2,0(sp)
 273              		.cfi_offset 1, -8
 274              		.cfi_offset 8, -16
 275              		.cfi_offset 9, -24
 276              		.cfi_offset 18, -32
 277 01c0 13040102 		addi	s0,sp,32
 278              		.cfi_def_cfa 8, 0
  57:src/workers.cpp ****     uint8 i = 10;
 279              		.loc 1 57 5
 280              	.LVL33:
 281              		.loc 1 57 11 is_stmt 0
 282 01c4 9304A000 		li	s1,10
 283 01c8 6F008003 		j	.L17
 284              	.LVL34:
 285              	.L21:
  58:src/workers.cpp ****     for (; i < 13; i++)
  59:src/workers.cpp ****     {
  60:src/workers.cpp ****         printString("B: i=");
 286              		.loc 1 60 9 is_stmt 1 discriminator 1
 287              		.loc 1 60 20 is_stmt 0 discriminator 1
 288 01cc 17050000 		lla	a0,.LC5
 288      13050500 
 289 01d4 97000000 		call	_Z11printStringPKc@plt
 289      E7800000 
 290              	.LVL35:
  61:src/workers.cpp ****         printInteger(i);
 291              		.loc 1 61 9 is_stmt 1 discriminator 1
 292              		.loc 1 61 21 is_stmt 0 discriminator 1
 293 01dc 13850400 		mv	a0,s1
 294 01e0 97000000 		call	_Z12printIntegerm@plt
GAS LISTING /tmp/ccK4CYyE.s 			page 8


 294      E7800000 
 295              	.LVL36:
  62:src/workers.cpp ****         printString("\n");
 296              		.loc 1 62 9 is_stmt 1 discriminator 1
 297              		.loc 1 62 20 is_stmt 0 discriminator 1
 298 01e8 17050000 		lla	a0,.LC1
 298      13050500 
 299 01f0 97000000 		call	_Z11printStringPKc@plt
 299      E7800000 
 300              	.LVL37:
  58:src/workers.cpp ****     for (; i < 13; i++)
 301              		.loc 1 58 5 is_stmt 1 discriminator 1
 302 01f8 9B841400 		addiw	s1,s1,1
 303              	.LVL38:
 304 01fc 93F4F40F 		andi	s1,s1,0xff
 305              	.LVL39:
 306              	.L17:
  58:src/workers.cpp ****     for (; i < 13; i++)
 307              		.loc 1 58 5 discriminator 2
  58:src/workers.cpp ****     for (; i < 13; i++)
 308              		.loc 1 58 14 discriminator 2
 309 0200 9307C000 		li	a5,12
 310 0204 E3F497FC 		bleu	s1,a5,.L21
  63:src/workers.cpp ****     }
  64:src/workers.cpp **** 
  65:src/workers.cpp ****     printString("B: yield\n");
 311              		.loc 1 65 5
 312              		.loc 1 65 16 is_stmt 0
 313 0208 17050000 		lla	a0,.LC6
 313      13050500 
 314 0210 97000000 		call	_Z11printStringPKc@plt
 314      E7800000 
 315              	.LVL40:
  66:src/workers.cpp ****     __asm__ ("li t1, 5");
 316              		.loc 1 66 5 is_stmt 1
 317              		.loc 1 66 25 is_stmt 0
 318              	#APP
 319              	# 66 "src/workers.cpp" 1
  67              	    thread_dispatch();
 320              		li t1, 5
 321              	# 0 "" 2
 322              		.loc 1 67 5 is_stmt 1
 323              		.loc 1 67 20 is_stmt 0
 324              	#NO_APP
 325 021c 97000000 		call	_Z15thread_dispatchv@plt
 325      E7800000 
 326              	.LVL41:
  68:src/workers.cpp **** 
  69:src/workers.cpp ****     uint64 result = fibonacci(23);
 327              		.loc 1 69 5 is_stmt 1
 328              		.loc 1 69 30 is_stmt 0
 329 0224 13057001 		li	a0,23
 330 0228 97000000 		call	_ZL9fibonaccim
 330      E7800000 
 331              	.LVL42:
 332 0230 13090500 		mv	s2,a0
 333              	.LVL43:
GAS LISTING /tmp/ccK4CYyE.s 			page 9


  70:src/workers.cpp ****     printString("A: fibonaci=");
 334              		.loc 1 70 5 is_stmt 1
 335              		.loc 1 70 16 is_stmt 0
 336 0234 17050000 		lla	a0,.LC4
 336      13050500 
 337              	.LVL44:
 338 023c 97000000 		call	_Z11printStringPKc@plt
 338      E7800000 
 339              	.LVL45:
  71:src/workers.cpp ****     printInteger(result);
 340              		.loc 1 71 5 is_stmt 1
 341              		.loc 1 71 17 is_stmt 0
 342 0244 13050900 		mv	a0,s2
 343 0248 97000000 		call	_Z12printIntegerm@plt
 343      E7800000 
 344              	.LVL46:
  72:src/workers.cpp ****     printString("\n");
 345              		.loc 1 72 5 is_stmt 1
 346              		.loc 1 72 16 is_stmt 0
 347 0250 17050000 		lla	a0,.LC1
 347      13050500 
 348 0258 97000000 		call	_Z11printStringPKc@plt
 348      E7800000 
 349              	.LVL47:
 350 0260 6F008003 		j	.L19
 351              	.L22:
  73:src/workers.cpp **** 
  74:src/workers.cpp ****     for (; i < 16; i++)
  75:src/workers.cpp ****     {
  76:src/workers.cpp ****         printString("B: i=");
 352              		.loc 1 76 9 is_stmt 1 discriminator 1
 353              		.loc 1 76 20 is_stmt 0 discriminator 1
 354 0264 17050000 		lla	a0,.LC5
 354      13050500 
 355 026c 97000000 		call	_Z11printStringPKc@plt
 355      E7800000 
 356              	.LVL48:
  77:src/workers.cpp ****         printInteger(i);
 357              		.loc 1 77 9 is_stmt 1 discriminator 1
 358              		.loc 1 77 21 is_stmt 0 discriminator 1
 359 0274 13850400 		mv	a0,s1
 360 0278 97000000 		call	_Z12printIntegerm@plt
 360      E7800000 
 361              	.LVL49:
  78:src/workers.cpp ****         printString("\n");
 362              		.loc 1 78 9 is_stmt 1 discriminator 1
 363              		.loc 1 78 20 is_stmt 0 discriminator 1
 364 0280 17050000 		lla	a0,.LC1
 364      13050500 
 365 0288 97000000 		call	_Z11printStringPKc@plt
 365      E7800000 
 366              	.LVL50:
  74:src/workers.cpp ****     {
 367              		.loc 1 74 5 is_stmt 1 discriminator 1
 368 0290 9B841400 		addiw	s1,s1,1
 369              	.LVL51:
 370 0294 93F4F40F 		andi	s1,s1,0xff
GAS LISTING /tmp/ccK4CYyE.s 			page 10


 371              	.LVL52:
 372              	.L19:
  74:src/workers.cpp ****     {
 373              		.loc 1 74 5 discriminator 2
  74:src/workers.cpp ****     {
 374              		.loc 1 74 14 discriminator 2
 375 0298 9307F000 		li	a5,15
 376 029c E3F497FC 		bleu	s1,a5,.L22
  79:src/workers.cpp ****     }
  80:src/workers.cpp **** //    kThread::running->setFinished(true);
  81:src/workers.cpp **** //    thread_dispatch();
  82:src/workers.cpp **** 
  83:src/workers.cpp **** }
 377              		.loc 1 83 1 is_stmt 0
 378 02a0 83308101 		ld	ra,24(sp)
 379              		.cfi_restore 1
 380 02a4 03340101 		ld	s0,16(sp)
 381              		.cfi_restore 8
 382              		.cfi_def_cfa 2, 32
 383 02a8 83348100 		ld	s1,8(sp)
 384              		.cfi_restore 9
 385              	.LVL53:
 386 02ac 03390100 		ld	s2,0(sp)
 387              		.cfi_restore 18
 388              	.LVL54:
 389 02b0 13010102 		addi	sp,sp,32
 390              		.cfi_def_cfa_offset 0
 391 02b4 67800000 		jr	ra
 392              		.cfi_endproc
 393              	.LFE7:
 395              		.section	.rodata.str1.8
 396 004a 00000000 		.align	3
 396      0000
 397              	.LC7:
 398 0050 430A00   		.string	"C\n"
 399              		.text
 400              		.align	2
 401              		.globl	_Z11workerBodyCPv
 403              	_Z11workerBodyCPv:
 404              	.LFB8:
  84:src/workers.cpp **** 
  85:src/workers.cpp **** void workerBodyC(void*)
  86:src/workers.cpp **** {
 405              		.loc 1 86 1 is_stmt 1
 406              		.cfi_startproc
 407 02b8 130101FE 		addi	sp,sp,-32
 408              		.cfi_def_cfa_offset 32
 409 02bc 233C1100 		sd	ra,24(sp)
 410 02c0 23388100 		sd	s0,16(sp)
 411 02c4 23349100 		sd	s1,8(sp)
 412              		.cfi_offset 1, -8
 413              		.cfi_offset 8, -16
 414              		.cfi_offset 9, -24
 415 02c8 13040102 		addi	s0,sp,32
 416              		.cfi_def_cfa 8, 0
  87:src/workers.cpp ****     uint8 i = 0;
 417              		.loc 1 87 5
GAS LISTING /tmp/ccK4CYyE.s 			page 11


 418              	.LVL55:
 419              		.loc 1 87 11 is_stmt 0
 420 02cc 93040000 		li	s1,0
 421              	.LVL56:
 422              	.L25:
  88:src/workers.cpp **** 
  89:src/workers.cpp ****     while(i<5)
 423              		.loc 1 89 5 is_stmt 1
 424              		.loc 1 89 12
 425 02d0 93074000 		li	a5,4
 426 02d4 63E09702 		bgtu	s1,a5,.L23
  90:src/workers.cpp ****     {
  91:src/workers.cpp ****         printString("C\n");
 427              		.loc 1 91 9
 428              		.loc 1 91 20 is_stmt 0
 429 02d8 17050000 		lla	a0,.LC7
 429      13050500 
 430 02e0 97000000 		call	_Z11printStringPKc@plt
 430      E7800000 
 431              	.LVL57:
  92:src/workers.cpp ****         //thread_dispatch();
  93:src/workers.cpp ****         i++;
 432              		.loc 1 93 9 is_stmt 1
 433              		.loc 1 93 10 is_stmt 0
 434 02e8 9B841400 		addiw	s1,s1,1
 435              	.LVL58:
 436 02ec 93F4F40F 		andi	s1,s1,0xff
 437              	.LVL59:
  89:src/workers.cpp ****     {
 438              		.loc 1 89 5
 439 02f0 6FF01FFE 		j	.L25
 440              	.L23:
  94:src/workers.cpp ****     }
  95:src/workers.cpp **** 
  96:src/workers.cpp **** }
 441              		.loc 1 96 1
 442 02f4 83308101 		ld	ra,24(sp)
 443              		.cfi_restore 1
 444 02f8 03340101 		ld	s0,16(sp)
 445              		.cfi_restore 8
 446              		.cfi_def_cfa 2, 32
 447 02fc 83348100 		ld	s1,8(sp)
 448              		.cfi_restore 9
 449              	.LVL60:
 450 0300 13010102 		addi	sp,sp,32
 451              		.cfi_def_cfa_offset 0
 452 0304 67800000 		jr	ra
 453              		.cfi_endproc
 454              	.LFE8:
 456              		.section	.rodata.str1.8
 457 0053 00000000 		.align	3
 457      00
 458              	.LC8:
 459 0058 440A00   		.string	"D\n"
 460              		.text
 461              		.align	2
 462              		.globl	_Z11workerBodyDPv
GAS LISTING /tmp/ccK4CYyE.s 			page 12


 464              	_Z11workerBodyDPv:
 465              	.LFB9:
  97:src/workers.cpp **** 
  98:src/workers.cpp **** void workerBodyD(void*)
  99:src/workers.cpp **** {
 466              		.loc 1 99 1 is_stmt 1
 467              		.cfi_startproc
 468 0308 130101FE 		addi	sp,sp,-32
 469              		.cfi_def_cfa_offset 32
 470 030c 233C1100 		sd	ra,24(sp)
 471 0310 23388100 		sd	s0,16(sp)
 472 0314 23349100 		sd	s1,8(sp)
 473              		.cfi_offset 1, -8
 474              		.cfi_offset 8, -16
 475              		.cfi_offset 9, -24
 476 0318 13040102 		addi	s0,sp,32
 477              		.cfi_def_cfa 8, 0
 100:src/workers.cpp ****     uint8 i = 0;
 478              		.loc 1 100 5
 479              	.LVL61:
 480              		.loc 1 100 11 is_stmt 0
 481 031c 93040000 		li	s1,0
 482 0320 6F004002 		j	.L29
 483              	.LVL62:
 484              	.L31:
 101:src/workers.cpp ****     while(i<3)
 102:src/workers.cpp ****     {
 103:src/workers.cpp ****         printString("D\n");
 485              		.loc 1 103 9 is_stmt 1
 486              		.loc 1 103 20 is_stmt 0
 487 0324 17050000 		lla	a0,.LC8
 487      13050500 
 488 032c 97000000 		call	_Z11printStringPKc@plt
 488      E7800000 
 489              	.LVL63:
 104:src/workers.cpp ****         thread_dispatch();
 490              		.loc 1 104 9 is_stmt 1
 491              		.loc 1 104 24 is_stmt 0
 492 0334 97000000 		call	_Z15thread_dispatchv@plt
 492      E7800000 
 493              	.LVL64:
 105:src/workers.cpp ****         i++;
 494              		.loc 1 105 9 is_stmt 1
 495              		.loc 1 105 10 is_stmt 0
 496 033c 9B841400 		addiw	s1,s1,1
 497              	.LVL65:
 498 0340 93F4F40F 		andi	s1,s1,0xff
 499              	.LVL66:
 500              	.L29:
 101:src/workers.cpp ****     while(i<3)
 501              		.loc 1 101 5 is_stmt 1
 101:src/workers.cpp ****     while(i<3)
 502              		.loc 1 101 12
 503 0344 93072000 		li	a5,2
 504 0348 E3FE97FC 		bleu	s1,a5,.L31
 106:src/workers.cpp ****    }
 107:src/workers.cpp **** 
GAS LISTING /tmp/ccK4CYyE.s 			page 13


 108:src/workers.cpp **** }
 505              		.loc 1 108 1 is_stmt 0
 506 034c 83308101 		ld	ra,24(sp)
 507              		.cfi_restore 1
 508 0350 03340101 		ld	s0,16(sp)
 509              		.cfi_restore 8
 510              		.cfi_def_cfa 2, 32
 511 0354 83348100 		ld	s1,8(sp)
 512              		.cfi_restore 9
 513              	.LVL67:
 514 0358 13010102 		addi	sp,sp,32
 515              		.cfi_def_cfa_offset 0
 516 035c 67800000 		jr	ra
 517              		.cfi_endproc
 518              	.LFE9:
 520              		.section	.rodata.str1.8
 521 005b 00000000 		.align	3
 521      00
 522              	.LC9:
 523 0060 0A69646C 		.string	"\nidle\n"
 523      650A00
 524              		.text
 525              		.align	2
 526              		.globl	_Z4idlePv
 528              	_Z4idlePv:
 529              	.LFB10:
 109:src/workers.cpp **** 
 110:src/workers.cpp **** void idle(void*)
 111:src/workers.cpp **** {
 530              		.loc 1 111 1 is_stmt 1
 531              		.cfi_startproc
 532 0360 130101FF 		addi	sp,sp,-16
 533              		.cfi_def_cfa_offset 16
 534 0364 23341100 		sd	ra,8(sp)
 535 0368 23308100 		sd	s0,0(sp)
 536              		.cfi_offset 1, -8
 537              		.cfi_offset 8, -16
 538 036c 13040101 		addi	s0,sp,16
 539              		.cfi_def_cfa 8, 0
 540              	.L33:
 112:src/workers.cpp **** 
 113:src/workers.cpp ****     while(1)
 541              		.loc 1 113 5 discriminator 1
 114:src/workers.cpp ****     {
 115:src/workers.cpp ****         printString("\nidle\n");
 542              		.loc 1 115 9 discriminator 1
 543              		.loc 1 115 20 is_stmt 0 discriminator 1
 544 0370 17050000 		lla	a0,.LC9
 544      13050500 
 545 0378 97000000 		call	_Z11printStringPKc@plt
 545      E7800000 
 546              	.LVL68:
 116:src/workers.cpp ****         kThread::yield();
 547              		.loc 1 116 9 is_stmt 1 discriminator 1
 548              		.loc 1 116 23 is_stmt 0 discriminator 1
 549 0380 97000000 		call	_ZN7kThread5yieldEv@plt
 549      E7800000 
GAS LISTING /tmp/ccK4CYyE.s 			page 14


 550              	.LVL69:
 113:src/workers.cpp ****     {
 551              		.loc 1 113 5 is_stmt 1 discriminator 1
 552 0388 6FF09FFE 		j	.L33
 553              		.cfi_endproc
 554              	.LFE10:
 556              	.Letext0:
 557              		.file 2 "src/../lib/hw.h"
 558              		.file 3 "src/../h/kThread.hpp"
 559              		.file 4 "src/../h/print.hpp"
 560              		.file 5 "src/../h/syscall_c.hpp"
GAS LISTING /tmp/ccK4CYyE.s 			page 15


DEFINED SYMBOLS
                            *ABS*:0000000000000000 workers.cpp
     /tmp/ccK4CYyE.s:8      .text:0000000000000000 _ZL9fibonaccim
     /tmp/ccK4CYyE.s:12     .text:0000000000000000 .L0 
     /tmp/ccK4CYyE.s:14     .text:0000000000000000 .L0 
     /tmp/ccK4CYyE.s:15     .text:0000000000000004 .L0 
     /tmp/ccK4CYyE.s:20     .text:0000000000000014 .L0 
     /tmp/ccK4CYyE.s:21     .text:0000000000000014 .L0 
     /tmp/ccK4CYyE.s:22     .text:0000000000000014 .L0 
     /tmp/ccK4CYyE.s:23     .text:0000000000000014 .L0 
     /tmp/ccK4CYyE.s:25     .text:0000000000000018 .L0 
     /tmp/ccK4CYyE.s:28     .text:000000000000001c .L0 
     /tmp/ccK4CYyE.s:31     .text:0000000000000024 .L0 
     /tmp/ccK4CYyE.s:32     .text:0000000000000024 .L0 
     /tmp/ccK4CYyE.s:34     .text:0000000000000028 .L0 
     /tmp/ccK4CYyE.s:38     .text:000000000000002c .L0 
     /tmp/ccK4CYyE.s:39     .text:000000000000002c .L0 
     /tmp/ccK4CYyE.s:44     .text:000000000000003c .L0 
     /tmp/ccK4CYyE.s:48     .text:0000000000000048 .L0 
     /tmp/ccK4CYyE.s:51     .text:000000000000004c .L0 
     /tmp/ccK4CYyE.s:52     .text:0000000000000050 .L0 
     /tmp/ccK4CYyE.s:53     .text:0000000000000050 .L0 
     /tmp/ccK4CYyE.s:55     .text:0000000000000054 .L0 
     /tmp/ccK4CYyE.s:56     .text:0000000000000054 .L0 
     /tmp/ccK4CYyE.s:58     .text:0000000000000058 .L0 
     /tmp/ccK4CYyE.s:61     .text:000000000000005c .L0 
     /tmp/ccK4CYyE.s:63     .text:0000000000000060 .L0 
     /tmp/ccK4CYyE.s:67     .text:0000000000000064 .L0 
     /tmp/ccK4CYyE.s:69     .text:0000000000000064 .L0 
     /tmp/ccK4CYyE.s:70     .text:0000000000000064 .L0 
     /tmp/ccK4CYyE.s:73     .text:0000000000000070 .L0 
     /tmp/ccK4CYyE.s:96     .text:0000000000000070 _Z11workerBodyAPv
     /tmp/ccK4CYyE.s:99     .text:0000000000000070 .L0 
     /tmp/ccK4CYyE.s:100    .text:0000000000000070 .L0 
     /tmp/ccK4CYyE.s:101    .text:0000000000000074 .L0 
     /tmp/ccK4CYyE.s:106    .text:0000000000000084 .L0 
     /tmp/ccK4CYyE.s:107    .text:0000000000000084 .L0 
     /tmp/ccK4CYyE.s:108    .text:0000000000000084 .L0 
     /tmp/ccK4CYyE.s:109    .text:0000000000000084 .L0 
     /tmp/ccK4CYyE.s:111    .text:0000000000000088 .L0 
     /tmp/ccK4CYyE.s:114    .text:0000000000000088 .L0 
     /tmp/ccK4CYyE.s:115    .text:0000000000000088 .L0 
     /tmp/ccK4CYyE.s:120    .text:0000000000000090 .L0 
     /tmp/ccK4CYyE.s:121    .text:0000000000000090 .L0 
     /tmp/ccK4CYyE.s:125    .text:00000000000000a0 .L0 
     /tmp/ccK4CYyE.s:126    .text:00000000000000a0 .L0 
     /tmp/ccK4CYyE.s:130    .text:00000000000000ac .L0 
     /tmp/ccK4CYyE.s:131    .text:00000000000000ac .L0 
     /tmp/ccK4CYyE.s:135    .text:00000000000000bc .L0 
     /tmp/ccK4CYyE.s:141    .text:00000000000000c4 .L0 
     /tmp/ccK4CYyE.s:142    .text:00000000000000c4 .L0 
     /tmp/ccK4CYyE.s:145    .text:00000000000000cc .L0 
     /tmp/ccK4CYyE.s:146    .text:00000000000000cc .L0 
     /tmp/ccK4CYyE.s:150    .text:00000000000000dc .L0 
     src/workers.cpp:28     .text:00000000000000dc .L0 
     /tmp/ccK4CYyE.s:156    .text:00000000000000e0 .L0 
     /tmp/ccK4CYyE.s:158    .text:00000000000000e0 .L0 
GAS LISTING /tmp/ccK4CYyE.s 			page 16


     /tmp/ccK4CYyE.s:161    .text:00000000000000e8 .L0 
     /tmp/ccK4CYyE.s:162    .text:00000000000000e8 .L0 
     src/workers.cpp:32     .text:00000000000000e8 .L0 
     /tmp/ccK4CYyE.s:169    .text:00000000000000ec .L0 
     /tmp/ccK4CYyE.s:171    .text:00000000000000ec .L0 
     /tmp/ccK4CYyE.s:175    .text:00000000000000fc .L0 
     /tmp/ccK4CYyE.s:176    .text:00000000000000fc .L0 
     /tmp/ccK4CYyE.s:180    .text:0000000000000108 .L0 
     /tmp/ccK4CYyE.s:181    .text:0000000000000108 .L0 
     /tmp/ccK4CYyE.s:185    .text:0000000000000118 .L0 
     /tmp/ccK4CYyE.s:186    .text:0000000000000118 .L0 
     /tmp/ccK4CYyE.s:192    .text:0000000000000128 .L0 
     /tmp/ccK4CYyE.s:193    .text:0000000000000128 .L0 
     /tmp/ccK4CYyE.s:198    .text:0000000000000138 .L0 
     /tmp/ccK4CYyE.s:199    .text:0000000000000138 .L0 
     /tmp/ccK4CYyE.s:203    .text:0000000000000144 .L0 
     /tmp/ccK4CYyE.s:204    .text:0000000000000144 .L0 
     /tmp/ccK4CYyE.s:210    .text:0000000000000158 .L0 
     /tmp/ccK4CYyE.s:211    .text:0000000000000158 .L0 
     /tmp/ccK4CYyE.s:215    .text:0000000000000168 .L0 
     /tmp/ccK4CYyE.s:216    .text:0000000000000168 .L0 
     /tmp/ccK4CYyE.s:220    .text:0000000000000174 .L0 
     /tmp/ccK4CYyE.s:221    .text:0000000000000174 .L0 
     /tmp/ccK4CYyE.s:225    .text:0000000000000184 .L0 
     /tmp/ccK4CYyE.s:231    .text:000000000000018c .L0 
     /tmp/ccK4CYyE.s:232    .text:000000000000018c .L0 
     /tmp/ccK4CYyE.s:235    .text:0000000000000194 .L0 
     /tmp/ccK4CYyE.s:236    .text:0000000000000198 .L0 
     /tmp/ccK4CYyE.s:238    .text:000000000000019c .L0 
     /tmp/ccK4CYyE.s:239    .text:000000000000019c .L0 
     /tmp/ccK4CYyE.s:241    .text:00000000000001a0 .L0 
     /tmp/ccK4CYyE.s:244    .text:00000000000001a4 .L0 
     /tmp/ccK4CYyE.s:247    .text:00000000000001a8 .L0 
     /tmp/ccK4CYyE.s:249    .text:00000000000001ac .L0 
     /tmp/ccK4CYyE.s:263    .text:00000000000001ac _Z11workerBodyBPv
     /tmp/ccK4CYyE.s:266    .text:00000000000001ac .L0 
     /tmp/ccK4CYyE.s:267    .text:00000000000001ac .L0 
     /tmp/ccK4CYyE.s:268    .text:00000000000001b0 .L0 
     /tmp/ccK4CYyE.s:273    .text:00000000000001c0 .L0 
     /tmp/ccK4CYyE.s:274    .text:00000000000001c0 .L0 
     /tmp/ccK4CYyE.s:275    .text:00000000000001c0 .L0 
     /tmp/ccK4CYyE.s:276    .text:00000000000001c0 .L0 
     /tmp/ccK4CYyE.s:278    .text:00000000000001c4 .L0 
     /tmp/ccK4CYyE.s:281    .text:00000000000001c4 .L0 
     /tmp/ccK4CYyE.s:282    .text:00000000000001c4 .L0 
     /tmp/ccK4CYyE.s:287    .text:00000000000001cc .L0 
     /tmp/ccK4CYyE.s:288    .text:00000000000001cc .L0 
     /tmp/ccK4CYyE.s:292    .text:00000000000001dc .L0 
     /tmp/ccK4CYyE.s:293    .text:00000000000001dc .L0 
     /tmp/ccK4CYyE.s:297    .text:00000000000001e8 .L0 
     /tmp/ccK4CYyE.s:298    .text:00000000000001e8 .L0 
     /tmp/ccK4CYyE.s:302    .text:00000000000001f8 .L0 
     /tmp/ccK4CYyE.s:308    .text:0000000000000200 .L0 
     /tmp/ccK4CYyE.s:309    .text:0000000000000200 .L0 
     /tmp/ccK4CYyE.s:312    .text:0000000000000208 .L0 
     /tmp/ccK4CYyE.s:313    .text:0000000000000208 .L0 
     /tmp/ccK4CYyE.s:317    .text:0000000000000218 .L0 
GAS LISTING /tmp/ccK4CYyE.s 			page 17


     src/workers.cpp:66     .text:0000000000000218 .L0 
     /tmp/ccK4CYyE.s:323    .text:000000000000021c .L0 
     /tmp/ccK4CYyE.s:325    .text:000000000000021c .L0 
     /tmp/ccK4CYyE.s:328    .text:0000000000000224 .L0 
     /tmp/ccK4CYyE.s:329    .text:0000000000000224 .L0 
     /tmp/ccK4CYyE.s:335    .text:0000000000000234 .L0 
     /tmp/ccK4CYyE.s:336    .text:0000000000000234 .L0 
     /tmp/ccK4CYyE.s:341    .text:0000000000000244 .L0 
     /tmp/ccK4CYyE.s:342    .text:0000000000000244 .L0 
     /tmp/ccK4CYyE.s:346    .text:0000000000000250 .L0 
     /tmp/ccK4CYyE.s:347    .text:0000000000000250 .L0 
     /tmp/ccK4CYyE.s:353    .text:0000000000000264 .L0 
     /tmp/ccK4CYyE.s:354    .text:0000000000000264 .L0 
     /tmp/ccK4CYyE.s:358    .text:0000000000000274 .L0 
     /tmp/ccK4CYyE.s:359    .text:0000000000000274 .L0 
     /tmp/ccK4CYyE.s:363    .text:0000000000000280 .L0 
     /tmp/ccK4CYyE.s:364    .text:0000000000000280 .L0 
     /tmp/ccK4CYyE.s:368    .text:0000000000000290 .L0 
     /tmp/ccK4CYyE.s:374    .text:0000000000000298 .L0 
     /tmp/ccK4CYyE.s:375    .text:0000000000000298 .L0 
     /tmp/ccK4CYyE.s:378    .text:00000000000002a0 .L0 
     /tmp/ccK4CYyE.s:379    .text:00000000000002a4 .L0 
     /tmp/ccK4CYyE.s:381    .text:00000000000002a8 .L0 
     /tmp/ccK4CYyE.s:382    .text:00000000000002a8 .L0 
     /tmp/ccK4CYyE.s:384    .text:00000000000002ac .L0 
     /tmp/ccK4CYyE.s:387    .text:00000000000002b0 .L0 
     /tmp/ccK4CYyE.s:390    .text:00000000000002b4 .L0 
     /tmp/ccK4CYyE.s:392    .text:00000000000002b8 .L0 
     /tmp/ccK4CYyE.s:403    .text:00000000000002b8 _Z11workerBodyCPv
     /tmp/ccK4CYyE.s:406    .text:00000000000002b8 .L0 
     /tmp/ccK4CYyE.s:407    .text:00000000000002b8 .L0 
     /tmp/ccK4CYyE.s:408    .text:00000000000002bc .L0 
     /tmp/ccK4CYyE.s:412    .text:00000000000002c8 .L0 
     /tmp/ccK4CYyE.s:413    .text:00000000000002c8 .L0 
     /tmp/ccK4CYyE.s:414    .text:00000000000002c8 .L0 
     /tmp/ccK4CYyE.s:416    .text:00000000000002cc .L0 
     /tmp/ccK4CYyE.s:419    .text:00000000000002cc .L0 
     /tmp/ccK4CYyE.s:420    .text:00000000000002cc .L0 
     /tmp/ccK4CYyE.s:424    .text:00000000000002d0 .L0 
     /tmp/ccK4CYyE.s:425    .text:00000000000002d0 .L0 
     /tmp/ccK4CYyE.s:428    .text:00000000000002d8 .L0 
     /tmp/ccK4CYyE.s:429    .text:00000000000002d8 .L0 
     /tmp/ccK4CYyE.s:433    .text:00000000000002e8 .L0 
     /tmp/ccK4CYyE.s:434    .text:00000000000002e8 .L0 
     /tmp/ccK4CYyE.s:439    .text:00000000000002f0 .L0 
     /tmp/ccK4CYyE.s:442    .text:00000000000002f4 .L0 
     /tmp/ccK4CYyE.s:443    .text:00000000000002f8 .L0 
     /tmp/ccK4CYyE.s:445    .text:00000000000002fc .L0 
     /tmp/ccK4CYyE.s:446    .text:00000000000002fc .L0 
     /tmp/ccK4CYyE.s:448    .text:0000000000000300 .L0 
     /tmp/ccK4CYyE.s:451    .text:0000000000000304 .L0 
     /tmp/ccK4CYyE.s:453    .text:0000000000000308 .L0 
     /tmp/ccK4CYyE.s:464    .text:0000000000000308 _Z11workerBodyDPv
     /tmp/ccK4CYyE.s:467    .text:0000000000000308 .L0 
     /tmp/ccK4CYyE.s:468    .text:0000000000000308 .L0 
     /tmp/ccK4CYyE.s:469    .text:000000000000030c .L0 
     /tmp/ccK4CYyE.s:473    .text:0000000000000318 .L0 
GAS LISTING /tmp/ccK4CYyE.s 			page 18


     /tmp/ccK4CYyE.s:474    .text:0000000000000318 .L0 
     /tmp/ccK4CYyE.s:475    .text:0000000000000318 .L0 
     /tmp/ccK4CYyE.s:477    .text:000000000000031c .L0 
     /tmp/ccK4CYyE.s:480    .text:000000000000031c .L0 
     /tmp/ccK4CYyE.s:481    .text:000000000000031c .L0 
     /tmp/ccK4CYyE.s:486    .text:0000000000000324 .L0 
     /tmp/ccK4CYyE.s:487    .text:0000000000000324 .L0 
     /tmp/ccK4CYyE.s:491    .text:0000000000000334 .L0 
     /tmp/ccK4CYyE.s:492    .text:0000000000000334 .L0 
     /tmp/ccK4CYyE.s:495    .text:000000000000033c .L0 
     /tmp/ccK4CYyE.s:496    .text:000000000000033c .L0 
     /tmp/ccK4CYyE.s:502    .text:0000000000000344 .L0 
     /tmp/ccK4CYyE.s:503    .text:0000000000000344 .L0 
     /tmp/ccK4CYyE.s:506    .text:000000000000034c .L0 
     /tmp/ccK4CYyE.s:507    .text:0000000000000350 .L0 
     /tmp/ccK4CYyE.s:509    .text:0000000000000354 .L0 
     /tmp/ccK4CYyE.s:510    .text:0000000000000354 .L0 
     /tmp/ccK4CYyE.s:512    .text:0000000000000358 .L0 
     /tmp/ccK4CYyE.s:515    .text:000000000000035c .L0 
     /tmp/ccK4CYyE.s:517    .text:0000000000000360 .L0 
     /tmp/ccK4CYyE.s:528    .text:0000000000000360 _Z4idlePv
     /tmp/ccK4CYyE.s:531    .text:0000000000000360 .L0 
     /tmp/ccK4CYyE.s:532    .text:0000000000000360 .L0 
     /tmp/ccK4CYyE.s:533    .text:0000000000000364 .L0 
     /tmp/ccK4CYyE.s:536    .text:000000000000036c .L0 
     /tmp/ccK4CYyE.s:537    .text:000000000000036c .L0 
     /tmp/ccK4CYyE.s:539    .text:0000000000000370 .L0 
     /tmp/ccK4CYyE.s:542    .text:0000000000000370 .L0 
     /tmp/ccK4CYyE.s:543    .text:0000000000000370 .L0 
     /tmp/ccK4CYyE.s:544    .text:0000000000000370 .L0 
     /tmp/ccK4CYyE.s:548    .text:0000000000000380 .L0 
     /tmp/ccK4CYyE.s:549    .text:0000000000000380 .L0 
     /tmp/ccK4CYyE.s:552    .text:0000000000000388 .L0 
     /tmp/ccK4CYyE.s:553    .text:000000000000038c .L0 
     /tmp/ccK4CYyE.s:561    .text:000000000000038c .L0 
     /tmp/ccK4CYyE.s:78     .rodata.str1.8:0000000000000000 .LC0
     /tmp/ccK4CYyE.s:121    .text:0000000000000090 .L0 
     /tmp/ccK4CYyE.s:81     .rodata.str1.8:0000000000000008 .LC1
     /tmp/ccK4CYyE.s:131    .text:00000000000000ac .L0 
     /tmp/ccK4CYyE.s:84     .rodata.str1.8:0000000000000010 .LC2
     /tmp/ccK4CYyE.s:146    .text:00000000000000cc .L0 
     /tmp/ccK4CYyE.s:87     .rodata.str1.8:0000000000000020 .LC3
     /tmp/ccK4CYyE.s:171    .text:00000000000000ec .L0 
     /tmp/ccK4CYyE.s:181    .text:0000000000000108 .L0 
     /tmp/ccK4CYyE.s:90     .rodata.str1.8:0000000000000028 .LC4
     /tmp/ccK4CYyE.s:193    .text:0000000000000128 .L0 
     /tmp/ccK4CYyE.s:204    .text:0000000000000144 .L0 
     /tmp/ccK4CYyE.s:211    .text:0000000000000158 .L0 
     /tmp/ccK4CYyE.s:221    .text:0000000000000174 .L0 
     /tmp/ccK4CYyE.s:254    .rodata.str1.8:0000000000000038 .LC5
     /tmp/ccK4CYyE.s:288    .text:00000000000001cc .L0 
     /tmp/ccK4CYyE.s:298    .text:00000000000001e8 .L0 
     /tmp/ccK4CYyE.s:257    .rodata.str1.8:0000000000000040 .LC6
     /tmp/ccK4CYyE.s:313    .text:0000000000000208 .L0 
     /tmp/ccK4CYyE.s:336    .text:0000000000000234 .L0 
     /tmp/ccK4CYyE.s:347    .text:0000000000000250 .L0 
     /tmp/ccK4CYyE.s:354    .text:0000000000000264 .L0 
GAS LISTING /tmp/ccK4CYyE.s 			page 19


     /tmp/ccK4CYyE.s:364    .text:0000000000000280 .L0 
     /tmp/ccK4CYyE.s:397    .rodata.str1.8:0000000000000050 .LC7
     /tmp/ccK4CYyE.s:429    .text:00000000000002d8 .L0 
     /tmp/ccK4CYyE.s:458    .rodata.str1.8:0000000000000058 .LC8
     /tmp/ccK4CYyE.s:487    .text:0000000000000324 .L0 
     /tmp/ccK4CYyE.s:522    .rodata.str1.8:0000000000000060 .LC9
     /tmp/ccK4CYyE.s:544    .text:0000000000000370 .L0 
     /tmp/ccK4CYyE.s:49     .text:000000000000004c .L1
     /tmp/ccK4CYyE.s:66     .text:0000000000000064 .L6
     /tmp/ccK4CYyE.s:36     .text:000000000000002c .L3
     /tmp/ccK4CYyE.s:139    .text:00000000000000c4 .L9
     /tmp/ccK4CYyE.s:118    .text:0000000000000090 .L13
     /tmp/ccK4CYyE.s:229    .text:000000000000018c .L11
     /tmp/ccK4CYyE.s:208    .text:0000000000000158 .L14
     /tmp/ccK4CYyE.s:306    .text:0000000000000200 .L17
     /tmp/ccK4CYyE.s:285    .text:00000000000001cc .L21
     /tmp/ccK4CYyE.s:372    .text:0000000000000298 .L19
     /tmp/ccK4CYyE.s:351    .text:0000000000000264 .L22
     /tmp/ccK4CYyE.s:440    .text:00000000000002f4 .L23
     /tmp/ccK4CYyE.s:422    .text:00000000000002d0 .L25
     /tmp/ccK4CYyE.s:500    .text:0000000000000344 .L29
     /tmp/ccK4CYyE.s:484    .text:0000000000000324 .L31
     /tmp/ccK4CYyE.s:540    .text:0000000000000370 .L33
     /tmp/ccK4CYyE.s:1489   .debug_abbrev:0000000000000000 .Ldebug_abbrev0
     /tmp/ccK4CYyE.s:2336   .debug_str:000000000000023b .LASF67
     /tmp/ccK4CYyE.s:2268   .debug_str:0000000000000000 .LASF68
     /tmp/ccK4CYyE.s:2278   .debug_str:000000000000004c .LASF69
     /tmp/ccK4CYyE.s:5      .text:0000000000000000 .Ltext0
     /tmp/ccK4CYyE.s:556    .text:000000000000038c .Letext0
     /tmp/ccK4CYyE.s:2266   .debug_line:0000000000000000 .Ldebug_line0
     /tmp/ccK4CYyE.s:2348   .debug_str:0000000000000340 .LASF0
     /tmp/ccK4CYyE.s:2322   .debug_str:00000000000001bf .LASF1
     /tmp/ccK4CYyE.s:2314   .debug_str:0000000000000176 .LASF2
     /tmp/ccK4CYyE.s:2388   .debug_str:0000000000000450 .LASF3
     /tmp/ccK4CYyE.s:2286   .debug_str:0000000000000091 .LASF4
     /tmp/ccK4CYyE.s:2320   .debug_str:00000000000001ad .LASF5
     /tmp/ccK4CYyE.s:2274   .debug_str:0000000000000031 .LASF6
     /tmp/ccK4CYyE.s:2272   .debug_str:000000000000001e .LASF7
     /tmp/ccK4CYyE.s:2306   .debug_str:0000000000000129 .LASF8
     /tmp/ccK4CYyE.s:2360   .debug_str:0000000000000389 .LASF9
     /tmp/ccK4CYyE.s:2284   .debug_str:0000000000000083 .LASF10
     /tmp/ccK4CYyE.s:2422   .debug_str:000000000000057d .LASF11
     /tmp/ccK4CYyE.s:2310   .debug_str:0000000000000147 .LASF12
     /tmp/ccK4CYyE.s:2398   .debug_str:00000000000004a3 .LASF13
     /tmp/ccK4CYyE.s:2366   .debug_str:00000000000003b7 .LASF14
     /tmp/ccK4CYyE.s:2326   .debug_str:00000000000001db .LASF15
     /tmp/ccK4CYyE.s:2296   .debug_str:00000000000000c3 .LASF16
     /tmp/ccK4CYyE.s:2362   .debug_str:0000000000000399 .LASF17
     /tmp/ccK4CYyE.s:2374   .debug_str:00000000000003f6 .LASF70
     /tmp/ccK4CYyE.s:2402   .debug_str:00000000000004c7 .LASF71
     /tmp/ccK4CYyE.s:2300   .debug_str:00000000000000f4 .LASF18
     /tmp/ccK4CYyE.s:2382   .debug_str:0000000000000422 .LASF20
     /tmp/ccK4CYyE.s:2308   .debug_str:000000000000013c .LASF48
     /tmp/ccK4CYyE.s:2412   .debug_str:000000000000051f .LASF50
     /tmp/ccK4CYyE.s:2354   .debug_str:0000000000000367 .LASF19
     /tmp/ccK4CYyE.s:2298   .debug_str:00000000000000d9 .LASF21
     /tmp/ccK4CYyE.s:2294   .debug_str:00000000000000b5 .LASF22
GAS LISTING /tmp/ccK4CYyE.s 			page 20


     /tmp/ccK4CYyE.s:2394   .debug_str:0000000000000476 .LASF23
     /tmp/ccK4CYyE.s:2288   .debug_str:0000000000000098 .LASF72
     /tmp/ccK4CYyE.s:2346   .debug_str:000000000000033a .LASF73
     /tmp/ccK4CYyE.s:2400   .debug_str:00000000000004b3 .LASF74
     /tmp/ccK4CYyE.s:2352   .debug_str:000000000000035f .LASF75
     /tmp/ccK4CYyE.s:2350   .debug_str:000000000000034d .LASF24
     /tmp/ccK4CYyE.s:2276   .debug_str:0000000000000038 .LASF25
     /tmp/ccK4CYyE.s:2420   .debug_str:0000000000000567 .LASF26
     /tmp/ccK4CYyE.s:2280   .debug_str:0000000000000070 .LASF27
     /tmp/ccK4CYyE.s:2390   .debug_str:0000000000000456 .LASF28
     /tmp/ccK4CYyE.s:2338   .debug_str:00000000000002ff .LASF76
     /tmp/ccK4CYyE.s:2334   .debug_str:0000000000000236 .LASF29
     /tmp/ccK4CYyE.s:2290   .debug_str:000000000000009d .LASF30
     /tmp/ccK4CYyE.s:2364   .debug_str:00000000000003af .LASF31
     /tmp/ccK4CYyE.s:2324   .debug_str:00000000000001d2 .LASF32
     /tmp/ccK4CYyE.s:2330   .debug_str:00000000000001fc .LASF39
     /tmp/ccK4CYyE.s:2332   .debug_str:000000000000020a .LASF41
     /tmp/ccK4CYyE.s:2270   .debug_str:0000000000000010 .LASF33
     /tmp/ccK4CYyE.s:2410   .debug_str:0000000000000502 .LASF35
     /tmp/ccK4CYyE.s:2356   .debug_str:0000000000000373 .LASF34
     /tmp/ccK4CYyE.s:2404   .debug_str:00000000000004cf .LASF36
     /tmp/ccK4CYyE.s:2376   .debug_str:00000000000003fe .LASF37
     /tmp/ccK4CYyE.s:2302   .debug_str:00000000000000fd .LASF38
     /tmp/ccK4CYyE.s:2318   .debug_str:00000000000001a1 .LASF40
     /tmp/ccK4CYyE.s:2316   .debug_str:0000000000000184 .LASF42
     /tmp/ccK4CYyE.s:2344   .debug_str:0000000000000333 .LASF43
     /tmp/ccK4CYyE.s:2416   .debug_str:0000000000000544 .LASF44
     /tmp/ccK4CYyE.s:2304   .debug_str:0000000000000118 .LASF45
     /tmp/ccK4CYyE.s:2312   .debug_str:0000000000000156 .LASF46
     /tmp/ccK4CYyE.s:2396   .debug_str:000000000000049e .LASF47
     /tmp/ccK4CYyE.s:2282   .debug_str:000000000000007e .LASF49
     /tmp/ccK4CYyE.s:2408   .debug_str:00000000000004f8 .LASF51
     /tmp/ccK4CYyE.s:529    .text:0000000000000360 .LFB10
     /tmp/ccK4CYyE.s:554    .text:000000000000038c .LFE10
     /tmp/ccK4CYyE.s:546    .text:0000000000000380 .LVL68
     /tmp/ccK4CYyE.s:550    .text:0000000000000388 .LVL69
     /tmp/ccK4CYyE.s:2384   .debug_str:0000000000000432 .LASF52
     /tmp/ccK4CYyE.s:2392   .debug_str:0000000000000464 .LASF53
     /tmp/ccK4CYyE.s:465    .text:0000000000000308 .LFB9
     /tmp/ccK4CYyE.s:518    .text:0000000000000360 .LFE9
     /tmp/ccK4CYyE.s:2129   .debug_loc:0000000000000000 .LLST7
     /tmp/ccK4CYyE.s:489    .text:0000000000000334 .LVL63
     /tmp/ccK4CYyE.s:493    .text:000000000000033c .LVL64
     /tmp/ccK4CYyE.s:2370   .debug_str:00000000000003da .LASF54
     /tmp/ccK4CYyE.s:2342   .debug_str:0000000000000321 .LASF55
     /tmp/ccK4CYyE.s:404    .text:00000000000002b8 .LFB8
     /tmp/ccK4CYyE.s:454    .text:0000000000000308 .LFE8
     /tmp/ccK4CYyE.s:2145   .debug_loc:000000000000004a .LLST6
     /tmp/ccK4CYyE.s:431    .text:00000000000002e8 .LVL57
     /tmp/ccK4CYyE.s:2380   .debug_str:0000000000000416 .LASF56
     /tmp/ccK4CYyE.s:2292   .debug_str:00000000000000a3 .LASF57
     /tmp/ccK4CYyE.s:264    .text:00000000000001ac .LFB7
     /tmp/ccK4CYyE.s:393    .text:00000000000002b8 .LFE7
     /tmp/ccK4CYyE.s:2161   .debug_loc:0000000000000094 .LLST4
     /tmp/ccK4CYyE.s:2340   .debug_str:000000000000031a .LASF58
     /tmp/ccK4CYyE.s:2181   .debug_loc:00000000000000f1 .LLST5
     /tmp/ccK4CYyE.s:290    .text:00000000000001dc .LVL35
GAS LISTING /tmp/ccK4CYyE.s 			page 21


     /tmp/ccK4CYyE.s:295    .text:00000000000001e8 .LVL36
     /tmp/ccK4CYyE.s:300    .text:00000000000001f8 .LVL37
     /tmp/ccK4CYyE.s:315    .text:0000000000000218 .LVL40
     /tmp/ccK4CYyE.s:326    .text:0000000000000224 .LVL41
     /tmp/ccK4CYyE.s:331    .text:0000000000000230 .LVL42
     /tmp/ccK4CYyE.s:339    .text:0000000000000244 .LVL45
     /tmp/ccK4CYyE.s:344    .text:0000000000000250 .LVL46
     /tmp/ccK4CYyE.s:349    .text:0000000000000260 .LVL47
     /tmp/ccK4CYyE.s:356    .text:0000000000000274 .LVL48
     /tmp/ccK4CYyE.s:361    .text:0000000000000280 .LVL49
     /tmp/ccK4CYyE.s:366    .text:0000000000000290 .LVL50
     /tmp/ccK4CYyE.s:2378   .debug_str:000000000000040a .LASF59
     /tmp/ccK4CYyE.s:2386   .debug_str:000000000000043e .LASF60
     /tmp/ccK4CYyE.s:97     .text:0000000000000070 .LFB6
     /tmp/ccK4CYyE.s:250    .text:00000000000001ac .LFE6
     /tmp/ccK4CYyE.s:2192   .debug_loc:0000000000000127 .LLST1
     /tmp/ccK4CYyE.s:2212   .debug_loc:0000000000000184 .LLST2
     /tmp/ccK4CYyE.s:2220   .debug_loc:00000000000001a8 .LLST3
     /tmp/ccK4CYyE.s:123    .text:00000000000000a0 .LVL9
     /tmp/ccK4CYyE.s:128    .text:00000000000000ac .LVL10
     /tmp/ccK4CYyE.s:133    .text:00000000000000bc .LVL11
     /tmp/ccK4CYyE.s:148    .text:00000000000000dc .LVL14
     /tmp/ccK4CYyE.s:159    .text:00000000000000e8 .LVL15
     /tmp/ccK4CYyE.s:173    .text:00000000000000fc .LVL17
     /tmp/ccK4CYyE.s:178    .text:0000000000000108 .LVL18
     /tmp/ccK4CYyE.s:183    .text:0000000000000118 .LVL19
     /tmp/ccK4CYyE.s:188    .text:0000000000000124 .LVL20
     /tmp/ccK4CYyE.s:196    .text:0000000000000138 .LVL23
     /tmp/ccK4CYyE.s:201    .text:0000000000000144 .LVL24
     /tmp/ccK4CYyE.s:206    .text:0000000000000154 .LVL25
     /tmp/ccK4CYyE.s:213    .text:0000000000000168 .LVL26
     /tmp/ccK4CYyE.s:218    .text:0000000000000174 .LVL27
     /tmp/ccK4CYyE.s:223    .text:0000000000000184 .LVL28
     /tmp/ccK4CYyE.s:2414   .debug_str:000000000000053a .LASF77
     /tmp/ccK4CYyE.s:9      .text:0000000000000000 .LFB5
     /tmp/ccK4CYyE.s:74     .text:0000000000000070 .LFE5
     /tmp/ccK4CYyE.s:2231   .debug_loc:00000000000001de .LLST0
     /tmp/ccK4CYyE.s:41     .text:0000000000000038 .LVL2
     /tmp/ccK4CYyE.s:46     .text:0000000000000048 .LVL3
     /tmp/ccK4CYyE.s:71     .text:000000000000006c .LVL6
     /tmp/ccK4CYyE.s:2368   .debug_str:00000000000003c7 .LASF61
     /tmp/ccK4CYyE.s:2418   .debug_str:000000000000055b .LASF63
     /tmp/ccK4CYyE.s:2328   .debug_str:00000000000001e7 .LASF62
     /tmp/ccK4CYyE.s:2372   .debug_str:00000000000003e6 .LASF64
     /tmp/ccK4CYyE.s:2406   .debug_str:00000000000004e6 .LASF65
     /tmp/ccK4CYyE.s:2358   .debug_str:000000000000037c .LASF66
     /tmp/ccK4CYyE.s:479    .text:000000000000031c .LVL61
     /tmp/ccK4CYyE.s:483    .text:0000000000000324 .LVL62
     /tmp/ccK4CYyE.s:497    .text:0000000000000340 .LVL65
     /tmp/ccK4CYyE.s:499    .text:0000000000000344 .LVL66
     /tmp/ccK4CYyE.s:513    .text:0000000000000358 .LVL67
     /tmp/ccK4CYyE.s:418    .text:00000000000002cc .LVL55
     /tmp/ccK4CYyE.s:421    .text:00000000000002d0 .LVL56
     /tmp/ccK4CYyE.s:435    .text:00000000000002ec .LVL58
     /tmp/ccK4CYyE.s:437    .text:00000000000002f0 .LVL59
     /tmp/ccK4CYyE.s:449    .text:0000000000000300 .LVL60
     /tmp/ccK4CYyE.s:280    .text:00000000000001c4 .LVL33
GAS LISTING /tmp/ccK4CYyE.s 			page 22


     /tmp/ccK4CYyE.s:284    .text:00000000000001cc .LVL34
     /tmp/ccK4CYyE.s:303    .text:00000000000001fc .LVL38
     /tmp/ccK4CYyE.s:305    .text:0000000000000200 .LVL39
     /tmp/ccK4CYyE.s:369    .text:0000000000000294 .LVL51
     /tmp/ccK4CYyE.s:371    .text:0000000000000298 .LVL52
     /tmp/ccK4CYyE.s:385    .text:00000000000002ac .LVL53
     /tmp/ccK4CYyE.s:333    .text:0000000000000234 .LVL43
     /tmp/ccK4CYyE.s:337    .text:000000000000023c .LVL44
     /tmp/ccK4CYyE.s:388    .text:00000000000002b0 .LVL54
     /tmp/ccK4CYyE.s:113    .text:0000000000000088 .LVL7
     /tmp/ccK4CYyE.s:117    .text:0000000000000090 .LVL8
     /tmp/ccK4CYyE.s:136    .text:00000000000000c0 .LVL12
     /tmp/ccK4CYyE.s:138    .text:00000000000000c4 .LVL13
     /tmp/ccK4CYyE.s:226    .text:0000000000000188 .LVL29
     /tmp/ccK4CYyE.s:228    .text:000000000000018c .LVL30
     /tmp/ccK4CYyE.s:242    .text:00000000000001a0 .LVL31
     /tmp/ccK4CYyE.s:167    .text:00000000000000ec .LVL16
     /tmp/ccK4CYyE.s:190    .text:0000000000000128 .LVL21
     /tmp/ccK4CYyE.s:194    .text:0000000000000130 .LVL22
     /tmp/ccK4CYyE.s:245    .text:00000000000001a4 .LVL32
     /tmp/ccK4CYyE.s:13     .text:0000000000000000 .LVL0
     /tmp/ccK4CYyE.s:35     .text:000000000000002c .LVL1
     /tmp/ccK4CYyE.s:59     .text:0000000000000058 .LVL4
     /tmp/ccK4CYyE.s:65     .text:0000000000000064 .LVL5
     /tmp/ccK4CYyE.s:562    .debug_info:0000000000000000 .Ldebug_info0

UNDEFINED SYMBOLS
_Z15thread_dispatchv
_Z11printStringPKc
_Z12printIntegerm
_ZN7kThread5yieldEv
