GAS LISTING /tmp/cctz2mOR.s 			page 1


   1              		.file	"workers.cpp"
   2              		.option pic
   3              		.option norelax
   4              		.text
   5              	.Ltext0:
   6              		.align	2
   8              	_ZL9fibonaccim:
   9              	.LFB5:
  10              		.file 1 "src/workers.cpp"
   1:src/workers.cpp **** //
   2:src/workers.cpp **** // Created by marko on 20.4.22..
   3:src/workers.cpp **** //
   4:src/workers.cpp **** 
   5:src/workers.cpp **** #include"../lib/hw.h"
   6:src/workers.cpp **** //#include "../h/ccb.hpp"
   7:src/workers.cpp **** #include "../h/print.hpp"
   8:src/workers.cpp **** #include "../h/kThread.hpp"
   9:src/workers.cpp **** #include "../h/syscall_c.hpp"
  10:src/workers.cpp **** 
  11:src/workers.cpp **** static uint64 fibonacci(uint64 n)
  12:src/workers.cpp **** {
  11              		.loc 1 12 1
  12              		.cfi_startproc
  13              	.LVL0:
  14 0000 130101FE 		addi	sp,sp,-32
  15              		.cfi_def_cfa_offset 32
  16 0004 233C1100 		sd	ra,24(sp)
  17 0008 23388100 		sd	s0,16(sp)
  18 000c 23349100 		sd	s1,8(sp)
  19 0010 23302101 		sd	s2,0(sp)
  20              		.cfi_offset 1, -8
  21              		.cfi_offset 8, -16
  22              		.cfi_offset 9, -24
  23              		.cfi_offset 18, -32
  24 0014 13040102 		addi	s0,sp,32
  25              		.cfi_def_cfa 8, 0
  26 0018 93040500 		mv	s1,a0
  13:src/workers.cpp ****     if (n == 0 || n == 1) { return n; }
  27              		.loc 1 13 5
  28 001c 93071000 		li	a5,1
  29 0020 63F6A702 		bleu	a0,a5,.L1
  14:src/workers.cpp ****     if (n % 4 == 0) thread_dispatch();
  30              		.loc 1 14 5
  31              		.loc 1 14 11 is_stmt 0
  32 0024 93773500 		andi	a5,a0,3
  33              		.loc 1 14 5
  34 0028 638E0702 		beqz	a5,.L6
  35              	.LVL1:
  36              	.L3:
  15:src/workers.cpp ****     return fibonacci(n - 1) + fibonacci(n - 2);
  37              		.loc 1 15 5 is_stmt 1
  38              		.loc 1 15 21 is_stmt 0
  39 002c 1385F4FF 		addi	a0,s1,-1
  40 0030 97000000 		call	_ZL9fibonaccim
  40      E7800000 
  41              	.LVL2:
  42 0038 13090500 		mv	s2,a0
GAS LISTING /tmp/cctz2mOR.s 			page 2


  43              		.loc 1 15 40
  44 003c 1385E4FF 		addi	a0,s1,-2
  45 0040 97000000 		call	_ZL9fibonaccim
  45      E7800000 
  46              	.LVL3:
  47              		.loc 1 15 46
  48 0048 3305A900 		add	a0,s2,a0
  49              	.L1:
  16:src/workers.cpp **** }
  50              		.loc 1 16 1
  51 004c 83308101 		ld	ra,24(sp)
  52              		.cfi_remember_state
  53              		.cfi_restore 1
  54 0050 03340101 		ld	s0,16(sp)
  55              		.cfi_restore 8
  56              		.cfi_def_cfa 2, 32
  57 0054 83348100 		ld	s1,8(sp)
  58              		.cfi_restore 9
  59              	.LVL4:
  60 0058 03390100 		ld	s2,0(sp)
  61              		.cfi_restore 18
  62 005c 13010102 		addi	sp,sp,32
  63              		.cfi_def_cfa_offset 0
  64 0060 67800000 		jr	ra
  65              	.LVL5:
  66              	.L6:
  67              		.cfi_restore_state
  14:src/workers.cpp ****     if (n % 4 == 0) thread_dispatch();
  68              		.loc 1 14 21 is_stmt 1 discriminator 1
  14:src/workers.cpp ****     if (n % 4 == 0) thread_dispatch();
  69              		.loc 1 14 36 is_stmt 0 discriminator 1
  70 0064 97000000 		call	_Z15thread_dispatchv@plt
  70      E7800000 
  71              	.LVL6:
  72 006c 6FF01FFC 		j	.L3
  73              		.cfi_endproc
  74              	.LFE5:
  76              		.section	.rodata.str1.8,"aMS",@progbits,1
  77              		.align	3
  78              	.LC0:
  79 0000 413A2069 		.string	"A: i="
  79      3D00
  80 0006 0000     		.align	3
  81              	.LC1:
  82 0008 0A00     		.string	"\n"
  83 000a 00000000 		.align	3
  83      0000
  84              	.LC2:
  85 0010 413A2079 		.string	"A: yield\n"
  85      69656C64 
  85      0A00
  86 001a 00000000 		.align	3
  86      0000
  87              	.LC3:
  88 0020 413A2074 		.string	"A: t1="
  88      313D00
  89 0027 00       		.align	3
GAS LISTING /tmp/cctz2mOR.s 			page 3


  90              	.LC4:
  91 0028 413A2066 		.string	"A: fibonaci="
  91      69626F6E 
  91      6163693D 
  91      00
  92 0035 000000   		.align	3
  93              	.LC5:
  94 0038 79656500 		.string	"yee"
  95              		.text
  96              		.align	2
  97              		.globl	_Z11workerBodyAPv
  99              	_Z11workerBodyAPv:
 100              	.LFB6:
  17:src/workers.cpp **** 
  18:src/workers.cpp **** void workerBodyA(void *)
  19:src/workers.cpp **** {
 101              		.loc 1 19 1 is_stmt 1
 102              		.cfi_startproc
 103 0070 130101FE 		addi	sp,sp,-32
 104              		.cfi_def_cfa_offset 32
 105 0074 233C1100 		sd	ra,24(sp)
 106 0078 23388100 		sd	s0,16(sp)
 107 007c 23349100 		sd	s1,8(sp)
 108 0080 23302101 		sd	s2,0(sp)
 109              		.cfi_offset 1, -8
 110              		.cfi_offset 8, -16
 111              		.cfi_offset 9, -24
 112              		.cfi_offset 18, -32
 113 0084 13040102 		addi	s0,sp,32
 114              		.cfi_def_cfa 8, 0
  20:src/workers.cpp ****     uint8 i = 0;
 115              		.loc 1 20 5
 116              	.LVL7:
 117              		.loc 1 20 11 is_stmt 0
 118 0088 93040000 		li	s1,0
 119 008c 6F008003 		j	.L9
 120              	.LVL8:
 121              	.L13:
  21:src/workers.cpp ****     for (; i < 3; i++)
  22:src/workers.cpp ****     {
  23:src/workers.cpp ****         printString("A: i=");
 122              		.loc 1 23 9 is_stmt 1 discriminator 1
 123              		.loc 1 23 20 is_stmt 0 discriminator 1
 124 0090 17050000 		lla	a0,.LC0
 124      13050500 
 125 0098 97000000 		call	_Z11printStringPKc@plt
 125      E7800000 
 126              	.LVL9:
  24:src/workers.cpp ****         printInteger(i);
 127              		.loc 1 24 9 is_stmt 1 discriminator 1
 128              		.loc 1 24 21 is_stmt 0 discriminator 1
 129 00a0 13850400 		mv	a0,s1
 130 00a4 97000000 		call	_Z12printIntegerm@plt
 130      E7800000 
 131              	.LVL10:
  25:src/workers.cpp ****         printString("\n");
 132              		.loc 1 25 9 is_stmt 1 discriminator 1
GAS LISTING /tmp/cctz2mOR.s 			page 4


 133              		.loc 1 25 20 is_stmt 0 discriminator 1
 134 00ac 17050000 		lla	a0,.LC1
 134      13050500 
 135 00b4 97000000 		call	_Z11printStringPKc@plt
 135      E7800000 
 136              	.LVL11:
  21:src/workers.cpp ****     for (; i < 3; i++)
 137              		.loc 1 21 5 is_stmt 1 discriminator 1
 138 00bc 9B841400 		addiw	s1,s1,1
 139              	.LVL12:
 140 00c0 93F4F40F 		andi	s1,s1,0xff
 141              	.LVL13:
 142              	.L9:
  21:src/workers.cpp ****     for (; i < 3; i++)
 143              		.loc 1 21 5 discriminator 2
  21:src/workers.cpp ****     for (; i < 3; i++)
 144              		.loc 1 21 14 discriminator 2
 145 00c4 93072000 		li	a5,2
 146 00c8 E3F497FC 		bleu	s1,a5,.L13
  26:src/workers.cpp ****     }
  27:src/workers.cpp **** 
  28:src/workers.cpp ****     printString("A: yield\n");
 147              		.loc 1 28 5
 148              		.loc 1 28 16 is_stmt 0
 149 00cc 17050000 		lla	a0,.LC2
 149      13050500 
 150 00d4 97000000 		call	_Z11printStringPKc@plt
 150      E7800000 
 151              	.LVL14:
  29:src/workers.cpp ****     __asm__ ("li t1, 7");
 152              		.loc 1 29 5 is_stmt 1
 153              		.loc 1 29 25 is_stmt 0
 154              	#APP
 155              	# 29 "src/workers.cpp" 1
  30              	    thread_dispatch();
 156              		li t1, 7
 157              	# 0 "" 2
 158              		.loc 1 30 5 is_stmt 1
 159              		.loc 1 30 20 is_stmt 0
 160              	#NO_APP
 161 00e0 97000000 		call	_Z15thread_dispatchv@plt
 161      E7800000 
 162              	.LVL15:
  31:src/workers.cpp **** 
  32:src/workers.cpp ****     uint64 t1 = 0;
 163              		.loc 1 32 5 is_stmt 1
  33:src/workers.cpp ****     __asm__ ("mv %[t1], t1" : [t1] "=r"(t1));
 164              		.loc 1 33 5
 165              		.loc 1 33 45 is_stmt 0
 166              	#APP
 167              	# 33 "src/workers.cpp" 1
  34              	
 168              		mv s2, t1
 169              	# 0 "" 2
 170              	.LVL16:
  35:src/workers.cpp ****     printString("A: t1=");
 171              		.loc 1 35 5 is_stmt 1
GAS LISTING /tmp/cctz2mOR.s 			page 5


 172              		.loc 1 35 16 is_stmt 0
 173              	#NO_APP
 174 00ec 17050000 		lla	a0,.LC3
 174      13050500 
 175 00f4 97000000 		call	_Z11printStringPKc@plt
 175      E7800000 
 176              	.LVL17:
  36:src/workers.cpp ****     printInteger(t1);
 177              		.loc 1 36 5 is_stmt 1
 178              		.loc 1 36 17 is_stmt 0
 179 00fc 13050900 		mv	a0,s2
 180 0100 97000000 		call	_Z12printIntegerm@plt
 180      E7800000 
 181              	.LVL18:
  37:src/workers.cpp ****     printString("\n");
 182              		.loc 1 37 5 is_stmt 1
 183              		.loc 1 37 16 is_stmt 0
 184 0108 17050000 		lla	a0,.LC1
 184      13050500 
 185 0110 97000000 		call	_Z11printStringPKc@plt
 185      E7800000 
 186              	.LVL19:
  38:src/workers.cpp **** 
  39:src/workers.cpp ****     uint64 result = fibonacci(20);
 187              		.loc 1 39 5 is_stmt 1
 188              		.loc 1 39 30 is_stmt 0
 189 0118 13054001 		li	a0,20
 190 011c 97000000 		call	_ZL9fibonaccim
 190      E7800000 
 191              	.LVL20:
 192 0124 13090500 		mv	s2,a0
 193              	.LVL21:
  40:src/workers.cpp ****     printString("A: fibonaci=");
 194              		.loc 1 40 5 is_stmt 1
 195              		.loc 1 40 16 is_stmt 0
 196 0128 17050000 		lla	a0,.LC4
 196      13050500 
 197              	.LVL22:
 198 0130 97000000 		call	_Z11printStringPKc@plt
 198      E7800000 
 199              	.LVL23:
  41:src/workers.cpp ****     printInteger(result);
 200              		.loc 1 41 5 is_stmt 1
 201              		.loc 1 41 17 is_stmt 0
 202 0138 13050900 		mv	a0,s2
 203 013c 97000000 		call	_Z12printIntegerm@plt
 203      E7800000 
 204              	.LVL24:
  42:src/workers.cpp ****     printString("\n");
 205              		.loc 1 42 5 is_stmt 1
 206              		.loc 1 42 16 is_stmt 0
 207 0144 17050000 		lla	a0,.LC1
 207      13050500 
 208 014c 97000000 		call	_Z11printStringPKc@plt
 208      E7800000 
 209              	.LVL25:
 210 0154 6F008003 		j	.L11
GAS LISTING /tmp/cctz2mOR.s 			page 6


 211              	.L14:
  43:src/workers.cpp **** 
  44:src/workers.cpp ****     for (; i < 6; i++)
  45:src/workers.cpp ****     {
  46:src/workers.cpp ****         printString("A: i=");
 212              		.loc 1 46 9 is_stmt 1 discriminator 1
 213              		.loc 1 46 20 is_stmt 0 discriminator 1
 214 0158 17050000 		lla	a0,.LC0
 214      13050500 
 215 0160 97000000 		call	_Z11printStringPKc@plt
 215      E7800000 
 216              	.LVL26:
  47:src/workers.cpp ****         printInteger(i);
 217              		.loc 1 47 9 is_stmt 1 discriminator 1
 218              		.loc 1 47 21 is_stmt 0 discriminator 1
 219 0168 13850400 		mv	a0,s1
 220 016c 97000000 		call	_Z12printIntegerm@plt
 220      E7800000 
 221              	.LVL27:
  48:src/workers.cpp ****         printString("\n");
 222              		.loc 1 48 9 is_stmt 1 discriminator 1
 223              		.loc 1 48 20 is_stmt 0 discriminator 1
 224 0174 17050000 		lla	a0,.LC1
 224      13050500 
 225 017c 97000000 		call	_Z11printStringPKc@plt
 225      E7800000 
 226              	.LVL28:
  44:src/workers.cpp ****     {
 227              		.loc 1 44 5 is_stmt 1 discriminator 1
 228 0184 9B841400 		addiw	s1,s1,1
 229              	.LVL29:
 230 0188 93F4F40F 		andi	s1,s1,0xff
 231              	.LVL30:
 232              	.L11:
  44:src/workers.cpp ****     {
 233              		.loc 1 44 5 discriminator 2
  44:src/workers.cpp ****     {
 234              		.loc 1 44 14 discriminator 2
 235 018c 93075000 		li	a5,5
 236 0190 E3F497FC 		bleu	s1,a5,.L14
  49:src/workers.cpp ****     }
  50:src/workers.cpp **** 
  51:src/workers.cpp ****     kThread::running->setFinished(true);
 237              		.loc 1 51 5
 238              		.loc 1 51 34 is_stmt 0
 239 0194 97070000 		la	a5,_ZN7kThread7runningE
 239      83B70700 
 240 019c 83B70700 		ld	a5,0(a5)
 241              	.LVL31:
 242              	.LBB6:
 243              	.LBB7:
 244              		.file 2 "src/../h/kThread.hpp"
   1:src/../h/kThread.hpp **** #ifndef OS_PROJECT_BASE_KTHREAD_H
   2:src/../h/kThread.hpp **** #define OS_PROJECT_BASE_KTHREAD_H
   3:src/../h/kThread.hpp **** 
   4:src/../h/kThread.hpp **** #include "../lib/hw.h"
   5:src/../h/kThread.hpp **** 
GAS LISTING /tmp/cctz2mOR.s 			page 7


   6:src/../h/kThread.hpp **** class kScheduler;
   7:src/../h/kThread.hpp **** 
   8:src/../h/kThread.hpp **** class kThread{
   9:src/../h/kThread.hpp **** 
  10:src/../h/kThread.hpp **** public:
  11:src/../h/kThread.hpp **** 
  12:src/../h/kThread.hpp ****     ~kThread() { delete[] stack; }
  13:src/../h/kThread.hpp ****     inline bool isFinished() const { return finished; }
  14:src/../h/kThread.hpp ****     inline void setFinished(bool finished) { kThread::finished = finished; }
 245              		.loc 2 14 46 is_stmt 1
 246              		.loc 2 14 64 is_stmt 0
 247 01a0 13071000 		li	a4,1
 248 01a4 2388E702 		sb	a4,48(a5)
 249              	.LVL32:
 250              	.LBE7:
 251              	.LBE6:
  52:src/workers.cpp ****     thread_dispatch();
 252              		.loc 1 52 5 is_stmt 1
 253              		.loc 1 52 20 is_stmt 0
 254 01a8 97000000 		call	_Z15thread_dispatchv@plt
 254      E7800000 
 255              	.LVL33:
  53:src/workers.cpp ****     printString("yee");
 256              		.loc 1 53 5 is_stmt 1
 257              		.loc 1 53 16 is_stmt 0
 258 01b0 17050000 		lla	a0,.LC5
 258      13050500 
 259 01b8 97000000 		call	_Z11printStringPKc@plt
 259      E7800000 
 260              	.LVL34:
  54:src/workers.cpp **** }
 261              		.loc 1 54 1
 262 01c0 83308101 		ld	ra,24(sp)
 263              		.cfi_restore 1
 264 01c4 03340101 		ld	s0,16(sp)
 265              		.cfi_restore 8
 266              		.cfi_def_cfa 2, 32
 267 01c8 83348100 		ld	s1,8(sp)
 268              		.cfi_restore 9
 269              	.LVL35:
 270 01cc 03390100 		ld	s2,0(sp)
 271              		.cfi_restore 18
 272              	.LVL36:
 273 01d0 13010102 		addi	sp,sp,32
 274              		.cfi_def_cfa_offset 0
 275 01d4 67800000 		jr	ra
 276              		.cfi_endproc
 277              	.LFE6:
 279              		.section	.rodata.str1.8
 280 003c 00000000 		.align	3
 281              	.LC6:
 282 0040 423A2069 		.string	"B: i="
 282      3D00
 283 0046 0000     		.align	3
 284              	.LC7:
 285 0048 423A2079 		.string	"B: yield\n"
 285      69656C64 
GAS LISTING /tmp/cctz2mOR.s 			page 8


 285      0A00
 286              		.text
 287              		.align	2
 288              		.globl	_Z11workerBodyBPv
 290              	_Z11workerBodyBPv:
 291              	.LFB7:
  55:src/workers.cpp **** 
  56:src/workers.cpp **** void workerBodyB(void*)
  57:src/workers.cpp **** {
 292              		.loc 1 57 1 is_stmt 1
 293              		.cfi_startproc
 294 01d8 130101FE 		addi	sp,sp,-32
 295              		.cfi_def_cfa_offset 32
 296 01dc 233C1100 		sd	ra,24(sp)
 297 01e0 23388100 		sd	s0,16(sp)
 298 01e4 23349100 		sd	s1,8(sp)
 299 01e8 23302101 		sd	s2,0(sp)
 300              		.cfi_offset 1, -8
 301              		.cfi_offset 8, -16
 302              		.cfi_offset 9, -24
 303              		.cfi_offset 18, -32
 304 01ec 13040102 		addi	s0,sp,32
 305              		.cfi_def_cfa 8, 0
  58:src/workers.cpp ****     uint8 i = 10;
 306              		.loc 1 58 5
 307              	.LVL37:
 308              		.loc 1 58 11 is_stmt 0
 309 01f0 9304A000 		li	s1,10
 310 01f4 6F008003 		j	.L17
 311              	.LVL38:
 312              	.L21:
  59:src/workers.cpp ****     for (; i < 13; i++)
  60:src/workers.cpp ****     {
  61:src/workers.cpp ****         printString("B: i=");
 313              		.loc 1 61 9 is_stmt 1 discriminator 1
 314              		.loc 1 61 20 is_stmt 0 discriminator 1
 315 01f8 17050000 		lla	a0,.LC6
 315      13050500 
 316 0200 97000000 		call	_Z11printStringPKc@plt
 316      E7800000 
 317              	.LVL39:
  62:src/workers.cpp ****         printInteger(i);
 318              		.loc 1 62 9 is_stmt 1 discriminator 1
 319              		.loc 1 62 21 is_stmt 0 discriminator 1
 320 0208 13850400 		mv	a0,s1
 321 020c 97000000 		call	_Z12printIntegerm@plt
 321      E7800000 
 322              	.LVL40:
  63:src/workers.cpp ****         printString("\n");
 323              		.loc 1 63 9 is_stmt 1 discriminator 1
 324              		.loc 1 63 20 is_stmt 0 discriminator 1
 325 0214 17050000 		lla	a0,.LC1
 325      13050500 
 326 021c 97000000 		call	_Z11printStringPKc@plt
 326      E7800000 
 327              	.LVL41:
  59:src/workers.cpp ****     for (; i < 13; i++)
GAS LISTING /tmp/cctz2mOR.s 			page 9


 328              		.loc 1 59 5 is_stmt 1 discriminator 1
 329 0224 9B841400 		addiw	s1,s1,1
 330              	.LVL42:
 331 0228 93F4F40F 		andi	s1,s1,0xff
 332              	.LVL43:
 333              	.L17:
  59:src/workers.cpp ****     for (; i < 13; i++)
 334              		.loc 1 59 5 discriminator 2
  59:src/workers.cpp ****     for (; i < 13; i++)
 335              		.loc 1 59 14 discriminator 2
 336 022c 9307C000 		li	a5,12
 337 0230 E3F497FC 		bleu	s1,a5,.L21
  64:src/workers.cpp ****     }
  65:src/workers.cpp **** 
  66:src/workers.cpp ****     printString("B: yield\n");
 338              		.loc 1 66 5
 339              		.loc 1 66 16 is_stmt 0
 340 0234 17050000 		lla	a0,.LC7
 340      13050500 
 341 023c 97000000 		call	_Z11printStringPKc@plt
 341      E7800000 
 342              	.LVL44:
  67:src/workers.cpp ****     __asm__ ("li t1, 5");
 343              		.loc 1 67 5 is_stmt 1
 344              		.loc 1 67 25 is_stmt 0
 345              	#APP
 346              	# 67 "src/workers.cpp" 1
  68              	    thread_dispatch();
 347              		li t1, 5
 348              	# 0 "" 2
 349              		.loc 1 68 5 is_stmt 1
 350              		.loc 1 68 20 is_stmt 0
 351              	#NO_APP
 352 0248 97000000 		call	_Z15thread_dispatchv@plt
 352      E7800000 
 353              	.LVL45:
  69:src/workers.cpp **** 
  70:src/workers.cpp ****     uint64 result = fibonacci(23);
 354              		.loc 1 70 5 is_stmt 1
 355              		.loc 1 70 30 is_stmt 0
 356 0250 13057001 		li	a0,23
 357 0254 97000000 		call	_ZL9fibonaccim
 357      E7800000 
 358              	.LVL46:
 359 025c 13090500 		mv	s2,a0
 360              	.LVL47:
  71:src/workers.cpp ****     printString("A: fibonaci=");
 361              		.loc 1 71 5 is_stmt 1
 362              		.loc 1 71 16 is_stmt 0
 363 0260 17050000 		lla	a0,.LC4
 363      13050500 
 364              	.LVL48:
 365 0268 97000000 		call	_Z11printStringPKc@plt
 365      E7800000 
 366              	.LVL49:
  72:src/workers.cpp ****     printInteger(result);
 367              		.loc 1 72 5 is_stmt 1
GAS LISTING /tmp/cctz2mOR.s 			page 10


 368              		.loc 1 72 17 is_stmt 0
 369 0270 13050900 		mv	a0,s2
 370 0274 97000000 		call	_Z12printIntegerm@plt
 370      E7800000 
 371              	.LVL50:
  73:src/workers.cpp ****     printString("\n");
 372              		.loc 1 73 5 is_stmt 1
 373              		.loc 1 73 16 is_stmt 0
 374 027c 17050000 		lla	a0,.LC1
 374      13050500 
 375 0284 97000000 		call	_Z11printStringPKc@plt
 375      E7800000 
 376              	.LVL51:
 377 028c 6F008003 		j	.L19
 378              	.L22:
  74:src/workers.cpp **** 
  75:src/workers.cpp ****     for (; i < 16; i++)
  76:src/workers.cpp ****     {
  77:src/workers.cpp ****         printString("B: i=");
 379              		.loc 1 77 9 is_stmt 1 discriminator 1
 380              		.loc 1 77 20 is_stmt 0 discriminator 1
 381 0290 17050000 		lla	a0,.LC6
 381      13050500 
 382 0298 97000000 		call	_Z11printStringPKc@plt
 382      E7800000 
 383              	.LVL52:
  78:src/workers.cpp ****         printInteger(i);
 384              		.loc 1 78 9 is_stmt 1 discriminator 1
 385              		.loc 1 78 21 is_stmt 0 discriminator 1
 386 02a0 13850400 		mv	a0,s1
 387 02a4 97000000 		call	_Z12printIntegerm@plt
 387      E7800000 
 388              	.LVL53:
  79:src/workers.cpp ****         printString("\n");
 389              		.loc 1 79 9 is_stmt 1 discriminator 1
 390              		.loc 1 79 20 is_stmt 0 discriminator 1
 391 02ac 17050000 		lla	a0,.LC1
 391      13050500 
 392 02b4 97000000 		call	_Z11printStringPKc@plt
 392      E7800000 
 393              	.LVL54:
  75:src/workers.cpp ****     {
 394              		.loc 1 75 5 is_stmt 1 discriminator 1
 395 02bc 9B841400 		addiw	s1,s1,1
 396              	.LVL55:
 397 02c0 93F4F40F 		andi	s1,s1,0xff
 398              	.LVL56:
 399              	.L19:
  75:src/workers.cpp ****     {
 400              		.loc 1 75 5 discriminator 2
  75:src/workers.cpp ****     {
 401              		.loc 1 75 14 discriminator 2
 402 02c4 9307F000 		li	a5,15
 403 02c8 E3F497FC 		bleu	s1,a5,.L22
  80:src/workers.cpp ****     }
  81:src/workers.cpp ****     kThread::running->setFinished(true);
 404              		.loc 1 81 5
GAS LISTING /tmp/cctz2mOR.s 			page 11


 405              		.loc 1 81 34 is_stmt 0
 406 02cc 97070000 		la	a5,_ZN7kThread7runningE
 406      83B70700 
 407 02d4 83B70700 		ld	a5,0(a5)
 408              	.LVL57:
 409              	.LBB8:
 410              	.LBB9:
 411              		.loc 2 14 46 is_stmt 1
 412              		.loc 2 14 64 is_stmt 0
 413 02d8 13071000 		li	a4,1
 414 02dc 2388E702 		sb	a4,48(a5)
 415              	.LVL58:
 416              	.LBE9:
 417              	.LBE8:
  82:src/workers.cpp ****     thread_dispatch();
 418              		.loc 1 82 5 is_stmt 1
 419              		.loc 1 82 20 is_stmt 0
 420 02e0 97000000 		call	_Z15thread_dispatchv@plt
 420      E7800000 
 421              	.LVL59:
  83:src/workers.cpp **** 
  84:src/workers.cpp **** }
 422              		.loc 1 84 1
 423 02e8 83308101 		ld	ra,24(sp)
 424              		.cfi_restore 1
 425 02ec 03340101 		ld	s0,16(sp)
 426              		.cfi_restore 8
 427              		.cfi_def_cfa 2, 32
 428 02f0 83348100 		ld	s1,8(sp)
 429              		.cfi_restore 9
 430              	.LVL60:
 431 02f4 03390100 		ld	s2,0(sp)
 432              		.cfi_restore 18
 433              	.LVL61:
 434 02f8 13010102 		addi	sp,sp,32
 435              		.cfi_def_cfa_offset 0
 436 02fc 67800000 		jr	ra
 437              		.cfi_endproc
 438              	.LFE7:
 440              		.section	.rodata.str1.8
 441 0052 00000000 		.align	3
 441      0000
 442              	.LC8:
 443 0058 430A00   		.string	"C\n"
 444              		.text
 445              		.align	2
 446              		.globl	_Z11workerBodyCPv
 448              	_Z11workerBodyCPv:
 449              	.LFB8:
  85:src/workers.cpp **** 
  86:src/workers.cpp **** void workerBodyC(void*)
  87:src/workers.cpp **** {
 450              		.loc 1 87 1 is_stmt 1
 451              		.cfi_startproc
 452 0300 130101FF 		addi	sp,sp,-16
 453              		.cfi_def_cfa_offset 16
 454 0304 23341100 		sd	ra,8(sp)
GAS LISTING /tmp/cctz2mOR.s 			page 12


 455 0308 23308100 		sd	s0,0(sp)
 456              		.cfi_offset 1, -8
 457              		.cfi_offset 8, -16
 458 030c 13040101 		addi	s0,sp,16
 459              		.cfi_def_cfa 8, 0
 460              	.L24:
  88:src/workers.cpp ****     while(1)
 461              		.loc 1 88 5 discriminator 1
  89:src/workers.cpp ****     {
  90:src/workers.cpp ****         printString("C\n");
 462              		.loc 1 90 9 discriminator 1
 463              		.loc 1 90 20 is_stmt 0 discriminator 1
 464 0310 17050000 		lla	a0,.LC8
 464      13050500 
 465 0318 97000000 		call	_Z11printStringPKc@plt
 465      E7800000 
 466              	.LVL62:
  91:src/workers.cpp ****         kThread::yield();
 467              		.loc 1 91 9 is_stmt 1 discriminator 1
 468              		.loc 1 91 23 is_stmt 0 discriminator 1
 469 0320 97000000 		call	_ZN7kThread5yieldEv@plt
 469      E7800000 
 470              	.LVL63:
  88:src/workers.cpp ****     while(1)
 471              		.loc 1 88 5 is_stmt 1 discriminator 1
 472 0328 6FF09FFE 		j	.L24
 473              		.cfi_endproc
 474              	.LFE8:
 476              		.section	.rodata.str1.8
 477 005b 00000000 		.align	3
 477      00
 478              	.LC9:
 479 0060 440A00   		.string	"D\n"
 480              		.text
 481              		.align	2
 482              		.globl	_Z11workerBodyDPv
 484              	_Z11workerBodyDPv:
 485              	.LFB9:
  92:src/workers.cpp ****     }
  93:src/workers.cpp **** }
  94:src/workers.cpp **** 
  95:src/workers.cpp **** void workerBodyD(void*)
  96:src/workers.cpp **** {
 486              		.loc 1 96 1
 487              		.cfi_startproc
 488 032c 130101FF 		addi	sp,sp,-16
 489              		.cfi_def_cfa_offset 16
 490 0330 23341100 		sd	ra,8(sp)
 491 0334 23308100 		sd	s0,0(sp)
 492              		.cfi_offset 1, -8
 493              		.cfi_offset 8, -16
 494 0338 13040101 		addi	s0,sp,16
 495              		.cfi_def_cfa 8, 0
 496              	.L27:
  97:src/workers.cpp ****     while(1)
 497              		.loc 1 97 5 discriminator 1
  98:src/workers.cpp ****     {
GAS LISTING /tmp/cctz2mOR.s 			page 13


  99:src/workers.cpp ****         printString("D\n");
 498              		.loc 1 99 9 discriminator 1
 499              		.loc 1 99 20 is_stmt 0 discriminator 1
 500 033c 17050000 		lla	a0,.LC9
 500      13050500 
 501 0344 97000000 		call	_Z11printStringPKc@plt
 501      E7800000 
 502              	.LVL64:
 100:src/workers.cpp ****         kThread::yield();
 503              		.loc 1 100 9 is_stmt 1 discriminator 1
 504              		.loc 1 100 23 is_stmt 0 discriminator 1
 505 034c 97000000 		call	_ZN7kThread5yieldEv@plt
 505      E7800000 
 506              	.LVL65:
  97:src/workers.cpp ****     while(1)
 507              		.loc 1 97 5 is_stmt 1 discriminator 1
 508 0354 6FF09FFE 		j	.L27
 509              		.cfi_endproc
 510              	.LFE9:
 512              	.Letext0:
 513              		.file 3 "src/../lib/hw.h"
 514              		.file 4 "src/../h/print.hpp"
 515              		.file 5 "src/../h/syscall_c.hpp"
GAS LISTING /tmp/cctz2mOR.s 			page 14


DEFINED SYMBOLS
                            *ABS*:0000000000000000 workers.cpp
     /tmp/cctz2mOR.s:8      .text:0000000000000000 _ZL9fibonaccim
     /tmp/cctz2mOR.s:12     .text:0000000000000000 .L0 
     /tmp/cctz2mOR.s:14     .text:0000000000000000 .L0 
     /tmp/cctz2mOR.s:15     .text:0000000000000004 .L0 
     /tmp/cctz2mOR.s:20     .text:0000000000000014 .L0 
     /tmp/cctz2mOR.s:21     .text:0000000000000014 .L0 
     /tmp/cctz2mOR.s:22     .text:0000000000000014 .L0 
     /tmp/cctz2mOR.s:23     .text:0000000000000014 .L0 
     /tmp/cctz2mOR.s:25     .text:0000000000000018 .L0 
     /tmp/cctz2mOR.s:28     .text:000000000000001c .L0 
     /tmp/cctz2mOR.s:31     .text:0000000000000024 .L0 
     /tmp/cctz2mOR.s:32     .text:0000000000000024 .L0 
     /tmp/cctz2mOR.s:34     .text:0000000000000028 .L0 
     /tmp/cctz2mOR.s:38     .text:000000000000002c .L0 
     /tmp/cctz2mOR.s:39     .text:000000000000002c .L0 
     /tmp/cctz2mOR.s:44     .text:000000000000003c .L0 
     /tmp/cctz2mOR.s:48     .text:0000000000000048 .L0 
     /tmp/cctz2mOR.s:51     .text:000000000000004c .L0 
     /tmp/cctz2mOR.s:52     .text:0000000000000050 .L0 
     /tmp/cctz2mOR.s:53     .text:0000000000000050 .L0 
     /tmp/cctz2mOR.s:55     .text:0000000000000054 .L0 
     /tmp/cctz2mOR.s:56     .text:0000000000000054 .L0 
     /tmp/cctz2mOR.s:58     .text:0000000000000058 .L0 
     /tmp/cctz2mOR.s:61     .text:000000000000005c .L0 
     /tmp/cctz2mOR.s:63     .text:0000000000000060 .L0 
     /tmp/cctz2mOR.s:67     .text:0000000000000064 .L0 
     /tmp/cctz2mOR.s:69     .text:0000000000000064 .L0 
     /tmp/cctz2mOR.s:70     .text:0000000000000064 .L0 
     /tmp/cctz2mOR.s:73     .text:0000000000000070 .L0 
     /tmp/cctz2mOR.s:99     .text:0000000000000070 _Z11workerBodyAPv
     /tmp/cctz2mOR.s:102    .text:0000000000000070 .L0 
     /tmp/cctz2mOR.s:103    .text:0000000000000070 .L0 
     /tmp/cctz2mOR.s:104    .text:0000000000000074 .L0 
     /tmp/cctz2mOR.s:109    .text:0000000000000084 .L0 
     /tmp/cctz2mOR.s:110    .text:0000000000000084 .L0 
     /tmp/cctz2mOR.s:111    .text:0000000000000084 .L0 
     /tmp/cctz2mOR.s:112    .text:0000000000000084 .L0 
     /tmp/cctz2mOR.s:114    .text:0000000000000088 .L0 
     /tmp/cctz2mOR.s:117    .text:0000000000000088 .L0 
     /tmp/cctz2mOR.s:118    .text:0000000000000088 .L0 
     /tmp/cctz2mOR.s:123    .text:0000000000000090 .L0 
     /tmp/cctz2mOR.s:124    .text:0000000000000090 .L0 
     /tmp/cctz2mOR.s:128    .text:00000000000000a0 .L0 
     /tmp/cctz2mOR.s:129    .text:00000000000000a0 .L0 
     /tmp/cctz2mOR.s:133    .text:00000000000000ac .L0 
     /tmp/cctz2mOR.s:134    .text:00000000000000ac .L0 
     /tmp/cctz2mOR.s:138    .text:00000000000000bc .L0 
     /tmp/cctz2mOR.s:144    .text:00000000000000c4 .L0 
     /tmp/cctz2mOR.s:145    .text:00000000000000c4 .L0 
     /tmp/cctz2mOR.s:148    .text:00000000000000cc .L0 
     /tmp/cctz2mOR.s:149    .text:00000000000000cc .L0 
     /tmp/cctz2mOR.s:153    .text:00000000000000dc .L0 
     src/workers.cpp:29     .text:00000000000000dc .L0 
     /tmp/cctz2mOR.s:159    .text:00000000000000e0 .L0 
     /tmp/cctz2mOR.s:161    .text:00000000000000e0 .L0 
GAS LISTING /tmp/cctz2mOR.s 			page 15


     /tmp/cctz2mOR.s:164    .text:00000000000000e8 .L0 
     /tmp/cctz2mOR.s:165    .text:00000000000000e8 .L0 
     src/workers.cpp:33     .text:00000000000000e8 .L0 
     /tmp/cctz2mOR.s:172    .text:00000000000000ec .L0 
     /tmp/cctz2mOR.s:174    .text:00000000000000ec .L0 
     /tmp/cctz2mOR.s:178    .text:00000000000000fc .L0 
     /tmp/cctz2mOR.s:179    .text:00000000000000fc .L0 
     /tmp/cctz2mOR.s:183    .text:0000000000000108 .L0 
     /tmp/cctz2mOR.s:184    .text:0000000000000108 .L0 
     /tmp/cctz2mOR.s:188    .text:0000000000000118 .L0 
     /tmp/cctz2mOR.s:189    .text:0000000000000118 .L0 
     /tmp/cctz2mOR.s:195    .text:0000000000000128 .L0 
     /tmp/cctz2mOR.s:196    .text:0000000000000128 .L0 
     /tmp/cctz2mOR.s:201    .text:0000000000000138 .L0 
     /tmp/cctz2mOR.s:202    .text:0000000000000138 .L0 
     /tmp/cctz2mOR.s:206    .text:0000000000000144 .L0 
     /tmp/cctz2mOR.s:207    .text:0000000000000144 .L0 
     /tmp/cctz2mOR.s:213    .text:0000000000000158 .L0 
     /tmp/cctz2mOR.s:214    .text:0000000000000158 .L0 
     /tmp/cctz2mOR.s:218    .text:0000000000000168 .L0 
     /tmp/cctz2mOR.s:219    .text:0000000000000168 .L0 
     /tmp/cctz2mOR.s:223    .text:0000000000000174 .L0 
     /tmp/cctz2mOR.s:224    .text:0000000000000174 .L0 
     /tmp/cctz2mOR.s:228    .text:0000000000000184 .L0 
     /tmp/cctz2mOR.s:234    .text:000000000000018c .L0 
     /tmp/cctz2mOR.s:235    .text:000000000000018c .L0 
     /tmp/cctz2mOR.s:238    .text:0000000000000194 .L0 
     /tmp/cctz2mOR.s:239    .text:0000000000000194 .L0 
     /tmp/cctz2mOR.s:246    .text:00000000000001a0 .L0 
     /tmp/cctz2mOR.s:247    .text:00000000000001a0 .L0 
     /tmp/cctz2mOR.s:253    .text:00000000000001a8 .L0 
     /tmp/cctz2mOR.s:254    .text:00000000000001a8 .L0 
     /tmp/cctz2mOR.s:257    .text:00000000000001b0 .L0 
     /tmp/cctz2mOR.s:258    .text:00000000000001b0 .L0 
     /tmp/cctz2mOR.s:262    .text:00000000000001c0 .L0 
     /tmp/cctz2mOR.s:263    .text:00000000000001c4 .L0 
     /tmp/cctz2mOR.s:265    .text:00000000000001c8 .L0 
     /tmp/cctz2mOR.s:266    .text:00000000000001c8 .L0 
     /tmp/cctz2mOR.s:268    .text:00000000000001cc .L0 
     /tmp/cctz2mOR.s:271    .text:00000000000001d0 .L0 
     /tmp/cctz2mOR.s:274    .text:00000000000001d4 .L0 
     /tmp/cctz2mOR.s:276    .text:00000000000001d8 .L0 
     /tmp/cctz2mOR.s:290    .text:00000000000001d8 _Z11workerBodyBPv
     /tmp/cctz2mOR.s:293    .text:00000000000001d8 .L0 
     /tmp/cctz2mOR.s:294    .text:00000000000001d8 .L0 
     /tmp/cctz2mOR.s:295    .text:00000000000001dc .L0 
     /tmp/cctz2mOR.s:300    .text:00000000000001ec .L0 
     /tmp/cctz2mOR.s:301    .text:00000000000001ec .L0 
     /tmp/cctz2mOR.s:302    .text:00000000000001ec .L0 
     /tmp/cctz2mOR.s:303    .text:00000000000001ec .L0 
     /tmp/cctz2mOR.s:305    .text:00000000000001f0 .L0 
     /tmp/cctz2mOR.s:308    .text:00000000000001f0 .L0 
     /tmp/cctz2mOR.s:309    .text:00000000000001f0 .L0 
     /tmp/cctz2mOR.s:314    .text:00000000000001f8 .L0 
     /tmp/cctz2mOR.s:315    .text:00000000000001f8 .L0 
     /tmp/cctz2mOR.s:319    .text:0000000000000208 .L0 
     /tmp/cctz2mOR.s:320    .text:0000000000000208 .L0 
GAS LISTING /tmp/cctz2mOR.s 			page 16


     /tmp/cctz2mOR.s:324    .text:0000000000000214 .L0 
     /tmp/cctz2mOR.s:325    .text:0000000000000214 .L0 
     /tmp/cctz2mOR.s:329    .text:0000000000000224 .L0 
     /tmp/cctz2mOR.s:335    .text:000000000000022c .L0 
     /tmp/cctz2mOR.s:336    .text:000000000000022c .L0 
     /tmp/cctz2mOR.s:339    .text:0000000000000234 .L0 
     /tmp/cctz2mOR.s:340    .text:0000000000000234 .L0 
     /tmp/cctz2mOR.s:344    .text:0000000000000244 .L0 
     src/workers.cpp:67     .text:0000000000000244 .L0 
     /tmp/cctz2mOR.s:350    .text:0000000000000248 .L0 
     /tmp/cctz2mOR.s:352    .text:0000000000000248 .L0 
     /tmp/cctz2mOR.s:355    .text:0000000000000250 .L0 
     /tmp/cctz2mOR.s:356    .text:0000000000000250 .L0 
     /tmp/cctz2mOR.s:362    .text:0000000000000260 .L0 
     /tmp/cctz2mOR.s:363    .text:0000000000000260 .L0 
     /tmp/cctz2mOR.s:368    .text:0000000000000270 .L0 
     /tmp/cctz2mOR.s:369    .text:0000000000000270 .L0 
     /tmp/cctz2mOR.s:373    .text:000000000000027c .L0 
     /tmp/cctz2mOR.s:374    .text:000000000000027c .L0 
     /tmp/cctz2mOR.s:380    .text:0000000000000290 .L0 
     /tmp/cctz2mOR.s:381    .text:0000000000000290 .L0 
     /tmp/cctz2mOR.s:385    .text:00000000000002a0 .L0 
     /tmp/cctz2mOR.s:386    .text:00000000000002a0 .L0 
     /tmp/cctz2mOR.s:390    .text:00000000000002ac .L0 
     /tmp/cctz2mOR.s:391    .text:00000000000002ac .L0 
     /tmp/cctz2mOR.s:395    .text:00000000000002bc .L0 
     /tmp/cctz2mOR.s:401    .text:00000000000002c4 .L0 
     /tmp/cctz2mOR.s:402    .text:00000000000002c4 .L0 
     /tmp/cctz2mOR.s:405    .text:00000000000002cc .L0 
     /tmp/cctz2mOR.s:406    .text:00000000000002cc .L0 
     /tmp/cctz2mOR.s:412    .text:00000000000002d8 .L0 
     /tmp/cctz2mOR.s:413    .text:00000000000002d8 .L0 
     /tmp/cctz2mOR.s:419    .text:00000000000002e0 .L0 
     /tmp/cctz2mOR.s:420    .text:00000000000002e0 .L0 
     /tmp/cctz2mOR.s:423    .text:00000000000002e8 .L0 
     /tmp/cctz2mOR.s:424    .text:00000000000002ec .L0 
     /tmp/cctz2mOR.s:426    .text:00000000000002f0 .L0 
     /tmp/cctz2mOR.s:427    .text:00000000000002f0 .L0 
     /tmp/cctz2mOR.s:429    .text:00000000000002f4 .L0 
     /tmp/cctz2mOR.s:432    .text:00000000000002f8 .L0 
     /tmp/cctz2mOR.s:435    .text:00000000000002fc .L0 
     /tmp/cctz2mOR.s:437    .text:0000000000000300 .L0 
     /tmp/cctz2mOR.s:448    .text:0000000000000300 _Z11workerBodyCPv
     /tmp/cctz2mOR.s:451    .text:0000000000000300 .L0 
     /tmp/cctz2mOR.s:452    .text:0000000000000300 .L0 
     /tmp/cctz2mOR.s:453    .text:0000000000000304 .L0 
     /tmp/cctz2mOR.s:456    .text:000000000000030c .L0 
     /tmp/cctz2mOR.s:457    .text:000000000000030c .L0 
     /tmp/cctz2mOR.s:459    .text:0000000000000310 .L0 
     /tmp/cctz2mOR.s:462    .text:0000000000000310 .L0 
     /tmp/cctz2mOR.s:463    .text:0000000000000310 .L0 
     /tmp/cctz2mOR.s:464    .text:0000000000000310 .L0 
     /tmp/cctz2mOR.s:468    .text:0000000000000320 .L0 
     /tmp/cctz2mOR.s:469    .text:0000000000000320 .L0 
     /tmp/cctz2mOR.s:472    .text:0000000000000328 .L0 
     /tmp/cctz2mOR.s:473    .text:000000000000032c .L0 
     /tmp/cctz2mOR.s:484    .text:000000000000032c _Z11workerBodyDPv
GAS LISTING /tmp/cctz2mOR.s 			page 17


     /tmp/cctz2mOR.s:487    .text:000000000000032c .L0 
     /tmp/cctz2mOR.s:488    .text:000000000000032c .L0 
     /tmp/cctz2mOR.s:489    .text:0000000000000330 .L0 
     /tmp/cctz2mOR.s:492    .text:0000000000000338 .L0 
     /tmp/cctz2mOR.s:493    .text:0000000000000338 .L0 
     /tmp/cctz2mOR.s:495    .text:000000000000033c .L0 
     /tmp/cctz2mOR.s:498    .text:000000000000033c .L0 
     /tmp/cctz2mOR.s:499    .text:000000000000033c .L0 
     /tmp/cctz2mOR.s:500    .text:000000000000033c .L0 
     /tmp/cctz2mOR.s:504    .text:000000000000034c .L0 
     /tmp/cctz2mOR.s:505    .text:000000000000034c .L0 
     /tmp/cctz2mOR.s:508    .text:0000000000000354 .L0 
     /tmp/cctz2mOR.s:509    .text:0000000000000358 .L0 
     /tmp/cctz2mOR.s:516    .text:0000000000000358 .L0 
     /tmp/cctz2mOR.s:78     .rodata.str1.8:0000000000000000 .LC0
     /tmp/cctz2mOR.s:124    .text:0000000000000090 .L0 
     /tmp/cctz2mOR.s:81     .rodata.str1.8:0000000000000008 .LC1
     /tmp/cctz2mOR.s:134    .text:00000000000000ac .L0 
     /tmp/cctz2mOR.s:84     .rodata.str1.8:0000000000000010 .LC2
     /tmp/cctz2mOR.s:149    .text:00000000000000cc .L0 
     /tmp/cctz2mOR.s:87     .rodata.str1.8:0000000000000020 .LC3
     /tmp/cctz2mOR.s:174    .text:00000000000000ec .L0 
     /tmp/cctz2mOR.s:184    .text:0000000000000108 .L0 
     /tmp/cctz2mOR.s:90     .rodata.str1.8:0000000000000028 .LC4
     /tmp/cctz2mOR.s:196    .text:0000000000000128 .L0 
     /tmp/cctz2mOR.s:207    .text:0000000000000144 .L0 
     /tmp/cctz2mOR.s:214    .text:0000000000000158 .L0 
     /tmp/cctz2mOR.s:224    .text:0000000000000174 .L0 
     /tmp/cctz2mOR.s:239    .text:0000000000000194 .L0 
     /tmp/cctz2mOR.s:93     .rodata.str1.8:0000000000000038 .LC5
     /tmp/cctz2mOR.s:258    .text:00000000000001b0 .L0 
     /tmp/cctz2mOR.s:281    .rodata.str1.8:0000000000000040 .LC6
     /tmp/cctz2mOR.s:315    .text:00000000000001f8 .L0 
     /tmp/cctz2mOR.s:325    .text:0000000000000214 .L0 
     /tmp/cctz2mOR.s:284    .rodata.str1.8:0000000000000048 .LC7
     /tmp/cctz2mOR.s:340    .text:0000000000000234 .L0 
     /tmp/cctz2mOR.s:363    .text:0000000000000260 .L0 
     /tmp/cctz2mOR.s:374    .text:000000000000027c .L0 
     /tmp/cctz2mOR.s:381    .text:0000000000000290 .L0 
     /tmp/cctz2mOR.s:391    .text:00000000000002ac .L0 
     /tmp/cctz2mOR.s:406    .text:00000000000002cc .L0 
     /tmp/cctz2mOR.s:442    .rodata.str1.8:0000000000000058 .LC8
     /tmp/cctz2mOR.s:464    .text:0000000000000310 .L0 
     /tmp/cctz2mOR.s:478    .rodata.str1.8:0000000000000060 .LC9
     /tmp/cctz2mOR.s:500    .text:000000000000033c .L0 
     /tmp/cctz2mOR.s:49     .text:000000000000004c .L1
     /tmp/cctz2mOR.s:66     .text:0000000000000064 .L6
     /tmp/cctz2mOR.s:36     .text:000000000000002c .L3
     /tmp/cctz2mOR.s:142    .text:00000000000000c4 .L9
     /tmp/cctz2mOR.s:121    .text:0000000000000090 .L13
     /tmp/cctz2mOR.s:232    .text:000000000000018c .L11
     /tmp/cctz2mOR.s:211    .text:0000000000000158 .L14
     /tmp/cctz2mOR.s:333    .text:000000000000022c .L17
     /tmp/cctz2mOR.s:312    .text:00000000000001f8 .L21
     /tmp/cctz2mOR.s:399    .text:00000000000002c4 .L19
     /tmp/cctz2mOR.s:378    .text:0000000000000290 .L22
     /tmp/cctz2mOR.s:460    .text:0000000000000310 .L24
GAS LISTING /tmp/cctz2mOR.s 			page 18


     /tmp/cctz2mOR.s:496    .text:000000000000033c .L27
     /tmp/cctz2mOR.s:1408   .debug_abbrev:0000000000000000 .Ldebug_abbrev0
     /tmp/cctz2mOR.s:2289   .debug_str:00000000000001d2 .LASF54
     /tmp/cctz2mOR.s:2231   .debug_str:0000000000000000 .LASF55
     /tmp/cctz2mOR.s:2239   .debug_str:0000000000000038 .LASF56
     /tmp/cctz2mOR.s:5      .text:0000000000000000 .Ltext0
     /tmp/cctz2mOR.s:512    .text:0000000000000358 .Letext0
     /tmp/cctz2mOR.s:2229   .debug_line:0000000000000000 .Ldebug_line0
     /tmp/cctz2mOR.s:2299   .debug_str:00000000000002d0 .LASF0
     /tmp/cctz2mOR.s:2275   .debug_str:0000000000000156 .LASF1
     /tmp/cctz2mOR.s:2269   .debug_str:0000000000000131 .LASF2
     /tmp/cctz2mOR.s:2337   .debug_str:00000000000003cd .LASF3
     /tmp/cctz2mOR.s:2243   .debug_str:000000000000006a .LASF4
     /tmp/cctz2mOR.s:2273   .debug_str:0000000000000144 .LASF5
     /tmp/cctz2mOR.s:2237   .debug_str:0000000000000031 .LASF6
     /tmp/cctz2mOR.s:2235   .debug_str:000000000000001e .LASF7
     /tmp/cctz2mOR.s:2261   .debug_str:00000000000000f1 .LASF8
     /tmp/cctz2mOR.s:2311   .debug_str:0000000000000319 .LASF9
     /tmp/cctz2mOR.s:2241   .debug_str:000000000000005c .LASF10
     /tmp/cctz2mOR.s:2363   .debug_str:00000000000004b5 .LASF11
     /tmp/cctz2mOR.s:2265   .debug_str:000000000000010f .LASF12
     /tmp/cctz2mOR.s:2345   .debug_str:0000000000000412 .LASF13
     /tmp/cctz2mOR.s:2317   .debug_str:0000000000000347 .LASF14
     /tmp/cctz2mOR.s:2279   .debug_str:0000000000000172 .LASF15
     /tmp/cctz2mOR.s:2253   .debug_str:000000000000009c .LASF16
     /tmp/cctz2mOR.s:2313   .debug_str:0000000000000329 .LASF17
     /tmp/cctz2mOR.s:2323   .debug_str:0000000000000373 .LASF57
     /tmp/cctz2mOR.s:2349   .debug_str:0000000000000436 .LASF58
     /tmp/cctz2mOR.s:2257   .debug_str:00000000000000cd .LASF18
     /tmp/cctz2mOR.s:2331   .debug_str:000000000000039f .LASF20
     /tmp/cctz2mOR.s:2263   .debug_str:0000000000000104 .LASF37
     /tmp/cctz2mOR.s:2357   .debug_str:0000000000000484 .LASF39
     /tmp/cctz2mOR.s:2305   .debug_str:00000000000002f7 .LASF19
     /tmp/cctz2mOR.s:2255   .debug_str:00000000000000b2 .LASF21
     /tmp/cctz2mOR.s:2251   .debug_str:000000000000008e .LASF22
     /tmp/cctz2mOR.s:2341   .debug_str:00000000000003e5 .LASF23
     /tmp/cctz2mOR.s:2245   .debug_str:0000000000000071 .LASF59
     /tmp/cctz2mOR.s:2297   .debug_str:00000000000002ca .LASF24
     /tmp/cctz2mOR.s:2347   .debug_str:0000000000000422 .LASF26
     /tmp/cctz2mOR.s:2303   .debug_str:00000000000002ef .LASF60
     /tmp/cctz2mOR.s:2325   .debug_str:000000000000037b .LASF25
     /tmp/cctz2mOR.s:2259   .debug_str:00000000000000d6 .LASF27
     /tmp/cctz2mOR.s:2301   .debug_str:00000000000002dd .LASF61
     /tmp/cctz2mOR.s:2291   .debug_str:0000000000000296 .LASF62
     /tmp/cctz2mOR.s:2287   .debug_str:00000000000001cd .LASF28
     /tmp/cctz2mOR.s:2247   .debug_str:0000000000000076 .LASF29
     /tmp/cctz2mOR.s:2315   .debug_str:000000000000033f .LASF30
     /tmp/cctz2mOR.s:2277   .debug_str:0000000000000169 .LASF31
     /tmp/cctz2mOR.s:2283   .debug_str:0000000000000193 .LASF63
     /tmp/cctz2mOR.s:2285   .debug_str:00000000000001a1 .LASF64
     /tmp/cctz2mOR.s:2233   .debug_str:0000000000000010 .LASF32
     /tmp/cctz2mOR.s:2355   .debug_str:0000000000000467 .LASF34
     /tmp/cctz2mOR.s:2307   .debug_str:0000000000000303 .LASF33
     /tmp/cctz2mOR.s:2351   .debug_str:000000000000043e .LASF35
     /tmp/cctz2mOR.s:2343   .debug_str:000000000000040d .LASF36
     /tmp/cctz2mOR.s:2333   .debug_str:00000000000003af .LASF38
     /tmp/cctz2mOR.s:2339   .debug_str:00000000000003d3 .LASF40
GAS LISTING /tmp/cctz2mOR.s 			page 19


     /tmp/cctz2mOR.s:485    .text:000000000000032c .LFB9
     /tmp/cctz2mOR.s:510    .text:0000000000000358 .LFE9
     /tmp/cctz2mOR.s:502    .text:000000000000034c .LVL64
     /tmp/cctz2mOR.s:506    .text:0000000000000354 .LVL65
     /tmp/cctz2mOR.s:2319   .debug_str:0000000000000357 .LASF41
     /tmp/cctz2mOR.s:2295   .debug_str:00000000000002b8 .LASF42
     /tmp/cctz2mOR.s:449    .text:0000000000000300 .LFB8
     /tmp/cctz2mOR.s:474    .text:000000000000032c .LFE8
     /tmp/cctz2mOR.s:466    .text:0000000000000320 .LVL62
     /tmp/cctz2mOR.s:470    .text:0000000000000328 .LVL63
     /tmp/cctz2mOR.s:2329   .debug_str:0000000000000393 .LASF43
     /tmp/cctz2mOR.s:2249   .debug_str:000000000000007c .LASF44
     /tmp/cctz2mOR.s:291    .text:00000000000001d8 .LFB7
     /tmp/cctz2mOR.s:438    .text:0000000000000300 .LFE7
     /tmp/cctz2mOR.s:2094   .debug_loc:0000000000000000 .LLST6
     /tmp/cctz2mOR.s:2293   .debug_str:00000000000002b1 .LASF45
     /tmp/cctz2mOR.s:2114   .debug_loc:000000000000005d .LLST7
     /tmp/cctz2mOR.s:409    .text:00000000000002d8 .LBB8
     /tmp/cctz2mOR.s:417    .text:00000000000002e0 .LBE8
     /tmp/cctz2mOR.s:2125   .debug_loc:0000000000000093 .LLST8
     /tmp/cctz2mOR.s:2133   .debug_loc:00000000000000b7 .LLST9
     /tmp/cctz2mOR.s:317    .text:0000000000000208 .LVL39
     /tmp/cctz2mOR.s:322    .text:0000000000000214 .LVL40
     /tmp/cctz2mOR.s:327    .text:0000000000000224 .LVL41
     /tmp/cctz2mOR.s:342    .text:0000000000000244 .LVL44
     /tmp/cctz2mOR.s:353    .text:0000000000000250 .LVL45
     /tmp/cctz2mOR.s:358    .text:000000000000025c .LVL46
     /tmp/cctz2mOR.s:366    .text:0000000000000270 .LVL49
     /tmp/cctz2mOR.s:371    .text:000000000000027c .LVL50
     /tmp/cctz2mOR.s:376    .text:000000000000028c .LVL51
     /tmp/cctz2mOR.s:383    .text:00000000000002a0 .LVL52
     /tmp/cctz2mOR.s:388    .text:00000000000002ac .LVL53
     /tmp/cctz2mOR.s:393    .text:00000000000002bc .LVL54
     /tmp/cctz2mOR.s:421    .text:00000000000002e8 .LVL59
     /tmp/cctz2mOR.s:2327   .debug_str:0000000000000387 .LASF46
     /tmp/cctz2mOR.s:2335   .debug_str:00000000000003bb .LASF47
     /tmp/cctz2mOR.s:100    .text:0000000000000070 .LFB6
     /tmp/cctz2mOR.s:277    .text:00000000000001d8 .LFE6
     /tmp/cctz2mOR.s:2140   .debug_loc:00000000000000da .LLST1
     /tmp/cctz2mOR.s:2160   .debug_loc:0000000000000137 .LLST2
     /tmp/cctz2mOR.s:2168   .debug_loc:000000000000015b .LLST3
     /tmp/cctz2mOR.s:242    .text:00000000000001a0 .LBB6
     /tmp/cctz2mOR.s:251    .text:00000000000001a8 .LBE6
     /tmp/cctz2mOR.s:2179   .debug_loc:0000000000000191 .LLST4
     /tmp/cctz2mOR.s:2187   .debug_loc:00000000000001b5 .LLST5
     /tmp/cctz2mOR.s:126    .text:00000000000000a0 .LVL9
     /tmp/cctz2mOR.s:131    .text:00000000000000ac .LVL10
     /tmp/cctz2mOR.s:136    .text:00000000000000bc .LVL11
     /tmp/cctz2mOR.s:151    .text:00000000000000dc .LVL14
     /tmp/cctz2mOR.s:162    .text:00000000000000e8 .LVL15
     /tmp/cctz2mOR.s:176    .text:00000000000000fc .LVL17
     /tmp/cctz2mOR.s:181    .text:0000000000000108 .LVL18
     /tmp/cctz2mOR.s:186    .text:0000000000000118 .LVL19
     /tmp/cctz2mOR.s:191    .text:0000000000000124 .LVL20
     /tmp/cctz2mOR.s:199    .text:0000000000000138 .LVL23
     /tmp/cctz2mOR.s:204    .text:0000000000000144 .LVL24
     /tmp/cctz2mOR.s:209    .text:0000000000000154 .LVL25
GAS LISTING /tmp/cctz2mOR.s 			page 20


     /tmp/cctz2mOR.s:216    .text:0000000000000168 .LVL26
     /tmp/cctz2mOR.s:221    .text:0000000000000174 .LVL27
     /tmp/cctz2mOR.s:226    .text:0000000000000184 .LVL28
     /tmp/cctz2mOR.s:255    .text:00000000000001b0 .LVL33
     /tmp/cctz2mOR.s:260    .text:00000000000001c0 .LVL34
     /tmp/cctz2mOR.s:2359   .debug_str:000000000000049f .LASF65
     /tmp/cctz2mOR.s:9      .text:0000000000000000 .LFB5
     /tmp/cctz2mOR.s:74     .text:0000000000000070 .LFE5
     /tmp/cctz2mOR.s:2194   .debug_loc:00000000000001d8 .LLST0
     /tmp/cctz2mOR.s:41     .text:0000000000000038 .LVL2
     /tmp/cctz2mOR.s:46     .text:0000000000000048 .LVL3
     /tmp/cctz2mOR.s:71     .text:000000000000006c .LVL6
     /tmp/cctz2mOR.s:2271   .debug_str:000000000000013f .LASF66
     /tmp/cctz2mOR.s:2267   .debug_str:000000000000011e .LASF48
     /tmp/cctz2mOR.s:2361   .debug_str:00000000000004a9 .LASF50
     /tmp/cctz2mOR.s:2353   .debug_str:0000000000000455 .LASF49
     /tmp/cctz2mOR.s:2309   .debug_str:000000000000030c .LASF51
     /tmp/cctz2mOR.s:2281   .debug_str:000000000000017e .LASF52
     /tmp/cctz2mOR.s:2321   .debug_str:0000000000000363 .LASF53
     /tmp/cctz2mOR.s:307    .text:00000000000001f0 .LVL37
     /tmp/cctz2mOR.s:311    .text:00000000000001f8 .LVL38
     /tmp/cctz2mOR.s:330    .text:0000000000000228 .LVL42
     /tmp/cctz2mOR.s:332    .text:000000000000022c .LVL43
     /tmp/cctz2mOR.s:396    .text:00000000000002c0 .LVL55
     /tmp/cctz2mOR.s:398    .text:00000000000002c4 .LVL56
     /tmp/cctz2mOR.s:430    .text:00000000000002f4 .LVL60
     /tmp/cctz2mOR.s:360    .text:0000000000000260 .LVL47
     /tmp/cctz2mOR.s:364    .text:0000000000000268 .LVL48
     /tmp/cctz2mOR.s:433    .text:00000000000002f8 .LVL61
     /tmp/cctz2mOR.s:408    .text:00000000000002d8 .LVL57
     /tmp/cctz2mOR.s:415    .text:00000000000002e0 .LVL58
     /tmp/cctz2mOR.s:116    .text:0000000000000088 .LVL7
     /tmp/cctz2mOR.s:120    .text:0000000000000090 .LVL8
     /tmp/cctz2mOR.s:139    .text:00000000000000c0 .LVL12
     /tmp/cctz2mOR.s:141    .text:00000000000000c4 .LVL13
     /tmp/cctz2mOR.s:229    .text:0000000000000188 .LVL29
     /tmp/cctz2mOR.s:231    .text:000000000000018c .LVL30
     /tmp/cctz2mOR.s:269    .text:00000000000001cc .LVL35
     /tmp/cctz2mOR.s:170    .text:00000000000000ec .LVL16
     /tmp/cctz2mOR.s:193    .text:0000000000000128 .LVL21
     /tmp/cctz2mOR.s:197    .text:0000000000000130 .LVL22
     /tmp/cctz2mOR.s:272    .text:00000000000001d0 .LVL36
     /tmp/cctz2mOR.s:241    .text:00000000000001a0 .LVL31
     /tmp/cctz2mOR.s:249    .text:00000000000001a8 .LVL32
     /tmp/cctz2mOR.s:13     .text:0000000000000000 .LVL0
     /tmp/cctz2mOR.s:35     .text:000000000000002c .LVL1
     /tmp/cctz2mOR.s:59     .text:0000000000000058 .LVL4
     /tmp/cctz2mOR.s:65     .text:0000000000000064 .LVL5
     /tmp/cctz2mOR.s:517    .debug_info:0000000000000000 .Ldebug_info0

UNDEFINED SYMBOLS
_Z15thread_dispatchv
_Z11printStringPKc
_Z12printIntegerm
_ZN7kThread7runningE
_ZN7kThread5yieldEv
